Certificate:
    Data:
        Version: 3 (0x2)
        Serial Number:
            8c:d0:66:db:d0:38:e5:6e:d4:c4:01:b2:41:0b:05:b4
        Signature Algorithm: sha256WithRSAEncryption
        Issuer: C=ES, O=Teleco, CN=Server CA
        Validity
            Not Before: Jan 11 18:12:39 2023 GMT
            Not After : Feb 10 18:12:39 2023 GMT
        Subject: C=ES, O=Teleco, CN=ServerTLS13
        Subject Public Key Info:
            Public Key Algorithm: rsaEncryption
                RSA Public-Key: (2048 bit)
                Modulus:
                    00:d2:65:db:e7:90:66:77:32:90:9d:71:04:53:51:
                    2a:c8:3c:8a:4b:79:2b:28:af:b8:dc:ec:42:53:04:
                    8b:90:35:49:16:2d:32:f5:bb:85:98:65:bd:77:f7:
                    f0:68:c3:69:3b:51:75:9e:17:e0:c7:0e:7c:bd:ec:
                    7c:4e:c3:c5:4f:be:19:a3:cf:d8:ea:e9:31:58:29:
                    32:74:53:d2:ac:80:0d:98:72:03:99:87:64:bb:f0:
                    f0:fa:6c:46:57:1a:12:c3:3a:64:40:d1:5f:db:5f:
                    b8:ed:a2:cb:1f:1d:3d:35:83:a3:01:c0:ef:e9:52:
                    83:d4:6b:fd:3b:ce:35:ef:8c:ff:b7:a6:c8:54:13:
                    50:8d:f8:15:46:ec:01:5c:24:a6:5d:27:4d:69:04:
                    26:d9:9e:e2:c8:dd:42:d0:ea:5b:d3:f8:a1:ae:63:
                    80:4c:fd:3b:03:a2:f5:12:da:44:f5:cf:b8:0e:65:
                    d4:89:e6:00:68:df:0f:57:c9:01:d6:1c:d5:9f:37:
                    bf:42:eb:69:d1:83:aa:73:85:99:48:63:8f:51:54:
                    1c:e7:97:6c:91:40:69:44:a3:5e:11:87:1f:af:b0:
                    f2:84:1f:10:12:c0:2a:9e:e2:bc:d7:82:09:fb:64:
                    38:51:b1:59:a4:6e:6b:94:e8:66:0a:86:23:4b:33:
                    e6:25
                Exponent: 65537 (0x10001)
        X509v3 extensions:
            Authority Information Access: 
                CA Issuers - URI:http://server-ca.Teleco.com/server-ca.crt
                OCSP - URI:http://ocsp.server-ca.Teleco.com:9081

            X509v3 Authority Key Identifier: 
                keyid:16:A7:39:41:ED:0C:D0:FB:4C:62:16:3B:2F:BD:FE:C0:8A:6B:9D:94

            X509v3 Basic Constraints: critical
                CA:FALSE
            X509v3 CRL Distribution Points: 

                Full Name:
                  URI:http://server-ca.Teleco.com/server-ca.crl

            X509v3 Extended Key Usage: 
                TLS Web Client Authentication, TLS Web Server Authentication
            X509v3 Key Usage: critical
                Digital Signature, Key Encipherment
            X509v3 Subject Key Identifier: 
                1D:8B:64:66:03:10:2A:EF:57:0D:AC:8F:F7:5A:DD:4B:8C:50:BD:3A
            X509v3 Subject Alternative Name: 
                DNS:ServerTLS13
    Signature Algorithm: sha256WithRSAEncryption
         69:3c:48:d7:fa:55:f5:75:60:5a:07:bd:b3:ea:84:73:4a:96:
         b7:9f:c0:1f:3e:2b:b5:58:2b:1a:c4:16:5d:26:53:fb:f7:bf:
         e9:f8:59:15:e2:b9:1f:9e:b7:9f:29:60:70:8c:43:0b:cb:1a:
         8f:1a:05:ed:44:7b:e5:19:05:f4:5d:5f:e2:07:91:4c:55:f8:
         21:16:d4:f9:7a:00:13:f4:ec:3b:46:36:ae:57:56:64:43:e2:
         76:f0:cc:d3:e0:99:f9:28:d2:05:d5:eb:3b:ad:c5:f6:c1:b6:
         98:d1:4e:2b:b2:ef:63:cf:61:74:69:60:96:24:8f:00:8f:10:
         40:07:cd:66:6d:ae:b5:52:ab:5b:71:9a:38:cb:10:35:fa:b6:
         c5:55:d9:1c:46:df:e5:79:ec:51:9b:05:b0:ca:d1:0c:43:66:
         76:54:fe:9b:91:82:de:08:55:5f:6d:40:f7:9f:98:c4:87:60:
         4c:1b:a2:b2:b6:18:10:1c:40:9d:50:f9:0d:0f:c0:16:8a:b0:
         ff:70:ac:0f:14:c8:b4:08:e9:e6:ac:99:32:c8:10:45:2d:f8:
         92:d9:0c:c3:76:cd:f2:48:39:0e:d7:65:d1:f7:be:36:10:07:
         f4:fb:b7:bd:55:15:1c:93:8c:23:31:ae:f1:4c:36:0a:09:3d:
         a5:32:23:40:63:47:ed:e9:b3:8c:e1:ad:a6:c5:08:4d:57:bd:
         b7:67:14:74:0a:f9:41:d8:e5:d3:b9:38:19:62:9b:85:a1:b3:
         ec:a2:b5:00:42:d9:5c:59:59:36:0a:02:c2:7c:d2:8c:d6:c6:
         29:53:76:84:b8:50:28:21:bd:2a:2a:38:48:d8:2d:0c:ee:8d:
         c7:ad:8a:b5:57:e6:03:c9:dc:b2:ed:65:5c:bf:1a:7f:e3:9d:
         a7:b1:04:e3:ba:0f:93:a9:dc:06:5c:01:a2:64:ac:60:3d:d9:
         8e:7e:28:6d:13:8f:c5:fe:6c:4e:94:b9:ec:ae:45:db:c8:4e:
         90:c6:f5:48:14:d3:46:89:f6:93:62:6f:c4:78:2a:86:5d:6e:
         4f:21:91:68:64:30:fa:b7:d4:dc:dc:e9:98:6d:95:d2:3b:19:
         a8:06:03:39:c6:89:6a:90:57:db:67:a9:a1:a8:05:bf:de:56:
         95:ec:02:e7:83:3d:5c:2d:f4:10:96:ad:ed:72:1d:ea:65:bb:
         3e:6d:7e:16:f9:64:4d:e2:dd:a7:33:47:cf:95:05:23:b5:5e:
         01:f3:fd:b1:f6:ca:52:00:f2:0a:19:fb:c1:05:3e:46:27:d9:
         04:01:54:7f:5a:73:1e:13:ac:d5:a4:29:14:21:5e:d7:95:78:
         6d:ea:51:9b:b6:db:3b:a2
-----BEGIN CERTIFICATE-----
MIIFQjCCAyqgAwIBAgIRAIzQZtvQOOVu1MQBskELBbQwDQYJKoZIhvcNAQELBQAw
MjELMAkGA1UEBhMCRVMxDzANBgNVBAoMBlRlbGVjbzESMBAGA1UEAwwJU2VydmVy
IENBMB4XDTIzMDExMTE4MTIzOVoXDTIzMDIxMDE4MTIzOVowNDELMAkGA1UEBhMC
RVMxDzANBgNVBAoMBlRlbGVjbzEUMBIGA1UEAwwLU2VydmVyVExTMTMwggEiMA0G
CSqGSIb3DQEBAQUAA4IBDwAwggEKAoIBAQDSZdvnkGZ3MpCdcQRTUSrIPIpLeSso
r7jc7EJTBIuQNUkWLTL1u4WYZb139/Bow2k7UXWeF+DHDny97HxOw8VPvhmjz9jq
6TFYKTJ0U9KsgA2YcgOZh2S78PD6bEZXGhLDOmRA0V/bX7jtossfHT01g6MBwO/p
UoPUa/07zjXvjP+3pshUE1CN+BVG7AFcJKZdJ01pBCbZnuLI3ULQ6lvT+KGuY4BM
/TsDovUS2kT1z7gOZdSJ5gBo3w9XyQHWHNWfN79C62nRg6pzhZlIY49RVBznl2yR
QGlEo14Rhx+vsPKEHxASwCqe4rzXggn7ZDhRsVmkbmuU6GYKhiNLM+YlAgMBAAGj
ggFPMIIBSzB4BggrBgEFBQcBAQRsMGowNQYIKwYBBQUHMAKGKWh0dHA6Ly9zZXJ2
ZXItY2EuVGVsZWNvLmNvbS9zZXJ2ZXItY2EuY3J0MDEGCCsGAQUFBzABhiVodHRw
Oi8vb2NzcC5zZXJ2ZXItY2EuVGVsZWNvLmNvbTo5MDgxMB8GA1UdIwQYMBaAFBan
OUHtDND7TGIWOy+9/sCKa52UMAwGA1UdEwEB/wQCMAAwOgYDVR0fBDMwMTAvoC2g
K4YpaHR0cDovL3NlcnZlci1jYS5UZWxlY28uY29tL3NlcnZlci1jYS5jcmwwHQYD
VR0lBBYwFAYIKwYBBQUHAwIGCCsGAQUFBwMBMA4GA1UdDwEB/wQEAwIFoDAdBgNV
HQ4EFgQUHYtkZgMQKu9XDayP91rdS4xQvTowFgYDVR0RBA8wDYILU2VydmVyVExT
MTMwDQYJKoZIhvcNAQELBQADggIBAGk8SNf6VfV1YFoHvbPqhHNKlrefwB8+K7VY
KxrEFl0mU/v3v+n4WRXiuR+et58pYHCMQwvLGo8aBe1Ee+UZBfRdX+IHkUxV+CEW
1Pl6ABP07DtGNq5XVmRD4nbwzNPgmfko0gXV6zutxfbBtpjRTiuy72PPYXRpYJYk
jwCPEEAHzWZtrrVSq1txmjjLEDX6tsVV2RxG3+V57FGbBbDK0QxDZnZU/puRgt4I
VV9tQPefmMSHYEwborK2GBAcQJ1Q+Q0PwBaKsP9wrA8UyLQI6easmTLIEEUt+JLZ
DMN2zfJIOQ7XZdH3vjYQB/T7t71VFRyTjCMxrvFMNgoJPaUyI0BjR+3ps4zhrabF
CE1XvbdnFHQK+UHY5dO5OBlim4Whs+yitQBC2VxZWTYKAsJ80ozWxilTdoS4UCgh
vSoqOEjYLQzujcetirVX5gPJ3LLtZVy/Gn/jnaexBOO6D5Op3AZcAaJkrGA92Y5+
KG0Tj8X+bE6UueyuRdvITpDG9UgU00aJ9pNib8R4KoZdbk8hkWhkMPq31Nzc6Zht
ldI7GagGAznGiWqQV9tnqaGoBb/eVpXsAueDPVwt9BCWre1yHepluz5tfhb5ZE3i
3aczR8+VBSO1XgHz/bH2ylIA8goZ+8EFPkYn2QQBVH9acx4TrNWkKRQhXteVeG3q
UZu22zui
-----END CERTIFICATE-----
