Certificate:
    Data:
        Version: 3 (0x2)
        Serial Number:
            8c:d0:66:db:d0:38:e5:6e:d4:c4:01:b2:41:0b:05:b5
        Signature Algorithm: sha256WithRSAEncryption
        Issuer: C=ES, O=Teleco, CN=Server CA
        Validity
            Not Before: Feb  6 16:50:12 2023 GMT
            Not After : Feb  6 16:50:12 2024 GMT
        Subject: C=ES, O=Teleco, CN=serverFirma
        Subject Public Key Info:
            Public Key Algorithm: rsaEncryption
                RSA Public-Key: (1512 bit)
                Modulus:
                    00:be:8c:27:e8:ea:16:1f:21:eb:65:20:b8:1a:59:
                    76:de:57:f3:cd:de:2f:5c:7f:18:bc:3d:af:db:d0:
                    cc:10:25:a3:03:67:a9:39:43:03:f4:e4:8b:a2:a7:
                    37:6e:4d:3e:c4:2e:1d:3e:78:b6:ad:e5:3c:7b:1a:
                    1d:08:d7:a5:54:8f:41:d4:38:63:dd:b8:1c:0d:9b:
                    c9:92:ee:3e:d9:9d:ba:84:37:33:cf:e7:1b:50:24:
                    a9:65:7d:ed:b3:3a:bf:d7:d4:23:ef:07:48:b8:c1:
                    2e:21:03:ee:88:96:2b:87:99:16:c7:c0:20:97:28:
                    e0:cd:df:be:68:6e:8b:25:78:10:01:84:1d:c0:65:
                    2c:c9:64:99:07:ec:5c:c1:74:5c:f9:e2:c1:e3:e2:
                    a0:7a:cc:b9:3e:cc:56:42:1c:e6:b6:93:78:fe:db:
                    80:98:5e:3b:cb:cc:b7:62:56:0e:8f:24:cb:f4:eb:
                    31:cf:96:48:7d:15:5c:ec:f3:db
                Exponent: 65537 (0x10001)
        X509v3 extensions:
            Authority Information Access: 
                CA Issuers - URI:http://server-ca.Teleco.com/server-ca.crt
                OCSP - URI:http://ocsp.server-ca.Teleco.com:9081

            X509v3 Authority Key Identifier: 
                keyid:16:A7:39:41:ED:0C:D0:FB:4C:62:16:3B:2F:BD:FE:C0:8A:6B:9D:94

            X509v3 Basic Constraints: critical
                CA:FALSE
            X509v3 CRL Distribution Points: 

                Full Name:
                  URI:http://server-ca.Teleco.com/server-ca.crl

            X509v3 Extended Key Usage: 
                TLS Web Client Authentication, TLS Web Server Authentication
            X509v3 Key Usage: critical
                Digital Signature, Key Encipherment
            X509v3 Subject Key Identifier: 
                D1:A2:86:02:B0:01:9E:32:93:B6:79:4C:DE:32:32:8D:9C:6C:F2:CF
    Signature Algorithm: sha256WithRSAEncryption
         2a:71:ed:7c:d1:0f:c9:21:9a:19:f1:2a:05:55:5e:33:71:4f:
         35:59:ce:85:10:64:5a:d0:03:66:1e:68:98:1e:c7:14:ee:c5:
         2c:75:1a:79:00:18:88:f0:2b:43:c8:f6:ea:6b:9b:ca:4d:ec:
         95:49:f7:7b:95:ba:2b:a3:c9:44:fd:ae:88:78:8d:e1:85:58:
         11:67:43:a8:82:93:e1:84:e2:94:7d:7c:0f:e0:46:36:ad:24:
         c8:d5:65:7e:ed:26:36:1c:bb:4e:38:80:0d:d0:4c:6b:57:b5:
         15:46:3c:a0:6c:2b:b4:ac:6b:4d:4a:ed:13:dd:56:25:26:41:
         41:da:85:19:1e:af:27:02:e5:3d:82:44:95:ad:ff:d3:a1:39:
         43:19:f5:9e:01:34:f0:3b:c1:bf:f0:56:64:f8:76:71:ab:5a:
         55:25:b3:3a:f1:cf:e2:4d:52:94:80:80:d9:16:8a:c2:60:97:
         b2:3a:1e:e4:b8:3c:d2:89:b6:bb:d9:e5:65:ed:6c:cb:10:fa:
         eb:46:84:21:1f:ad:43:c4:ef:2a:00:cf:f7:5a:bc:22:aa:96:
         20:0c:e1:a4:3d:8f:22:dc:a6:a9:9b:00:99:10:49:fd:7f:a2:
         62:49:c5:c4:e2:be:9d:7f:d2:00:e2:8f:e5:0b:00:7b:53:66:
         82:c1:11:f0:5f:c4:44:b3:9a:c5:61:62:5c:5d:82:45:79:05:
         76:5f:28:2c:0f:af:9f:c4:ee:48:6b:bf:02:ac:3b:c7:d9:f7:
         79:ac:8e:95:c7:75:e6:6c:e0:c3:77:ff:7f:dd:21:33:de:fa:
         07:cb:5b:9f:da:cf:7d:39:ed:f3:55:d5:eb:82:d5:67:ad:8a:
         e0:4c:f0:da:11:9f:c4:62:29:2c:40:e9:ec:62:46:98:79:ae:
         b1:8d:53:27:89:c2:0e:81:69:f1:9c:2d:09:88:25:24:b0:18:
         25:eb:a3:ff:98:99:57:85:3c:07:6e:a6:c4:b1:bd:38:6a:3a:
         b0:92:86:c5:2a:95:9f:eb:9f:13:ec:0d:26:97:ae:8e:9d:7b:
         b9:30:e8:e5:21:8f:95:28:e7:47:5b:6a:a7:3e:b1:b1:5d:d6:
         0f:d9:3b:42:a2:07:0b:b2:2f:d0:e1:ae:c2:d1:ac:63:7a:92:
         4f:0b:cd:b8:f6:98:fb:d3:13:4d:98:b5:fd:76:8c:80:14:a1:
         89:1a:58:f2:c4:a3:7a:2f:8d:45:24:f6:ee:0b:79:49:d9:47:
         06:c7:42:bd:8f:ba:b1:ba:94:55:aa:b0:e9:6d:2b:2f:c8:bf:
         76:a6:f4:73:10:21:38:c3:eb:0b:41:cd:21:c8:68:3c:c4:71:
         f6:3e:af:e1:75:b6:66:59
-----BEGIN CERTIFICATE-----
MIIE4zCCAsugAwIBAgIRAIzQZtvQOOVu1MQBskELBbUwDQYJKoZIhvcNAQELBQAw
MjELMAkGA1UEBhMCRVMxDzANBgNVBAoMBlRlbGVjbzESMBAGA1UEAwwJU2VydmVy
IENBMB4XDTIzMDIwNjE2NTAxMloXDTI0MDIwNjE2NTAxMlowNDELMAkGA1UEBhMC
RVMxDzANBgNVBAoMBlRlbGVjbzEUMBIGA1UEAwwLc2VydmVyRmlybWEwgdwwDQYJ
KoZIhvcNAQEBBQADgcoAMIHGAoG+AL6MJ+jqFh8h62UguBpZdt5X883eL1x/GLw9
r9vQzBAlowNnqTlDA/Tki6KnN25NPsQuHT54tq3lPHsaHQjXpVSPQdQ4Y924HA2b
yZLuPtmduoQ3M8/nG1AkqWV97bM6v9fUI+8HSLjBLiED7oiWK4eZFsfAIJco4M3f
vmhuiyV4EAGEHcBlLMlkmQfsXMF0XPniwePioHrMuT7MVkIc5raTeP7bgJheO8vM
t2JWDo8ky/TrMc+WSH0VXOzz2wIDAQABo4IBNzCCATMweAYIKwYBBQUHAQEEbDBq
MDUGCCsGAQUFBzAChilodHRwOi8vc2VydmVyLWNhLlRlbGVjby5jb20vc2VydmVy
LWNhLmNydDAxBggrBgEFBQcwAYYlaHR0cDovL29jc3Auc2VydmVyLWNhLlRlbGVj
by5jb206OTA4MTAfBgNVHSMEGDAWgBQWpzlB7QzQ+0xiFjsvvf7AimudlDAMBgNV
HRMBAf8EAjAAMDoGA1UdHwQzMDEwL6AtoCuGKWh0dHA6Ly9zZXJ2ZXItY2EuVGVs
ZWNvLmNvbS9zZXJ2ZXItY2EuY3JsMB0GA1UdJQQWMBQGCCsGAQUFBwMCBggrBgEF
BQcDATAOBgNVHQ8BAf8EBAMCBaAwHQYDVR0OBBYEFNGihgKwAZ4yk7Z5TN4yMo2c
bPLPMA0GCSqGSIb3DQEBCwUAA4ICAQAqce180Q/JIZoZ8SoFVV4zcU81Wc6FEGRa
0ANmHmiYHscU7sUsdRp5ABiI8CtDyPbqa5vKTeyVSfd7lboro8lE/a6IeI3hhVgR
Z0OogpPhhOKUfXwP4EY2rSTI1WV+7SY2HLtOOIAN0ExrV7UVRjygbCu0rGtNSu0T
3VYlJkFB2oUZHq8nAuU9gkSVrf/ToTlDGfWeATTwO8G/8FZk+HZxq1pVJbM68c/i
TVKUgIDZForCYJeyOh7kuDzSiba72eVl7WzLEPrrRoQhH61DxO8qAM/3WrwiqpYg
DOGkPY8i3KapmwCZEEn9f6JiScXE4r6df9IA4o/lCwB7U2aCwRHwX8REs5rFYWJc
XYJFeQV2XygsD6+fxO5Ia78CrDvH2fd5rI6Vx3XmbODDd/9/3SEz3voHy1uf2s99
Oe3zVdXrgtVnrYrgTPDaEZ/EYiksQOnsYkaYea6xjVMnicIOgWnxnC0JiCUksBgl
66P/mJlXhTwHbqbEsb04ajqwkobFKpWf658T7A0ml66OnXu5MOjlIY+VKOdHW2qn
PrGxXdYP2TtCogcLsi/Q4a7C0axjepJPC8249pj70xNNmLX9doyAFKGJGljyxKN6
L41FJPbuC3lJ2UcGx0K9j7qxupRVqrDpbSsvyL92pvRzECE4w+sLQc0hyGg8xHH2
Pq/hdbZmWQ==
-----END CERTIFICATE-----
