Certificate:
    Data:
        Version: 3 (0x2)
        Serial Number:
            8c:d0:66:db:d0:38:e5:6e:d4:c4:01:b2:41:0b:05:c7
        Signature Algorithm: sha256WithRSAEncryption
        Issuer: C=ES, O=Teleco, CN=Server CA
        Validity
            Not Before: Apr  4 15:05:57 2023 GMT
            Not After : Apr  1 15:05:57 2033 GMT
        Subject: C=ES, O=Teleco, CN=servertls13
        Subject Public Key Info:
            Public Key Algorithm: rsaEncryption
                RSA Public-Key: (1512 bit)
                Modulus:
                    00:95:84:26:b1:58:3f:57:0a:1f:48:a4:5a:ce:01:
                    f8:af:19:81:08:27:f0:98:08:24:a6:4b:ed:2e:9a:
                    43:30:df:b6:ed:4a:a2:8d:93:a1:74:e9:0a:fc:d5:
                    c8:23:c2:3b:b7:e6:fe:3a:18:4a:50:98:e7:f6:31:
                    95:8d:a4:72:aa:e2:78:00:16:55:08:ee:82:ee:92:
                    d6:4e:20:b2:90:3c:aa:1d:6d:ae:01:d1:d4:43:e6:
                    6a:39:c7:45:9a:74:6f:ba:1a:71:a8:5d:a1:b4:c2:
                    20:87:01:79:8d:17:3c:9c:17:fc:31:c5:e1:c1:17:
                    96:b9:ab:57:48:47:4e:b6:4f:40:36:19:d0:30:f7:
                    2d:bd:37:19:08:90:de:c3:9b:dc:04:a3:e7:49:da:
                    e4:cb:c7:7c:0d:86:fe:ae:9c:07:fe:e3:79:13:0b:
                    b9:75:c8:62:96:33:cd:9b:25:45:04:f0:2f:b3:13:
                    5a:85:8a:e2:4b:43:df:b4:8d:c5
                Exponent: 65537 (0x10001)
        X509v3 extensions:
            Authority Information Access: 
                OCSP - URI:http://localhost:9080/

            X509v3 Authority Key Identifier: 
                keyid:D0:0F:03:63:55:5A:96:94:DA:FA:8E:B1:39:C3:F2:A5:E2:1B:37:EB

            X509v3 Basic Constraints: critical
                CA:FALSE
            X509v3 CRL Distribution Points: 

                Full Name:
                  URI:http://server-ca.Teleco.com/server-ca.crl

            X509v3 Extended Key Usage: 
                TLS Web Client Authentication, TLS Web Server Authentication, OCSP Signing
            X509v3 Key Usage: critical
                Digital Signature, Key Encipherment
            X509v3 Subject Key Identifier: 
                03:45:05:D2:FA:2D:B3:C1:AB:B1:CC:81:5D:8E:A2:95:CB:E2:2E:8A
    Signature Algorithm: sha256WithRSAEncryption
         41:bd:de:64:a2:cf:10:eb:1c:af:eb:c3:78:5e:ca:a1:e8:5c:
         92:e6:b0:6a:15:28:f6:89:f7:41:4b:95:10:e3:6a:45:e0:ea:
         88:e8:7e:80:5a:69:24:e2:c1:97:96:d1:33:74:bd:4c:95:60:
         48:0c:c4:51:fc:da:24:1d:24:0e:33:9c:47:2c:55:fc:f3:68:
         0e:cd:4b:cb:17:72:8b:85:3b:33:26:f9:8e:d8:4c:bb:e8:e1:
         e8:bd:27:96:00:44:1c:ef:e1:fe:aa:df:3d:e8:29:d1:a7:e3:
         d4:45:7b:f8:fa:8b:5f:84:f9:2d:d5:33:2d:f5:b8:d4:40:93:
         75:d9:5c:8a:40:bb:b5:2f:bc:41:b4:45:8f:10:fe:d6:71:14:
         0a:b0:21:0e:8c:77:b8:1f:da:92:54:8a:f3:e1:7c:9f:59:d4:
         de:8c:45:a7:c2:36:9d:b8:34:c4:4e:da:7b:ef:77:19:40:f8:
         95:d5:a3:a7:b8:50:e6:79:0b:a6:bc:2f:47:57:1f:bb:63:8d:
         33:13:e9:cc:ee:1e:a2:1b:3b:c3:1c:5b:ec:b7:18:d1:bb:40:
         d1:86:51:79:29:a7:f4:9e:0f:48:20:ff:a1:f0:4e:bf:e7:21:
         8a:25:66:48:65:2f:0b:4f:0e:cf:99:8d:43:aa:9b:10:76:0f:
         8b:3f:ea:c8:a0:bd:d8:ff:b2:12:73:5f:b6:80:85:39:9f:bf:
         88:c4:64:4b:0b:25:7b:44:4d:85:e7:2c:7f:7c:bf:47:17:74:
         5a:78:da:a7:75:b6:20:d6:e2:a7:36:75:40:76:a4:67:a4:3d:
         ff:ad:d2:fc:34:6a:85:de:be:2b:71:e7:0c:2f:4e:32:51:1a:
         6c:1b:cd:80:20:19:cc:50:56:cc:cf:ce:e6:74:36:1f:81:e4:
         3b:11:2c:05:57:fc:f0:f7:53:3b:35:c2:59:07:40:d3:00:6d:
         1c:cd:14:ca:fb:85:51:02:bb:ae:2b:28:85:15:5d:a9:3c:38:
         e5:2d:cb:4a:39:1b:68:f9:4a:3e:21:53:8f:72:71:01:2c:2e:
         8e:c5:8a:7d:38:4c:ef:e3:22:fb:f2:da:9f:e2:4f:a1:ea:3c:
         f9:8e:12:3d:c5:a5:99:7d:25:e9:cf:6d:f7:c4:a6:a8:4d:b5:
         57:dd:4f:ab:f7:c1:4f:2c:f9:96:09:75:ca:fe:75:4e:5f:b3:
         da:e9:61:b4:d5:74:53:ce:a4:90:66:ee:1d:e4:87:4d:93:88:
         d6:d8:c3:48:10:01:7f:b1:b9:64:59:fb:2d:a8:96:aa:b1:66:
         88:14:51:46:8c:cf:1c:24:ba:61:23:fe:05:97:6b:d6:ff:e3:
         9b:a1:de:d7:63:e6:f7:da
-----BEGIN CERTIFICATE-----
MIIEpTCCAo2gAwIBAgIRAIzQZtvQOOVu1MQBskELBccwDQYJKoZIhvcNAQELBQAw
MjELMAkGA1UEBhMCRVMxDzANBgNVBAoMBlRlbGVjbzESMBAGA1UEAwwJU2VydmVy
IENBMB4XDTIzMDQwNDE1MDU1N1oXDTMzMDQwMTE1MDU1N1owNDELMAkGA1UEBhMC
RVMxDzANBgNVBAoMBlRlbGVjbzEUMBIGA1UEAwwLc2VydmVydGxzMTMwgdwwDQYJ
KoZIhvcNAQEBBQADgcoAMIHGAoG+AJWEJrFYP1cKH0ikWs4B+K8ZgQgn8JgIJKZL
7S6aQzDftu1Koo2ToXTpCvzVyCPCO7fm/joYSlCY5/YxlY2kcqrieAAWVQjugu6S
1k4gspA8qh1trgHR1EPmajnHRZp0b7oacahdobTCIIcBeY0XPJwX/DHF4cEXlrmr
V0hHTrZPQDYZ0DD3Lb03GQiQ3sOb3ASj50na5MvHfA2G/q6cB/7jeRMLuXXIYpYz
zZslRQTwL7MTWoWK4ktD37SNxQIDAQABo4H6MIH3MDIGCCsGAQUFBwEBBCYwJDAi
BggrBgEFBQcwAYYWaHR0cDovL2xvY2FsaG9zdDo5MDgwLzAfBgNVHSMEGDAWgBTQ
DwNjVVqWlNr6jrE5w/Kl4hs36zAMBgNVHRMBAf8EAjAAMDoGA1UdHwQzMDEwL6At
oCuGKWh0dHA6Ly9zZXJ2ZXItY2EuVGVsZWNvLmNvbS9zZXJ2ZXItY2EuY3JsMCcG
A1UdJQQgMB4GCCsGAQUFBwMCBggrBgEFBQcDAQYIKwYBBQUHAwkwDgYDVR0PAQH/
BAQDAgWgMB0GA1UdDgQWBBQDRQXS+i2zwauxzIFdjqKVy+IuijANBgkqhkiG9w0B
AQsFAAOCAgEAQb3eZKLPEOscr+vDeF7KoehckuawahUo9on3QUuVEONqReDqiOh+
gFppJOLBl5bRM3S9TJVgSAzEUfzaJB0kDjOcRyxV/PNoDs1Lyxdyi4U7Myb5jthM
u+jh6L0nlgBEHO/h/qrfPegp0afj1EV7+PqLX4T5LdUzLfW41ECTddlcikC7tS+8
QbRFjxD+1nEUCrAhDox3uB/aklSK8+F8n1nU3oxFp8I2nbg0xE7ae+93GUD4ldWj
p7hQ5nkLprwvR1cfu2ONMxPpzO4eohs7wxxb7LcY0btA0YZReSmn9J4PSCD/ofBO
v+chiiVmSGUvC08Oz5mNQ6qbEHYPiz/qyKC92P+yEnNftoCFOZ+/iMRkSwsle0RN
hecsf3y/Rxd0Wnjap3W2INbipzZ1QHakZ6Q9/63S/DRqhd6+K3HnDC9OMlEabBvN
gCAZzFBWzM/O5nQ2H4HkOxEsBVf88PdTOzXCWQdA0wBtHM0UyvuFUQK7risohRVd
qTw45S3LSjkbaPlKPiFTj3JxASwujsWKfThM7+Mi+/Lan+JPoeo8+Y4SPcWlmX0l
6c9t98SmqE21V91Pq/fBTyz5lgl1yv51Tl+z2ulhtNV0U86kkGbuHeSHTZOI1tjD
SBABf7G5ZFn7LaiWqrFmiBRRRozPHCS6YSP+BZdr1v/jm6He12Pm99o=
-----END CERTIFICATE-----
