Certificate:
    Data:
        Version: 3 (0x2)
        Serial Number:
            8c:d0:66:db:d0:38:e5:6e:d4:c4:01:b2:41:0b:05:c3
        Signature Algorithm: sha256WithRSAEncryption
        Issuer: C=ES, O=Teleco, CN=Server CA
        Validity
            Not Before: Apr  4 14:50:06 2023 GMT
            Not After : Apr  1 14:50:06 2033 GMT
        Subject: C=ES, O=Teleco, CN=servertls13
        Subject Public Key Info:
            Public Key Algorithm: rsaEncryption
                RSA Public-Key: (1512 bit)
                Modulus:
                    00:95:84:26:b1:58:3f:57:0a:1f:48:a4:5a:ce:01:
                    f8:af:19:81:08:27:f0:98:08:24:a6:4b:ed:2e:9a:
                    43:30:df:b6:ed:4a:a2:8d:93:a1:74:e9:0a:fc:d5:
                    c8:23:c2:3b:b7:e6:fe:3a:18:4a:50:98:e7:f6:31:
                    95:8d:a4:72:aa:e2:78:00:16:55:08:ee:82:ee:92:
                    d6:4e:20:b2:90:3c:aa:1d:6d:ae:01:d1:d4:43:e6:
                    6a:39:c7:45:9a:74:6f:ba:1a:71:a8:5d:a1:b4:c2:
                    20:87:01:79:8d:17:3c:9c:17:fc:31:c5:e1:c1:17:
                    96:b9:ab:57:48:47:4e:b6:4f:40:36:19:d0:30:f7:
                    2d:bd:37:19:08:90:de:c3:9b:dc:04:a3:e7:49:da:
                    e4:cb:c7:7c:0d:86:fe:ae:9c:07:fe:e3:79:13:0b:
                    b9:75:c8:62:96:33:cd:9b:25:45:04:f0:2f:b3:13:
                    5a:85:8a:e2:4b:43:df:b4:8d:c5
                Exponent: 65537 (0x10001)
        X509v3 extensions:
            Authority Information Access: 
                OCSP - URI:http://localhost:9080/

            X509v3 Authority Key Identifier: 
                keyid:21:9A:D7:40:94:17:FD:73:63:58:AE:F8:6A:CB:55:50:A7:38:D4:59

            X509v3 Basic Constraints: critical
                CA:FALSE
            X509v3 CRL Distribution Points: 

                Full Name:
                  URI:http://server-ca.Teleco.com/server-ca.crl

            X509v3 Extended Key Usage: 
                TLS Web Client Authentication, TLS Web Server Authentication, OCSP Signing
            X509v3 Key Usage: critical
                Digital Signature, Key Encipherment
            X509v3 Subject Key Identifier: 
                03:45:05:D2:FA:2D:B3:C1:AB:B1:CC:81:5D:8E:A2:95:CB:E2:2E:8A
    Signature Algorithm: sha256WithRSAEncryption
         58:2d:54:af:d4:9f:a3:ba:3d:fa:49:77:ed:ea:50:ca:e3:17:
         86:ce:e2:a5:30:9e:3f:1e:9d:be:ca:cc:a0:f2:e1:3c:65:10:
         8b:61:7d:c5:a5:ce:b9:d7:fb:7f:c5:06:a0:0b:fe:66:4d:92:
         8d:21:b3:67:53:72:fe:a6:42:f5:71:79:d3:3c:a2:39:7b:fb:
         02:24:31:c7:70:fa:88:6a:39:d3:ff:21:68:4f:c6:23:45:34:
         45:da:4c:11:dd:c1:3a:7b:ba:06:2a:2a:79:09:25:88:22:1a:
         0a:e9:ef:81:86:c7:3e:af:77:87:fd:ae:a7:c9:cb:e4:f7:ab:
         cf:22:99:ac:e5:9d:bd:d6:36:c6:a2:f4:2e:36:66:e8:c0:a6:
         b0:2b:d4:04:38:79:d9:50:d2:88:9d:b3:a7:2d:48:8a:c7:28:
         81:77:fe:9c:93:a8:f5:0b:95:69:18:bc:8c:30:41:2d:da:e2:
         e1:3e:de:c2:5b:53:c5:6e:10:c6:8f:3d:9a:d6:e7:3e:48:44:
         aa:70:82:d1:52:40:d2:5d:dd:1b:25:43:3c:5a:1e:4a:bb:60:
         c0:06:4f:14:8c:91:ef:21:a0:ed:88:7e:48:16:0f:6a:a8:0f:
         27:89:57:16:38:7e:17:8f:80:db:61:b8:13:86:12:46:23:e8:
         89:ea:5e:07:e0:4f:00:01:85:b7:d4:ef:77:38:19:02:a6:28:
         93:7f:ce:65:ad:af:d5:7f:f6:ba:34:aa:17:12:da:88:9a:70:
         3d:6b:3a:14:04:ec:e4:15:87:9d:4c:26:a7:01:a6:18:d2:5c:
         9b:6b:b8:3c:42:b0:b2:15:df:4d:a2:12:2a:4b:14:9b:27:f3:
         0a:a3:f6:e6:f4:9b:79:eb:bf:ea:63:ba:ec:d2:19:04:6c:31:
         8f:ff:99:4e:91:57:bf:64:fe:83:04:a4:8a:a7:f4:3e:60:e2:
         83:0a:f3:30:95:cd:74:dd:ab:b8:f9:c5:3e:4a:36:7c:bc:60:
         86:59:3e:ab:84:43:09:92:2f:e2:2c:4d:d0:03:9c:a3:e8:dd:
         8f:a9:3b:9e:52:e5:e9:d8:42:78:0c:59:42:fd:a5:04:52:c5:
         84:dd:a5:13:2f:85:d1:92:d9:08:30:da:12:74:d5:2f:85:72:
         b7:ff:cc:5d:e9:77:04:5c:0a:bc:53:8f:c6:56:65:81:c3:92:
         4c:f8:b8:b6:d5:3c:3d:ad:17:b6:18:09:c0:04:96:b8:bd:b2:
         14:d6:d7:ae:44:5d:2b:7f:df:88:a0:ea:a8:50:85:b1:cc:38:
         f5:98:5e:98:23:1a:9d:ce:b5:e8:e2:0e:c9:12:f2:82:60:1e:
         e1:bc:ea:60:2a:30:00:a1
-----BEGIN CERTIFICATE-----
MIIEpTCCAo2gAwIBAgIRAIzQZtvQOOVu1MQBskELBcMwDQYJKoZIhvcNAQELBQAw
MjELMAkGA1UEBhMCRVMxDzANBgNVBAoMBlRlbGVjbzESMBAGA1UEAwwJU2VydmVy
IENBMB4XDTIzMDQwNDE0NTAwNloXDTMzMDQwMTE0NTAwNlowNDELMAkGA1UEBhMC
RVMxDzANBgNVBAoMBlRlbGVjbzEUMBIGA1UEAwwLc2VydmVydGxzMTMwgdwwDQYJ
KoZIhvcNAQEBBQADgcoAMIHGAoG+AJWEJrFYP1cKH0ikWs4B+K8ZgQgn8JgIJKZL
7S6aQzDftu1Koo2ToXTpCvzVyCPCO7fm/joYSlCY5/YxlY2kcqrieAAWVQjugu6S
1k4gspA8qh1trgHR1EPmajnHRZp0b7oacahdobTCIIcBeY0XPJwX/DHF4cEXlrmr
V0hHTrZPQDYZ0DD3Lb03GQiQ3sOb3ASj50na5MvHfA2G/q6cB/7jeRMLuXXIYpYz
zZslRQTwL7MTWoWK4ktD37SNxQIDAQABo4H6MIH3MDIGCCsGAQUFBwEBBCYwJDAi
BggrBgEFBQcwAYYWaHR0cDovL2xvY2FsaG9zdDo5MDgwLzAfBgNVHSMEGDAWgBQh
mtdAlBf9c2NYrvhqy1VQpzjUWTAMBgNVHRMBAf8EAjAAMDoGA1UdHwQzMDEwL6At
oCuGKWh0dHA6Ly9zZXJ2ZXItY2EuVGVsZWNvLmNvbS9zZXJ2ZXItY2EuY3JsMCcG
A1UdJQQgMB4GCCsGAQUFBwMCBggrBgEFBQcDAQYIKwYBBQUHAwkwDgYDVR0PAQH/
BAQDAgWgMB0GA1UdDgQWBBQDRQXS+i2zwauxzIFdjqKVy+IuijANBgkqhkiG9w0B
AQsFAAOCAgEAWC1Ur9Sfo7o9+kl37epQyuMXhs7ipTCePx6dvsrMoPLhPGUQi2F9
xaXOudf7f8UGoAv+Zk2SjSGzZ1Ny/qZC9XF50zyiOXv7AiQxx3D6iGo50/8haE/G
I0U0RdpMEd3BOnu6BioqeQkliCIaCunvgYbHPq93h/2up8nL5PerzyKZrOWdvdY2
xqL0LjZm6MCmsCvUBDh52VDSiJ2zpy1IiscogXf+nJOo9QuVaRi8jDBBLdri4T7e
wltTxW4Qxo89mtbnPkhEqnCC0VJA0l3dGyVDPFoeSrtgwAZPFIyR7yGg7Yh+SBYP
aqgPJ4lXFjh+F4+A22G4E4YSRiPoiepeB+BPAAGFt9TvdzgZAqYok3/OZa2v1X/2
ujSqFxLaiJpwPWs6FATs5BWHnUwmpwGmGNJcm2u4PEKwshXfTaISKksUmyfzCqP2
5vSbeeu/6mO67NIZBGwxj/+ZTpFXv2T+gwSkiqf0PmDigwrzMJXNdN2ruPnFPko2
fLxghlk+q4RDCZIv4ixN0AOco+jdj6k7nlLl6dhCeAxZQv2lBFLFhN2lEy+F0ZLZ
CDDaEnTVL4Vyt//MXel3BFwKvFOPxlZlgcOSTPi4ttU8Pa0XthgJwASWuL2yFNbX
rkRdK3/fiKDqqFCFscw49ZhemCManc616OIOyRLygmAe4bzqYCowAKE=
-----END CERTIFICATE-----
