Certificate:
    Data:
        Version: 3 (0x2)
        Serial Number:
            8c:d0:66:db:d0:38:e5:6e:d4:c4:01:b2:41:0b:05:b7
        Signature Algorithm: sha256WithRSAEncryption
        Issuer: C=ES, O=Teleco, CN=Server CA
        Validity
            Not Before: Mar  4 22:28:28 2023 GMT
            Not After : Jun  2 22:28:28 2023 GMT
        Subject: C=ES, O=Teleco, CN=servertls13
        Subject Public Key Info:
            Public Key Algorithm: rsaEncryption
                RSA Public-Key: (1512 bit)
                Modulus:
                    00:95:84:26:b1:58:3f:57:0a:1f:48:a4:5a:ce:01:
                    f8:af:19:81:08:27:f0:98:08:24:a6:4b:ed:2e:9a:
                    43:30:df:b6:ed:4a:a2:8d:93:a1:74:e9:0a:fc:d5:
                    c8:23:c2:3b:b7:e6:fe:3a:18:4a:50:98:e7:f6:31:
                    95:8d:a4:72:aa:e2:78:00:16:55:08:ee:82:ee:92:
                    d6:4e:20:b2:90:3c:aa:1d:6d:ae:01:d1:d4:43:e6:
                    6a:39:c7:45:9a:74:6f:ba:1a:71:a8:5d:a1:b4:c2:
                    20:87:01:79:8d:17:3c:9c:17:fc:31:c5:e1:c1:17:
                    96:b9:ab:57:48:47:4e:b6:4f:40:36:19:d0:30:f7:
                    2d:bd:37:19:08:90:de:c3:9b:dc:04:a3:e7:49:da:
                    e4:cb:c7:7c:0d:86:fe:ae:9c:07:fe:e3:79:13:0b:
                    b9:75:c8:62:96:33:cd:9b:25:45:04:f0:2f:b3:13:
                    5a:85:8a:e2:4b:43:df:b4:8d:c5
                Exponent: 65537 (0x10001)
        X509v3 extensions:
            Authority Information Access: 
                CA Issuers - URI:http://server-ca.Teleco.com/server-ca.crt
                OCSP - URI:http://ocsp.server-ca.Teleco.com:9081

            X509v3 Authority Key Identifier: 
                keyid:16:A7:39:41:ED:0C:D0:FB:4C:62:16:3B:2F:BD:FE:C0:8A:6B:9D:94

            X509v3 Basic Constraints: critical
                CA:FALSE
            X509v3 CRL Distribution Points: 

                Full Name:
                  URI:http://server-ca.Teleco.com/server-ca.crl

            X509v3 Extended Key Usage: 
                TLS Web Client Authentication, TLS Web Server Authentication
            X509v3 Key Usage: critical
                Digital Signature, Key Encipherment
            X509v3 Subject Key Identifier: 
                03:45:05:D2:FA:2D:B3:C1:AB:B1:CC:81:5D:8E:A2:95:CB:E2:2E:8A
    Signature Algorithm: sha256WithRSAEncryption
         70:7a:cb:89:4a:cd:94:1b:38:ed:21:f8:f2:08:d6:94:e3:fa:
         40:3f:70:1b:d7:26:f3:e5:83:e4:26:ef:86:2c:85:b8:35:a3:
         3c:83:cd:0f:1e:62:92:bd:0c:98:88:a1:4e:29:a4:fc:1c:20:
         72:c7:bb:89:ee:89:31:bc:1f:c2:b1:29:a0:04:b7:48:c4:aa:
         7e:d5:8f:45:ae:a4:b1:ab:66:14:15:fc:f5:53:db:0c:ef:8e:
         c2:0a:40:5a:98:f7:58:d8:76:f9:4e:08:49:37:1c:fc:25:9d:
         5b:89:f8:d0:6e:6b:5a:3a:8b:23:70:50:46:ce:cf:83:d0:ef:
         dc:0e:1b:e6:39:f5:d4:c8:aa:3b:70:38:17:0e:4a:75:8f:70:
         0a:e0:d4:35:69:2f:37:7a:e2:a8:1a:2e:be:17:39:1d:26:40:
         0e:4c:01:60:95:58:b0:71:aa:2a:86:f4:28:71:87:f8:cf:8f:
         15:bf:d4:d6:37:c3:03:c0:07:42:95:64:67:cc:d5:cb:39:ed:
         76:21:a7:2f:91:a1:4f:92:02:41:64:f3:ee:91:5b:37:c7:7f:
         5e:5d:7b:0b:02:e8:15:29:84:1b:a0:05:29:01:64:a1:0f:a0:
         89:b6:65:86:eb:40:38:83:f9:9f:86:d1:54:0b:55:b7:cf:fc:
         ad:43:37:7d:5d:d8:8a:6f:d9:ee:1d:74:e7:0b:95:0e:af:b1:
         02:27:b9:8e:1c:ca:5a:c0:dd:cb:d2:02:03:9c:00:9c:40:41:
         a7:8a:dd:7e:ef:15:f4:d6:15:01:f9:e5:6a:4a:b9:ed:90:43:
         79:6b:d8:16:e4:d6:d8:b4:64:8f:a0:9e:83:14:1f:5d:c3:3d:
         c9:5f:99:4e:a8:32:ae:83:c7:1d:f2:27:d1:19:e5:f9:34:32:
         5e:dd:aa:e7:ed:c8:d3:1e:a5:06:bf:88:09:43:cb:fe:90:2c:
         0d:3e:ab:7e:5c:d7:17:a4:49:86:87:66:88:d0:1a:20:b1:02:
         40:71:1f:f3:51:60:1e:cb:2b:83:97:22:1d:31:69:cb:f3:72:
         99:6a:4e:5e:92:62:f3:b7:6f:4e:27:25:60:1d:dc:a3:4b:5d:
         93:a5:28:66:36:a7:a3:23:f0:10:31:46:17:d6:c9:1e:c0:b8:
         5f:b0:11:5e:4f:a2:49:de:e6:ce:f9:45:a6:14:c3:83:d4:95:
         39:f4:53:a6:11:a0:d6:db:a7:bb:72:8b:f9:82:6a:35:e8:3a:
         e4:bf:d6:2c:03:f6:33:7f:95:97:8b:df:8d:5a:c0:9e:97:6a:
         62:d7:e4:12:ee:bf:f5:47:5a:94:d9:51:08:06:4c:64:3f:14:
         80:3c:93:3d:be:77:5d:f8
-----BEGIN CERTIFICATE-----
MIIE4zCCAsugAwIBAgIRAIzQZtvQOOVu1MQBskELBbcwDQYJKoZIhvcNAQELBQAw
MjELMAkGA1UEBhMCRVMxDzANBgNVBAoMBlRlbGVjbzESMBAGA1UEAwwJU2VydmVy
IENBMB4XDTIzMDMwNDIyMjgyOFoXDTIzMDYwMjIyMjgyOFowNDELMAkGA1UEBhMC
RVMxDzANBgNVBAoMBlRlbGVjbzEUMBIGA1UEAwwLc2VydmVydGxzMTMwgdwwDQYJ
KoZIhvcNAQEBBQADgcoAMIHGAoG+AJWEJrFYP1cKH0ikWs4B+K8ZgQgn8JgIJKZL
7S6aQzDftu1Koo2ToXTpCvzVyCPCO7fm/joYSlCY5/YxlY2kcqrieAAWVQjugu6S
1k4gspA8qh1trgHR1EPmajnHRZp0b7oacahdobTCIIcBeY0XPJwX/DHF4cEXlrmr
V0hHTrZPQDYZ0DD3Lb03GQiQ3sOb3ASj50na5MvHfA2G/q6cB/7jeRMLuXXIYpYz
zZslRQTwL7MTWoWK4ktD37SNxQIDAQABo4IBNzCCATMweAYIKwYBBQUHAQEEbDBq
MDUGCCsGAQUFBzAChilodHRwOi8vc2VydmVyLWNhLlRlbGVjby5jb20vc2VydmVy
LWNhLmNydDAxBggrBgEFBQcwAYYlaHR0cDovL29jc3Auc2VydmVyLWNhLlRlbGVj
by5jb206OTA4MTAfBgNVHSMEGDAWgBQWpzlB7QzQ+0xiFjsvvf7AimudlDAMBgNV
HRMBAf8EAjAAMDoGA1UdHwQzMDEwL6AtoCuGKWh0dHA6Ly9zZXJ2ZXItY2EuVGVs
ZWNvLmNvbS9zZXJ2ZXItY2EuY3JsMB0GA1UdJQQWMBQGCCsGAQUFBwMCBggrBgEF
BQcDATAOBgNVHQ8BAf8EBAMCBaAwHQYDVR0OBBYEFANFBdL6LbPBq7HMgV2OopXL
4i6KMA0GCSqGSIb3DQEBCwUAA4ICAQBwesuJSs2UGzjtIfjyCNaU4/pAP3Ab1ybz
5YPkJu+GLIW4NaM8g80PHmKSvQyYiKFOKaT8HCByx7uJ7okxvB/CsSmgBLdIxKp+
1Y9FrqSxq2YUFfz1U9sM747CCkBamPdY2Hb5TghJNxz8JZ1bifjQbmtaOosjcFBG
zs+D0O/cDhvmOfXUyKo7cDgXDkp1j3AK4NQ1aS83euKoGi6+FzkdJkAOTAFglViw
caoqhvQocYf4z48Vv9TWN8MDwAdClWRnzNXLOe12IacvkaFPkgJBZPPukVs3x39e
XXsLAugVKYQboAUpAWShD6CJtmWG60A4g/mfhtFUC1W3z/ytQzd9XdiKb9nuHXTn
C5UOr7ECJ7mOHMpawN3L0gIDnACcQEGnit1+7xX01hUB+eVqSrntkEN5a9gW5NbY
tGSPoJ6DFB9dwz3JX5lOqDKug8cd8ifRGeX5NDJe3arn7cjTHqUGv4gJQ8v+kCwN
Pqt+XNcXpEmGh2aI0BogsQJAcR/zUWAeyyuDlyIdMWnL83KZak5ekmLzt29OJyVg
HdyjS12TpShmNqejI/AQMUYX1skewLhfsBFeT6JJ3ubO+UWmFMOD1JU59FOmEaDW
26e7cov5gmo16Drkv9YsA/Yzf5WXi9+NWsCel2pi1+QS7r/1R1qU2VEIBkxkPxSA
PJM9vndd+A==
-----END CERTIFICATE-----
