Certificate:
    Data:
        Version: 3 (0x2)
        Serial Number:
            8c:d0:66:db:d0:38:e5:6e:d4:c4:01:b2:41:0b:05:c0
        Signature Algorithm: sha256WithRSAEncryption
        Issuer: C=ES, O=Teleco, CN=Server CA
        Validity
            Not Before: Apr  4 11:05:50 2023 GMT
            Not After : Apr  1 11:05:50 2033 GMT
        Subject: C=ES, O=Teleco, CN=servertls13
        Subject Public Key Info:
            Public Key Algorithm: rsaEncryption
                RSA Public-Key: (1512 bit)
                Modulus:
                    00:95:84:26:b1:58:3f:57:0a:1f:48:a4:5a:ce:01:
                    f8:af:19:81:08:27:f0:98:08:24:a6:4b:ed:2e:9a:
                    43:30:df:b6:ed:4a:a2:8d:93:a1:74:e9:0a:fc:d5:
                    c8:23:c2:3b:b7:e6:fe:3a:18:4a:50:98:e7:f6:31:
                    95:8d:a4:72:aa:e2:78:00:16:55:08:ee:82:ee:92:
                    d6:4e:20:b2:90:3c:aa:1d:6d:ae:01:d1:d4:43:e6:
                    6a:39:c7:45:9a:74:6f:ba:1a:71:a8:5d:a1:b4:c2:
                    20:87:01:79:8d:17:3c:9c:17:fc:31:c5:e1:c1:17:
                    96:b9:ab:57:48:47:4e:b6:4f:40:36:19:d0:30:f7:
                    2d:bd:37:19:08:90:de:c3:9b:dc:04:a3:e7:49:da:
                    e4:cb:c7:7c:0d:86:fe:ae:9c:07:fe:e3:79:13:0b:
                    b9:75:c8:62:96:33:cd:9b:25:45:04:f0:2f:b3:13:
                    5a:85:8a:e2:4b:43:df:b4:8d:c5
                Exponent: 65537 (0x10001)
        X509v3 extensions:
            Authority Information Access: 
                OCSP - URI:http://localhost:9080/

            X509v3 Authority Key Identifier: 
                keyid:4E:AB:92:63:17:41:73:71:19:E1:6A:9C:61:C8:30:2C:ED:FE:40:67

            X509v3 Basic Constraints: critical
                CA:FALSE
            X509v3 CRL Distribution Points: 

                Full Name:
                  URI:http://server-ca.Teleco.com/server-ca.crl

            X509v3 Extended Key Usage: 
                TLS Web Client Authentication, TLS Web Server Authentication
            X509v3 Key Usage: critical
                Digital Signature, Key Encipherment
            X509v3 Subject Key Identifier: 
                03:45:05:D2:FA:2D:B3:C1:AB:B1:CC:81:5D:8E:A2:95:CB:E2:2E:8A
    Signature Algorithm: sha256WithRSAEncryption
         b1:1e:ac:59:fd:8b:bd:fa:c0:ca:6d:eb:f7:48:50:d6:1d:53:
         b3:ab:b3:b5:b4:04:1b:4d:a9:6d:55:69:17:18:f1:06:11:35:
         d9:4a:a0:79:83:bf:45:c3:9c:de:e3:a9:2d:29:31:70:7c:5e:
         0e:41:64:fe:9d:77:2a:7d:52:38:ec:17:78:21:5e:b9:72:e8:
         bd:38:27:dc:3c:0e:38:5c:5a:10:0e:cf:c5:ce:3f:d1:e0:a0:
         dc:80:5f:5d:47:96:ea:d6:c4:12:6e:3c:37:05:09:ba:2e:7f:
         b1:13:38:83:14:4e:27:5b:3b:65:ad:6c:65:ff:a0:e7:d8:f2:
         84:07:a3:81:71:ea:b5:8a:bf:19:ff:05:fa:76:8c:e1:06:62:
         98:91:4a:d6:80:9b:7c:8b:06:7f:53:01:09:6f:4e:fb:a4:9d:
         1f:ad:2c:8f:45:de:2e:a8:52:46:6f:02:62:b7:35:73:36:97:
         c7:03:6a:24:1d:82:5a:3e:08:e8:65:3f:dc:f4:ed:bf:b5:38:
         eb:6e:10:34:6d:87:f9:80:f3:49:6e:97:ae:96:5f:f9:16:f2:
         27:cd:c4:ae:fa:13:2d:aa:e6:15:41:8f:1d:32:24:5f:bb:c4:
         97:f1:03:96:20:f9:6c:2e:d6:86:d6:61:50:99:a1:3e:82:86:
         b9:a7:5c:ed:e7:5f:25:6d:39:ba:8f:aa:c9:ac:fd:e9:60:01:
         6a:38:39:d1:0f:23:e5:e0:47:84:a6:8c:a8:33:2a:6a:c9:7f:
         3b:4e:37:50:48:d2:b9:94:84:c1:83:8a:85:f7:3d:58:8d:d3:
         2f:dd:39:cb:aa:27:87:e8:90:8b:01:16:1c:81:1d:61:97:0d:
         29:ee:17:85:c7:51:e5:fd:e8:6c:ce:3f:62:18:15:71:04:94:
         90:d3:a6:76:29:da:9d:70:b9:3f:0d:a8:58:ec:a8:b0:20:05:
         19:98:47:cf:94:fa:dd:26:dc:b0:f3:5a:a5:6c:11:1d:b7:00:
         73:ea:29:a0:f5:79:0a:c0:45:93:a3:86:fe:04:98:40:81:f2:
         23:8e:0e:ed:ef:5b:c9:df:a3:7e:a7:80:fc:53:2c:56:fd:95:
         15:4b:69:46:0c:da:90:be:4b:e9:ad:4e:2b:a5:1c:bc:4e:69:
         14:a0:46:d0:bd:02:2d:1c:e5:53:45:3b:e9:1f:d4:02:37:90:
         dc:86:bc:db:ff:04:0b:79:cb:a4:50:f8:f0:5d:a2:8f:4e:13:
         57:b4:85:e8:19:b5:dd:e2:2a:12:b5:cd:6a:3b:e0:ff:ee:2c:
         2e:63:bc:c5:aa:1a:3e:a6:d9:5c:3d:0d:2a:69:0c:ee:d7:c7:
         e4:37:4a:25:0e:97:32:77
-----BEGIN CERTIFICATE-----
MIIEmzCCAoOgAwIBAgIRAIzQZtvQOOVu1MQBskELBcAwDQYJKoZIhvcNAQELBQAw
MjELMAkGA1UEBhMCRVMxDzANBgNVBAoMBlRlbGVjbzESMBAGA1UEAwwJU2VydmVy
IENBMB4XDTIzMDQwNDExMDU1MFoXDTMzMDQwMTExMDU1MFowNDELMAkGA1UEBhMC
RVMxDzANBgNVBAoMBlRlbGVjbzEUMBIGA1UEAwwLc2VydmVydGxzMTMwgdwwDQYJ
KoZIhvcNAQEBBQADgcoAMIHGAoG+AJWEJrFYP1cKH0ikWs4B+K8ZgQgn8JgIJKZL
7S6aQzDftu1Koo2ToXTpCvzVyCPCO7fm/joYSlCY5/YxlY2kcqrieAAWVQjugu6S
1k4gspA8qh1trgHR1EPmajnHRZp0b7oacahdobTCIIcBeY0XPJwX/DHF4cEXlrmr
V0hHTrZPQDYZ0DD3Lb03GQiQ3sOb3ASj50na5MvHfA2G/q6cB/7jeRMLuXXIYpYz
zZslRQTwL7MTWoWK4ktD37SNxQIDAQABo4HwMIHtMDIGCCsGAQUFBwEBBCYwJDAi
BggrBgEFBQcwAYYWaHR0cDovL2xvY2FsaG9zdDo5MDgwLzAfBgNVHSMEGDAWgBRO
q5JjF0FzcRnhapxhyDAs7f5AZzAMBgNVHRMBAf8EAjAAMDoGA1UdHwQzMDEwL6At
oCuGKWh0dHA6Ly9zZXJ2ZXItY2EuVGVsZWNvLmNvbS9zZXJ2ZXItY2EuY3JsMB0G
A1UdJQQWMBQGCCsGAQUFBwMCBggrBgEFBQcDATAOBgNVHQ8BAf8EBAMCBaAwHQYD
VR0OBBYEFANFBdL6LbPBq7HMgV2OopXL4i6KMA0GCSqGSIb3DQEBCwUAA4ICAQCx
HqxZ/Yu9+sDKbev3SFDWHVOzq7O1tAQbTaltVWkXGPEGETXZSqB5g79Fw5ze46kt
KTFwfF4OQWT+nXcqfVI47Bd4IV65cui9OCfcPA44XFoQDs/Fzj/R4KDcgF9dR5bq
1sQSbjw3BQm6Ln+xEziDFE4nWztlrWxl/6Dn2PKEB6OBceq1ir8Z/wX6dozhBmKY
kUrWgJt8iwZ/UwEJb077pJ0frSyPRd4uqFJGbwJitzVzNpfHA2okHYJaPgjoZT/c
9O2/tTjrbhA0bYf5gPNJbpeull/5FvInzcSu+hMtquYVQY8dMiRfu8SX8QOWIPls
LtaG1mFQmaE+goa5p1zt518lbTm6j6rJrP3pYAFqODnRDyPl4EeEpoyoMypqyX87
TjdQSNK5lITBg4qF9z1YjdMv3TnLqieH6JCLARYcgR1hlw0p7heFx1Hl/ehszj9i
GBVxBJSQ06Z2KdqdcLk/DahY7KiwIAUZmEfPlPrdJtyw81qlbBEdtwBz6img9XkK
wEWTo4b+BJhAgfIjjg7t71vJ36N+p4D8UyxW/ZUVS2lGDNqQvkvprU4rpRy8TmkU
oEbQvQItHOVTRTvpH9QCN5Dchrzb/wQLecukUPjwXaKPThNXtIXoGbXd4ioStc1q
O+D/7iwuY7zFqho+ptlcPQ0qaQzu18fkN0olDpcydw==
-----END CERTIFICATE-----
