Certificate:
    Data:
        Version: 3 (0x2)
        Serial Number:
            8c:d0:66:db:d0:38:e5:6e:d4:c4:01:b2:41:0b:05:c8
        Signature Algorithm: sha256WithRSAEncryption
        Issuer: C=ES, O=Teleco, CN=Server CA
        Validity
            Not Before: Apr  4 15:23:18 2023 GMT
            Not After : Apr  3 15:23:18 2024 GMT
        Subject: C=ES, O=Teleco, CN=OCSP Responder
        Subject Public Key Info:
            Public Key Algorithm: rsaEncryption
                RSA Public-Key: (2048 bit)
                Modulus:
                    00:c1:86:24:f0:5a:77:97:9c:e5:23:e2:19:72:26:
                    81:8f:3a:9f:e1:2c:ae:77:ec:6c:fb:5b:6f:72:27:
                    d5:e7:4e:fa:a2:95:34:b4:c3:52:11:4d:74:73:61:
                    e3:03:23:64:0f:aa:a1:61:29:c1:5e:fe:5c:ab:b0:
                    77:3c:21:d7:1c:b9:4c:cf:14:e0:2d:60:e3:0a:f6:
                    33:47:ab:9d:fa:07:ef:a6:bd:92:4f:c8:50:cb:fa:
                    76:11:be:9e:d1:2a:c0:1d:19:0f:e9:c7:5f:c0:85:
                    ec:f0:cb:be:45:29:39:4c:b7:ea:a1:84:80:c1:b6:
                    95:f8:2e:b9:91:6d:45:47:3e:94:03:35:b6:89:bf:
                    7b:98:60:16:af:68:a7:87:34:19:f2:2c:91:29:47:
                    6f:3a:a3:41:d8:5e:df:40:22:cc:19:c6:0a:3b:61:
                    50:35:cc:b3:48:38:0f:b5:63:e5:47:90:23:e9:93:
                    ae:ea:dc:66:bd:75:68:05:35:34:69:0b:af:5a:bf:
                    46:61:0d:f6:4c:83:a2:35:cf:48:11:fe:3f:b7:5e:
                    4d:33:59:7b:6e:27:16:55:54:dd:bd:25:ec:4e:53:
                    a4:c7:bc:1a:7c:9f:d6:c4:49:72:80:e9:cc:1f:a4:
                    0a:2c:a5:7c:66:44:f2:16:93:91:82:80:ca:17:93:
                    6f:d5
                Exponent: 65537 (0x10001)
        X509v3 extensions:
            X509v3 Authority Key Identifier: 
                keyid:D0:0F:03:63:55:5A:96:94:DA:FA:8E:B1:39:C3:F2:A5:E2:1B:37:EB

            X509v3 Basic Constraints: critical
                CA:FALSE
            X509v3 Extended Key Usage: 
                OCSP Signing
            X509v3 Key Usage: critical
                Digital Signature
            X509v3 Subject Key Identifier: 
                0F:BC:52:BA:34:DC:9A:47:23:21:80:69:A7:7E:5F:B3:E5:53:9C:06
    Signature Algorithm: sha256WithRSAEncryption
         64:cc:a6:5b:7f:ac:c5:e9:c1:7c:80:ea:5a:d8:e1:4e:11:75:
         c5:a2:85:09:53:7d:b2:46:ae:00:00:64:fa:35:9c:32:81:85:
         d2:a2:82:8a:28:2d:1f:da:a1:4a:b3:67:36:b7:cd:1f:cb:76:
         9c:a9:9c:4b:11:1e:ed:66:8e:b5:d8:4b:89:17:a3:33:dc:81:
         81:c3:f2:5b:c8:a5:e2:d5:ba:c8:65:80:e3:69:61:21:3a:c5:
         f1:f4:05:e9:f2:07:84:a4:9c:ce:6c:9f:8d:a1:1a:82:20:26:
         4a:4a:d0:6e:27:3f:20:20:55:1a:01:42:83:60:61:48:f8:50:
         f0:9c:0b:c3:db:be:92:62:b0:5c:08:e6:38:12:3b:1c:91:5a:
         61:95:41:ca:d9:ad:4d:17:48:95:e2:a8:3f:38:77:83:e1:ea:
         2b:51:b8:fc:e2:bb:3f:d7:70:85:54:6a:53:2d:17:b0:e2:ed:
         81:21:c0:b6:c7:c7:59:73:2a:49:c9:6f:35:ba:cf:5f:b4:6d:
         26:3b:50:7e:48:30:7e:88:d3:03:c1:ce:0b:a5:79:dd:5c:24:
         b6:01:f9:20:40:d3:15:1a:c2:34:f7:a1:dc:d3:fb:75:e7:59:
         61:de:e8:53:74:ef:12:82:41:c0:ce:a4:e0:0e:9f:d4:81:d9:
         83:9c:6d:c8:25:b8:22:13:f5:c4:84:3b:f1:fe:d3:b2:10:23:
         69:ff:80:01:fe:43:27:30:04:a8:b4:79:a7:49:ef:5e:53:ba:
         84:cf:ec:23:2a:6a:a9:a9:db:a2:c9:01:a9:11:7b:c5:6f:13:
         80:b9:e3:2e:2f:91:3c:6b:40:74:61:7c:5c:4f:d9:de:88:7c:
         5c:c9:0d:85:09:f6:a3:6d:2c:32:16:33:66:85:c8:3b:b3:75:
         1c:41:08:fb:5c:a1:d2:3e:c9:6b:5c:0a:69:5d:f2:12:29:d5:
         86:77:9d:79:ef:c9:08:e7:be:db:e5:b7:75:fb:84:66:14:27:
         60:4a:1b:e7:e3:ee:d4:21:8c:7b:b2:42:90:ec:19:d4:13:59:
         56:ce:3e:a4:4f:7d:ad:93:66:1c:21:b6:97:08:6a:62:6d:12:
         1a:80:5d:f0:10:8a:31:c7:ed:00:3b:cc:66:5f:46:23:1d:26:
         cb:6c:6c:f2:49:c5:88:bd:e0:98:65:76:ed:93:44:08:af:f2:
         86:56:e0:58:84:a9:dd:0c:83:3d:c1:94:06:e4:af:02:5a:b5:
         3f:d5:a8:71:ba:9a:b8:4c:40:01:60:46:17:d7:99:b6:01:86:
         a9:9e:25:9f:d6:62:21:2a:d1:3d:bd:4d:24:bf:09:e6:b9:f8:
         43:a7:27:34:d7:fe:34:20
-----BEGIN CERTIFICATE-----
MIIEaTCCAlGgAwIBAgIRAIzQZtvQOOVu1MQBskELBcgwDQYJKoZIhvcNAQELBQAw
MjELMAkGA1UEBhMCRVMxDzANBgNVBAoMBlRlbGVjbzESMBAGA1UEAwwJU2VydmVy
IENBMB4XDTIzMDQwNDE1MjMxOFoXDTI0MDQwMzE1MjMxOFowNzELMAkGA1UEBhMC
RVMxDzANBgNVBAoMBlRlbGVjbzEXMBUGA1UEAwwOT0NTUCBSZXNwb25kZXIwggEi
MA0GCSqGSIb3DQEBAQUAA4IBDwAwggEKAoIBAQDBhiTwWneXnOUj4hlyJoGPOp/h
LK537Gz7W29yJ9XnTvqilTS0w1IRTXRzYeMDI2QPqqFhKcFe/lyrsHc8IdccuUzP
FOAtYOMK9jNHq536B++mvZJPyFDL+nYRvp7RKsAdGQ/px1/Ahezwy75FKTlMt+qh
hIDBtpX4LrmRbUVHPpQDNbaJv3uYYBavaKeHNBnyLJEpR286o0HYXt9AIswZxgo7
YVA1zLNIOA+1Y+VHkCPpk67q3Ga9dWgFNTRpC69av0ZhDfZMg6I1z0gR/j+3Xk0z
WXtuJxZVVN29JexOU6THvBp8n9bESXKA6cwfpAospXxmRPIWk5GCgMoXk2/VAgMB
AAGjdTBzMB8GA1UdIwQYMBaAFNAPA2NVWpaU2vqOsTnD8qXiGzfrMAwGA1UdEwEB
/wQCMAAwEwYDVR0lBAwwCgYIKwYBBQUHAwkwDgYDVR0PAQH/BAQDAgeAMB0GA1Ud
DgQWBBQPvFK6NNyaRyMhgGmnfl+z5VOcBjANBgkqhkiG9w0BAQsFAAOCAgEAZMym
W3+sxenBfIDqWtjhThF1xaKFCVN9skauAABk+jWcMoGF0qKCiigtH9qhSrNnNrfN
H8t2nKmcSxEe7WaOtdhLiRejM9yBgcPyW8il4tW6yGWA42lhITrF8fQF6fIHhKSc
zmyfjaEagiAmSkrQbic/ICBVGgFCg2BhSPhQ8JwLw9u+kmKwXAjmOBI7HJFaYZVB
ytmtTRdIleKoPzh3g+HqK1G4/OK7P9dwhVRqUy0XsOLtgSHAtsfHWXMqSclvNbrP
X7RtJjtQfkgwfojTA8HOC6V53VwktgH5IEDTFRrCNPeh3NP7dedZYd7oU3TvEoJB
wM6k4A6f1IHZg5xtyCW4IhP1xIQ78f7TshAjaf+AAf5DJzAEqLR5p0nvXlO6hM/s
IypqqanboskBqRF7xW8TgLnjLi+RPGtAdGF8XE/Z3oh8XMkNhQn2o20sMhYzZoXI
O7N1HEEI+1yh0j7Ja1wKaV3yEinVhnedee/JCOe+2+W3dfuEZhQnYEob5+Pu1CGM
e7JCkOwZ1BNZVs4+pE99rZNmHCG2lwhqYm0SGoBd8BCKMcftADvMZl9GIx0my2xs
8knFiL3gmGV27ZNECK/yhlbgWISp3QyDPcGUBuSvAlq1P9WocbqauExAAWBGF9eZ
tgGGqZ4ln9ZiISrRPb1NJL8J5rn4Q6cnNNf+NCA=
-----END CERTIFICATE-----
