Certificate:
    Data:
        Version: 3 (0x2)
        Serial Number:
            8c:d0:66:db:d0:38:e5:6e:d4:c4:01:b2:41:0b:05:b9
        Signature Algorithm: sha256WithRSAEncryption
        Issuer: C=ES, O=Teleco, CN=Server CA
        Validity
            Not Before: Mar 26 15:10:04 2023 GMT
            Not After : Mar 25 15:10:04 2024 GMT
        Subject: C=ES, O=Teleco, CN=servertls13
        Subject Public Key Info:
            Public Key Algorithm: rsaEncryption
                RSA Public-Key: (2048 bit)
                Modulus:
                    00:8b:1f:7b:ff:ad:26:22:af:fb:b9:0a:5f:d2:bd:
                    bb:db:70:71:e9:ad:60:1c:d6:95:f4:60:5b:1d:d9:
                    b4:75:3f:1d:cf:a6:d4:4d:3c:b2:58:d7:df:03:1f:
                    60:6c:b4:c2:d8:3f:84:6d:a9:f7:56:bd:8f:8a:52:
                    3a:51:f7:a5:c2:42:80:80:7e:fa:39:fb:43:a6:a1:
                    c6:c8:b4:2e:ed:cd:b7:17:f3:f4:c0:ca:e9:7f:e3:
                    25:e9:16:cf:c4:2b:69:6c:b8:90:ea:cd:f9:cd:f7:
                    94:ad:15:13:93:f0:36:76:d9:b0:43:aa:66:f6:bf:
                    92:86:8a:cd:76:93:9a:e5:5c:fa:f4:b0:5f:13:d0:
                    03:4f:6b:c0:13:d0:08:a6:fd:7e:cc:4f:4b:0d:9f:
                    93:a7:5a:cb:19:96:57:c6:b6:08:ce:91:82:b1:6b:
                    d7:ec:84:8c:59:91:a3:8c:83:9b:c9:7c:b3:e6:15:
                    2d:e0:90:90:22:70:0c:99:da:c9:c9:90:4a:3a:eb:
                    86:3d:7f:c0:b9:8c:89:ef:f9:a0:e9:02:a9:fc:66:
                    0b:23:53:9c:90:46:45:ec:5a:4d:c9:9f:10:01:31:
                    33:79:18:51:d1:0d:bb:55:42:e6:4f:64:f1:4a:0e:
                    96:4c:1b:1c:5e:58:fe:fb:75:d2:30:02:29:60:80:
                    8b:3b
                Exponent: 65537 (0x10001)
        X509v3 extensions:
            Authority Information Access: 
                OCSP - URI:http://localhost:9080/

            X509v3 Authority Key Identifier: 
                keyid:DC:EE:AB:69:5B:4B:89:BA:E4:FD:27:CF:7F:29:C8:4E:CD:BE:83:EB

            X509v3 Basic Constraints: critical
                CA:FALSE
            X509v3 CRL Distribution Points: 

                Full Name:
                  URI:http://server-ca.Teleco.com/server-ca.crl

            X509v3 Extended Key Usage: 
                TLS Web Client Authentication, TLS Web Server Authentication
            X509v3 Key Usage: critical
                Digital Signature, Key Encipherment
            X509v3 Subject Key Identifier: 
                B8:14:D7:E0:B3:AE:3D:5D:90:92:10:57:1A:5C:0A:7F:7E:1B:85:D7
            X509v3 Subject Alternative Name: 
                DNS:servertls13
    Signature Algorithm: sha256WithRSAEncryption
         25:ba:f9:41:dc:b6:22:46:f0:cf:54:b2:61:b3:1d:cd:08:ce:
         0b:32:25:05:62:b5:56:7d:d7:cd:0b:fa:92:d1:2f:2c:cc:67:
         cc:99:c8:83:74:17:7d:d1:3f:8d:88:ce:21:9a:06:6b:22:f3:
         47:d4:3d:2f:79:44:50:74:69:23:43:6c:e7:dd:2f:ff:d3:97:
         3f:c4:4e:97:1e:86:20:bd:b8:77:7e:ea:46:78:d2:f8:bc:75:
         9b:f4:12:79:66:54:04:ec:ed:ca:83:32:e6:20:42:8c:b0:3f:
         74:01:09:7e:9d:c8:2e:eb:49:38:e4:27:40:28:87:a0:14:25:
         31:bc:24:8a:71:bb:f5:53:cb:10:d2:61:5f:61:c2:44:84:7b:
         c6:6d:34:f6:da:56:d6:83:f9:9c:09:61:23:17:b9:17:79:5a:
         0e:4f:57:e5:cd:ab:9c:8e:13:1f:9f:4e:d5:84:85:51:fc:eb:
         f5:fb:1a:d9:b4:b7:a3:c9:cf:53:a1:0c:f1:6b:e1:e8:74:84:
         93:a8:c4:22:a8:30:2d:85:9b:38:1a:aa:ff:d8:a0:9b:9f:9a:
         93:7f:e2:77:b4:10:a5:d1:f2:81:8b:00:ad:80:9c:75:14:2a:
         86:f5:09:ce:38:6c:11:24:4a:bb:c2:44:1d:60:b9:5c:11:4c:
         6b:73:48:b1:42:8d:d1:92:e6:8b:a6:da:37:90:9b:ee:cf:b5:
         78:37:5c:37:61:bb:8f:b9:b0:70:0a:56:4a:60:48:9d:4e:4a:
         73:80:d7:22:2f:89:1e:bf:dc:5b:92:00:57:e6:5d:ab:46:2b:
         43:15:bb:fd:a0:73:8b:93:44:e0:b7:5d:fd:8c:68:30:7f:43:
         7c:4f:2a:9a:18:03:f0:36:79:cd:78:a5:7c:95:c6:e0:e7:81:
         d4:b7:75:a3:0c:aa:ba:b2:44:e3:ef:e3:7c:06:19:5e:87:29:
         43:68:48:a5:22:49:75:7f:f5:a4:14:36:a7:fc:a0:c0:28:0e:
         a1:81:9f:32:d8:83:a9:4e:ff:3e:57:4f:3e:c3:85:eb:e2:06:
         54:9f:71:c3:d0:e7:72:0b:9f:c4:19:26:56:27:63:9f:13:49:
         10:8e:fa:4f:72:ae:20:cd:5d:e4:cd:99:6e:8d:9d:60:d9:14:
         ff:54:98:93:7d:72:b6:df:51:34:d3:e9:8f:ae:b0:e9:2c:cd:
         fc:6c:bc:d4:2f:56:fe:d2:af:6e:71:9c:27:f6:71:d2:2e:c6:
         1d:1d:9c:f7:62:d8:36:66:6b:a4:4d:be:2f:be:c2:67:4c:46:
         26:4f:7a:1c:22:5d:51:9c:b6:c4:c5:a0:69:a1:0f:0d:fa:8b:
         4d:3e:9b:65:8e:c0:fd:06
-----BEGIN CERTIFICATE-----
MIIE/DCCAuSgAwIBAgIRAIzQZtvQOOVu1MQBskELBbkwDQYJKoZIhvcNAQELBQAw
MjELMAkGA1UEBhMCRVMxDzANBgNVBAoMBlRlbGVjbzESMBAGA1UEAwwJU2VydmVy
IENBMB4XDTIzMDMyNjE1MTAwNFoXDTI0MDMyNTE1MTAwNFowNDELMAkGA1UEBhMC
RVMxDzANBgNVBAoMBlRlbGVjbzEUMBIGA1UEAwwLc2VydmVydGxzMTMwggEiMA0G
CSqGSIb3DQEBAQUAA4IBDwAwggEKAoIBAQCLH3v/rSYir/u5Cl/SvbvbcHHprWAc
1pX0YFsd2bR1Px3PptRNPLJY198DH2BstMLYP4RtqfdWvY+KUjpR96XCQoCAfvo5
+0OmocbItC7tzbcX8/TAyul/4yXpFs/EK2lsuJDqzfnN95StFROT8DZ22bBDqmb2
v5KGis12k5rlXPr0sF8T0ANPa8AT0Aim/X7MT0sNn5OnWssZllfGtgjOkYKxa9fs
hIxZkaOMg5vJfLPmFS3gkJAicAyZ2snJkEo664Y9f8C5jInv+aDpAqn8ZgsjU5yQ
RkXsWk3JnxABMTN5GFHRDbtVQuZPZPFKDpZMGxxeWP77ddIwAilggIs7AgMBAAGj
ggEJMIIBBTAyBggrBgEFBQcBAQQmMCQwIgYIKwYBBQUHMAGGFmh0dHA6Ly9sb2Nh
bGhvc3Q6OTA4MC8wHwYDVR0jBBgwFoAU3O6raVtLibrk/SfPfynITs2+g+swDAYD
VR0TAQH/BAIwADA6BgNVHR8EMzAxMC+gLaArhilodHRwOi8vc2VydmVyLWNhLlRl
bGVjby5jb20vc2VydmVyLWNhLmNybDAdBgNVHSUEFjAUBggrBgEFBQcDAgYIKwYB
BQUHAwEwDgYDVR0PAQH/BAQDAgWgMB0GA1UdDgQWBBS4FNfgs649XZCSEFcaXAp/
fhuF1zAWBgNVHREEDzANggtzZXJ2ZXJ0bHMxMzANBgkqhkiG9w0BAQsFAAOCAgEA
Jbr5Qdy2Ikbwz1SyYbMdzQjOCzIlBWK1Vn3XzQv6ktEvLMxnzJnIg3QXfdE/jYjO
IZoGayLzR9Q9L3lEUHRpI0Ns590v/9OXP8ROlx6GIL24d37qRnjS+Lx1m/QSeWZU
BOztyoMy5iBCjLA/dAEJfp3ILutJOOQnQCiHoBQlMbwkinG79VPLENJhX2HCRIR7
xm009tpW1oP5nAlhIxe5F3laDk9X5c2rnI4TH59O1YSFUfzr9fsa2bS3o8nPU6EM
8Wvh6HSEk6jEIqgwLYWbOBqq/9igm5+ak3/id7QQpdHygYsArYCcdRQqhvUJzjhs
ESRKu8JEHWC5XBFMa3NIsUKN0ZLmi6baN5Cb7s+1eDdcN2G7j7mwcApWSmBInU5K
c4DXIi+JHr/cW5IAV+Zdq0YrQxW7/aBzi5NE4Ldd/YxoMH9DfE8qmhgD8DZ5zXil
fJXG4OeB1Ld1owyqurJE4+/jfAYZXocpQ2hIpSJJdX/1pBQ2p/ygwCgOoYGfMtiD
qU7/PldPPsOF6+IGVJ9xw9DncgufxBkmVidjnxNJEI76T3KuIM1d5M2Zbo2dYNkU
/1SYk31ytt9RNNPpj66w6SzN/Gy81C9W/tKvbnGcJ/Zx0i7GHR2c92LYNmZrpE2+
L77CZ0xGJk96HCJdUZy2xMWgaaEPDfqLTT6bZY7A/QY=
-----END CERTIFICATE-----
