Certificate:
    Data:
        Version: 3 (0x2)
        Serial Number:
            8c:d0:66:db:d0:38:e5:6e:d4:c4:01:b2:41:0b:05:ce
        Signature Algorithm: sha256WithRSAEncryption
        Issuer: C=ES, O=Teleco, CN=Server CA
        Validity
            Not Before: Apr  5 22:10:07 2023 GMT
            Not After : Apr  2 22:10:07 2033 GMT
        Subject: C=ES, O=Teleco, CN=servertls13
        Subject Public Key Info:
            Public Key Algorithm: rsaEncryption
                RSA Public-Key: (1512 bit)
                Modulus:
                    00:95:84:26:b1:58:3f:57:0a:1f:48:a4:5a:ce:01:
                    f8:af:19:81:08:27:f0:98:08:24:a6:4b:ed:2e:9a:
                    43:30:df:b6:ed:4a:a2:8d:93:a1:74:e9:0a:fc:d5:
                    c8:23:c2:3b:b7:e6:fe:3a:18:4a:50:98:e7:f6:31:
                    95:8d:a4:72:aa:e2:78:00:16:55:08:ee:82:ee:92:
                    d6:4e:20:b2:90:3c:aa:1d:6d:ae:01:d1:d4:43:e6:
                    6a:39:c7:45:9a:74:6f:ba:1a:71:a8:5d:a1:b4:c2:
                    20:87:01:79:8d:17:3c:9c:17:fc:31:c5:e1:c1:17:
                    96:b9:ab:57:48:47:4e:b6:4f:40:36:19:d0:30:f7:
                    2d:bd:37:19:08:90:de:c3:9b:dc:04:a3:e7:49:da:
                    e4:cb:c7:7c:0d:86:fe:ae:9c:07:fe:e3:79:13:0b:
                    b9:75:c8:62:96:33:cd:9b:25:45:04:f0:2f:b3:13:
                    5a:85:8a:e2:4b:43:df:b4:8d:c5
                Exponent: 65537 (0x10001)
        X509v3 extensions:
            Authority Information Access: 
                CA Issuers - URI:http://server-ca.Teleco.com/server-ca.crt
                OCSP - URI:http://ocsp.server-ca.Teleco.com:9080

            X509v3 Authority Key Identifier: 
                keyid:46:D1:59:71:A8:1F:2F:91:13:0E:17:8E:BB:8E:AA:3F:2B:9D:9D:EC

            X509v3 Basic Constraints: critical
                CA:FALSE
            X509v3 CRL Distribution Points: 

                Full Name:
                  URI:http://server-ca.Teleco.com/server-ca.crl

            X509v3 Extended Key Usage: 
                TLS Web Client Authentication, TLS Web Server Authentication
            X509v3 Key Usage: critical
                Digital Signature, Key Encipherment
            X509v3 Subject Key Identifier: 
                03:45:05:D2:FA:2D:B3:C1:AB:B1:CC:81:5D:8E:A2:95:CB:E2:2E:8A
    Signature Algorithm: sha256WithRSAEncryption
         7f:d7:a4:10:65:04:45:4f:7e:a9:5a:57:d8:03:82:f9:d1:f3:
         63:aa:b6:11:ed:02:41:ee:ab:5d:e4:cf:6e:bd:75:5d:12:12:
         ea:9d:dc:03:74:f6:86:19:61:48:af:89:0c:93:d7:29:65:01:
         3d:a2:da:25:7c:d2:3d:c2:56:0d:ea:14:c6:08:33:f1:ae:52:
         a9:fc:92:6b:4c:dc:15:1b:71:29:a4:af:9b:e9:d2:de:82:f1:
         b9:7c:a4:a8:46:7d:15:77:40:4e:04:1c:e6:9d:e7:6d:7e:62:
         e0:e4:6c:63:36:bc:7f:8b:92:34:90:a8:d1:71:f0:e2:eb:6b:
         e5:29:aa:0f:98:bc:1c:6e:25:78:98:8a:65:e6:a6:39:15:5c:
         f0:c4:46:9b:10:60:a9:09:3e:15:50:53:3d:a6:64:f4:2b:9a:
         73:d7:d9:8a:bb:44:f1:83:fa:49:d4:5b:eb:f9:b0:cc:ed:f5:
         87:05:2b:f4:55:ca:67:a2:b1:f8:6a:c3:7b:56:63:96:0d:56:
         b7:7b:46:4e:50:ca:80:2a:2b:1c:e7:e2:9c:72:1e:54:3b:bf:
         2f:44:54:91:56:2e:63:c8:59:b9:85:ef:68:d7:ce:9f:ae:5f:
         36:62:d4:bf:2a:91:c1:38:ff:be:7b:08:d4:0a:77:7e:52:5a:
         e2:e1:6a:5c:56:f2:d3:fe:7f:60:36:77:ee:d0:fd:31:db:b6:
         36:cb:fc:76:d4:e4:c4:5d:83:04:fa:33:fe:b4:03:be:40:ea:
         4a:8d:1a:db:19:3c:16:32:b6:d4:50:af:3b:bf:60:a6:f6:06:
         2f:7b:02:ad:36:5b:ba:85:5a:a9:3e:c8:56:6e:22:f1:c8:cf:
         f4:57:43:53:b2:70:15:8c:42:15:f7:31:64:a6:b2:ad:cf:7e:
         62:f1:f4:1b:81:ed:0b:9d:ab:ad:70:3e:9a:4e:7d:45:73:b6:
         91:06:29:10:e4:9c:13:12:85:33:e0:d4:81:fd:37:c5:30:06:
         b0:32:3e:31:bd:b4:17:78:a1:8e:cc:ce:63:7a:d3:58:0c:ba:
         6e:ef:a8:16:2f:18:6c:f3:9b:c2:52:76:a9:2e:26:a2:cd:13:
         aa:03:e5:4d:7d:cc:30:ab:31:58:1d:08:6b:04:ea:57:87:fa:
         ad:25:93:c7:8b:a9:22:67:9e:c8:6d:56:55:4f:97:9d:76:88:
         d6:db:b4:7f:8b:14:d8:1f:d7:f2:66:fb:b0:d2:e4:48:86:1f:
         a1:d0:7b:56:7c:94:ff:76:c6:ae:33:4f:92:88:45:ab:7a:9a:
         1a:1e:93:98:c9:c7:2a:1d:c3:de:ff:b4:98:74:1b:cf:6c:5f:
         9f:20:84:0b:10:d1:7a:5e
-----BEGIN CERTIFICATE-----
MIIE4zCCAsugAwIBAgIRAIzQZtvQOOVu1MQBskELBc4wDQYJKoZIhvcNAQELBQAw
MjELMAkGA1UEBhMCRVMxDzANBgNVBAoMBlRlbGVjbzESMBAGA1UEAwwJU2VydmVy
IENBMB4XDTIzMDQwNTIyMTAwN1oXDTMzMDQwMjIyMTAwN1owNDELMAkGA1UEBhMC
RVMxDzANBgNVBAoMBlRlbGVjbzEUMBIGA1UEAwwLc2VydmVydGxzMTMwgdwwDQYJ
KoZIhvcNAQEBBQADgcoAMIHGAoG+AJWEJrFYP1cKH0ikWs4B+K8ZgQgn8JgIJKZL
7S6aQzDftu1Koo2ToXTpCvzVyCPCO7fm/joYSlCY5/YxlY2kcqrieAAWVQjugu6S
1k4gspA8qh1trgHR1EPmajnHRZp0b7oacahdobTCIIcBeY0XPJwX/DHF4cEXlrmr
V0hHTrZPQDYZ0DD3Lb03GQiQ3sOb3ASj50na5MvHfA2G/q6cB/7jeRMLuXXIYpYz
zZslRQTwL7MTWoWK4ktD37SNxQIDAQABo4IBNzCCATMweAYIKwYBBQUHAQEEbDBq
MDUGCCsGAQUFBzAChilodHRwOi8vc2VydmVyLWNhLlRlbGVjby5jb20vc2VydmVy
LWNhLmNydDAxBggrBgEFBQcwAYYlaHR0cDovL29jc3Auc2VydmVyLWNhLlRlbGVj
by5jb206OTA4MDAfBgNVHSMEGDAWgBRG0VlxqB8vkRMOF467jqo/K52d7DAMBgNV
HRMBAf8EAjAAMDoGA1UdHwQzMDEwL6AtoCuGKWh0dHA6Ly9zZXJ2ZXItY2EuVGVs
ZWNvLmNvbS9zZXJ2ZXItY2EuY3JsMB0GA1UdJQQWMBQGCCsGAQUFBwMCBggrBgEF
BQcDATAOBgNVHQ8BAf8EBAMCBaAwHQYDVR0OBBYEFANFBdL6LbPBq7HMgV2OopXL
4i6KMA0GCSqGSIb3DQEBCwUAA4ICAQB/16QQZQRFT36pWlfYA4L50fNjqrYR7QJB
7qtd5M9uvXVdEhLqndwDdPaGGWFIr4kMk9cpZQE9otolfNI9wlYN6hTGCDPxrlKp
/JJrTNwVG3EppK+b6dLegvG5fKSoRn0Vd0BOBBzmnedtfmLg5GxjNrx/i5I0kKjR
cfDi62vlKaoPmLwcbiV4mIpl5qY5FVzwxEabEGCpCT4VUFM9pmT0K5pz19mKu0Tx
g/pJ1Fvr+bDM7fWHBSv0VcpnorH4asN7VmOWDVa3e0ZOUMqAKisc5+Kcch5UO78v
RFSRVi5jyFm5he9o186frl82YtS/KpHBOP++ewjUCnd+Ulri4WpcVvLT/n9gNnfu
0P0x27Y2y/x21OTEXYME+jP+tAO+QOpKjRrbGTwWMrbUUK87v2Cm9gYvewKtNlu6
hVqpPshWbiLxyM/0V0NTsnAVjEIV9zFkprKtz35i8fQbge0LnautcD6aTn1Fc7aR
BikQ5JwTEoUz4NSB/TfFMAawMj4xvbQXeKGOzM5jetNYDLpu76gWLxhs85vCUnap
LiaizROqA+VNfcwwqzFYHQhrBOpXh/qtJZPHi6kiZ57IbVZVT5eddojW27R/ixTY
H9fyZvuw0uRIhh+h0HtWfJT/dsauM0+SiEWrepoaHpOYyccqHcPe/7SYdBvPbF+f
IIQLENF6Xg==
-----END CERTIFICATE-----
