Certificate:
    Data:
        Version: 3 (0x2)
        Serial Number:
            8c:d0:66:db:d0:38:e5:6e:d4:c4:01:b2:41:0b:05:c2
        Signature Algorithm: sha256WithRSAEncryption
        Issuer: C=ES, O=Teleco, CN=Server CA
        Validity
            Not Before: Apr  4 14:49:50 2023 GMT
            Not After : Apr  1 14:49:50 2033 GMT
        Subject: C=ES, O=Teleco, CN=servertls13
        Subject Public Key Info:
            Public Key Algorithm: rsaEncryption
                RSA Public-Key: (2048 bit)
                Modulus:
                    00:8b:1f:7b:ff:ad:26:22:af:fb:b9:0a:5f:d2:bd:
                    bb:db:70:71:e9:ad:60:1c:d6:95:f4:60:5b:1d:d9:
                    b4:75:3f:1d:cf:a6:d4:4d:3c:b2:58:d7:df:03:1f:
                    60:6c:b4:c2:d8:3f:84:6d:a9:f7:56:bd:8f:8a:52:
                    3a:51:f7:a5:c2:42:80:80:7e:fa:39:fb:43:a6:a1:
                    c6:c8:b4:2e:ed:cd:b7:17:f3:f4:c0:ca:e9:7f:e3:
                    25:e9:16:cf:c4:2b:69:6c:b8:90:ea:cd:f9:cd:f7:
                    94:ad:15:13:93:f0:36:76:d9:b0:43:aa:66:f6:bf:
                    92:86:8a:cd:76:93:9a:e5:5c:fa:f4:b0:5f:13:d0:
                    03:4f:6b:c0:13:d0:08:a6:fd:7e:cc:4f:4b:0d:9f:
                    93:a7:5a:cb:19:96:57:c6:b6:08:ce:91:82:b1:6b:
                    d7:ec:84:8c:59:91:a3:8c:83:9b:c9:7c:b3:e6:15:
                    2d:e0:90:90:22:70:0c:99:da:c9:c9:90:4a:3a:eb:
                    86:3d:7f:c0:b9:8c:89:ef:f9:a0:e9:02:a9:fc:66:
                    0b:23:53:9c:90:46:45:ec:5a:4d:c9:9f:10:01:31:
                    33:79:18:51:d1:0d:bb:55:42:e6:4f:64:f1:4a:0e:
                    96:4c:1b:1c:5e:58:fe:fb:75:d2:30:02:29:60:80:
                    8b:3b
                Exponent: 65537 (0x10001)
        X509v3 extensions:
            Authority Information Access: 
                OCSP - URI:http://localhost:9080/

            X509v3 Authority Key Identifier: 
                keyid:21:9A:D7:40:94:17:FD:73:63:58:AE:F8:6A:CB:55:50:A7:38:D4:59

            X509v3 Basic Constraints: critical
                CA:FALSE
            X509v3 CRL Distribution Points: 

                Full Name:
                  URI:http://server-ca.Teleco.com/server-ca.crl

            X509v3 Extended Key Usage: 
                TLS Web Client Authentication, TLS Web Server Authentication, OCSP Signing
            X509v3 Key Usage: critical
                Digital Signature, Key Encipherment
            X509v3 Subject Key Identifier: 
                B8:14:D7:E0:B3:AE:3D:5D:90:92:10:57:1A:5C:0A:7F:7E:1B:85:D7
    Signature Algorithm: sha256WithRSAEncryption
         8b:1d:b1:8c:ad:db:90:f9:f8:7c:4a:7e:00:e6:1e:09:c6:d2:
         b2:29:8e:70:c7:cd:e4:83:62:46:a8:08:d6:33:48:57:a1:cd:
         66:6d:06:e3:0e:18:20:5d:22:69:dd:45:fe:39:8a:d0:0c:1a:
         9b:a2:a5:e4:cf:2d:5c:7a:1b:b9:84:73:a3:83:f5:17:e1:fc:
         df:87:26:52:80:06:2d:de:24:a7:77:84:5d:82:0d:f9:bb:cc:
         5f:61:2c:da:54:13:8c:e2:d0:93:80:f5:de:9b:16:ae:68:64:
         f5:8e:12:bf:dc:c1:bd:fd:f9:54:f3:a2:f4:cd:e6:d9:fc:c5:
         4a:46:1f:26:56:68:40:97:32:81:88:ec:8c:fa:a4:05:c7:f7:
         25:83:5a:5e:cf:49:de:f5:93:93:a9:bc:55:37:dd:30:39:7c:
         9c:86:bc:a1:83:8e:1d:f1:45:bf:7a:38:e0:7d:41:ad:57:48:
         e1:20:23:03:60:36:5b:94:92:45:ab:f0:07:e8:f8:a5:84:a7:
         b2:9f:54:9a:17:a9:50:60:b1:35:71:cf:78:78:2e:7d:c8:41:
         58:fe:43:5f:ac:0c:fc:d1:7e:94:76:09:78:15:0d:e7:cb:56:
         c9:cd:a1:d2:6a:1b:14:0d:18:8c:59:57:cb:3d:05:22:01:21:
         7d:77:eb:83:1e:a6:48:91:e2:f6:54:1a:3d:8e:24:7a:aa:d1:
         af:72:00:2a:4c:e5:d4:67:ad:55:06:08:fa:a5:ab:39:99:6b:
         a5:6c:ab:e9:11:33:a6:eb:20:b8:45:04:ee:11:03:3a:5f:3a:
         f2:8b:b6:b3:23:88:02:52:1f:78:2a:1d:6e:7d:04:87:e3:43:
         16:d0:cd:a1:e7:1a:c5:7f:e1:c3:77:36:68:1b:3b:d1:0e:ba:
         17:eb:3c:9e:6a:d6:1f:8e:ad:86:d8:ce:f2:ec:58:b9:df:7c:
         fd:a1:60:d4:ac:a0:2c:5e:46:32:0c:bf:37:3f:8d:b4:d0:17:
         d8:4d:90:e0:c4:8e:0f:f1:f7:21:d7:62:c5:bd:53:1f:cc:63:
         c8:2b:e7:39:65:f9:20:54:f1:8a:ed:3f:48:88:8c:48:27:e5:
         c0:15:ab:7c:2f:d8:ba:2b:86:ed:e4:79:f3:f3:67:ea:ea:bd:
         5c:e9:1b:d9:83:d2:54:54:1d:4d:02:94:b9:1e:18:5e:27:84:
         1a:d4:9c:b8:e5:cf:6a:aa:cc:1d:c6:1f:1a:a3:13:94:d0:2f:
         6d:61:80:e7:c4:47:17:f1:0e:9d:b7:c4:d6:dc:6d:79:40:14:
         ac:56:69:bb:d5:54:44:95:44:b7:e6:2a:ee:e0:28:e6:2e:5c:
         db:23:f9:18:23:e3:d5:d2
-----BEGIN CERTIFICATE-----
MIIE7DCCAtSgAwIBAgIRAIzQZtvQOOVu1MQBskELBcIwDQYJKoZIhvcNAQELBQAw
MjELMAkGA1UEBhMCRVMxDzANBgNVBAoMBlRlbGVjbzESMBAGA1UEAwwJU2VydmVy
IENBMB4XDTIzMDQwNDE0NDk1MFoXDTMzMDQwMTE0NDk1MFowNDELMAkGA1UEBhMC
RVMxDzANBgNVBAoMBlRlbGVjbzEUMBIGA1UEAwwLc2VydmVydGxzMTMwggEiMA0G
CSqGSIb3DQEBAQUAA4IBDwAwggEKAoIBAQCLH3v/rSYir/u5Cl/SvbvbcHHprWAc
1pX0YFsd2bR1Px3PptRNPLJY198DH2BstMLYP4RtqfdWvY+KUjpR96XCQoCAfvo5
+0OmocbItC7tzbcX8/TAyul/4yXpFs/EK2lsuJDqzfnN95StFROT8DZ22bBDqmb2
v5KGis12k5rlXPr0sF8T0ANPa8AT0Aim/X7MT0sNn5OnWssZllfGtgjOkYKxa9fs
hIxZkaOMg5vJfLPmFS3gkJAicAyZ2snJkEo664Y9f8C5jInv+aDpAqn8ZgsjU5yQ
RkXsWk3JnxABMTN5GFHRDbtVQuZPZPFKDpZMGxxeWP77ddIwAilggIs7AgMBAAGj
gfowgfcwMgYIKwYBBQUHAQEEJjAkMCIGCCsGAQUFBzABhhZodHRwOi8vbG9jYWxo
b3N0OjkwODAvMB8GA1UdIwQYMBaAFCGa10CUF/1zY1iu+GrLVVCnONRZMAwGA1Ud
EwEB/wQCMAAwOgYDVR0fBDMwMTAvoC2gK4YpaHR0cDovL3NlcnZlci1jYS5UZWxl
Y28uY29tL3NlcnZlci1jYS5jcmwwJwYDVR0lBCAwHgYIKwYBBQUHAwIGCCsGAQUF
BwMBBggrBgEFBQcDCTAOBgNVHQ8BAf8EBAMCBaAwHQYDVR0OBBYEFLgU1+Czrj1d
kJIQVxpcCn9+G4XXMA0GCSqGSIb3DQEBCwUAA4ICAQCLHbGMrduQ+fh8Sn4A5h4J
xtKyKY5wx83kg2JGqAjWM0hXoc1mbQbjDhggXSJp3UX+OYrQDBqboqXkzy1cehu5
hHOjg/UX4fzfhyZSgAYt3iSnd4Rdgg35u8xfYSzaVBOM4tCTgPXemxauaGT1jhK/
3MG9/flU86L0zebZ/MVKRh8mVmhAlzKBiOyM+qQFx/clg1pez0ne9ZOTqbxVN90w
OXychryhg44d8UW/ejjgfUGtV0jhICMDYDZblJJFq/AH6PilhKeyn1SaF6lQYLE1
cc94eC59yEFY/kNfrAz80X6Udgl4FQ3ny1bJzaHSahsUDRiMWVfLPQUiASF9d+uD
HqZIkeL2VBo9jiR6qtGvcgAqTOXUZ61VBgj6pas5mWulbKvpETOm6yC4RQTuEQM6
Xzryi7azI4gCUh94Kh1ufQSH40MW0M2h5xrFf+HDdzZoGzvRDroX6zyeatYfjq2G
2M7y7Fi533z9oWDUrKAsXkYyDL83P4200BfYTZDgxI4P8fch12LFvVMfzGPIK+c5
ZfkgVPGK7T9IiIxIJ+XAFat8L9i6K4bt5Hnz82fq6r1c6RvZg9JUVB1NApS5Hhhe
J4Qa1Jy45c9qqswdxh8aoxOU0C9tYYDnxEcX8Q6dt8TW3G15QBSsVmm71VRElUS3
5iru4CjmLlzbI/kYI+PV0g==
-----END CERTIFICATE-----
