Certificate:
    Data:
        Version: 3 (0x2)
        Serial Number:
            8c:d0:66:db:d0:38:e5:6e:d4:c4:01:b2:41:0b:05:bb
        Signature Algorithm: sha256WithRSAEncryption
        Issuer: C=ES, O=Teleco, CN=Server CA
        Validity
            Not Before: Apr  3 13:59:50 2023 GMT
            Not After : Apr  2 13:59:50 2024 GMT
        Subject: C=ES, O=Teleco, CN=servertls13
        Subject Public Key Info:
            Public Key Algorithm: rsaEncryption
                RSA Public-Key: (2048 bit)
                Modulus:
                    00:8b:1f:7b:ff:ad:26:22:af:fb:b9:0a:5f:d2:bd:
                    bb:db:70:71:e9:ad:60:1c:d6:95:f4:60:5b:1d:d9:
                    b4:75:3f:1d:cf:a6:d4:4d:3c:b2:58:d7:df:03:1f:
                    60:6c:b4:c2:d8:3f:84:6d:a9:f7:56:bd:8f:8a:52:
                    3a:51:f7:a5:c2:42:80:80:7e:fa:39:fb:43:a6:a1:
                    c6:c8:b4:2e:ed:cd:b7:17:f3:f4:c0:ca:e9:7f:e3:
                    25:e9:16:cf:c4:2b:69:6c:b8:90:ea:cd:f9:cd:f7:
                    94:ad:15:13:93:f0:36:76:d9:b0:43:aa:66:f6:bf:
                    92:86:8a:cd:76:93:9a:e5:5c:fa:f4:b0:5f:13:d0:
                    03:4f:6b:c0:13:d0:08:a6:fd:7e:cc:4f:4b:0d:9f:
                    93:a7:5a:cb:19:96:57:c6:b6:08:ce:91:82:b1:6b:
                    d7:ec:84:8c:59:91:a3:8c:83:9b:c9:7c:b3:e6:15:
                    2d:e0:90:90:22:70:0c:99:da:c9:c9:90:4a:3a:eb:
                    86:3d:7f:c0:b9:8c:89:ef:f9:a0:e9:02:a9:fc:66:
                    0b:23:53:9c:90:46:45:ec:5a:4d:c9:9f:10:01:31:
                    33:79:18:51:d1:0d:bb:55:42:e6:4f:64:f1:4a:0e:
                    96:4c:1b:1c:5e:58:fe:fb:75:d2:30:02:29:60:80:
                    8b:3b
                Exponent: 65537 (0x10001)
        X509v3 extensions:
            Authority Information Access: 
                CA Issuers - URI:http://server-ca.Teleco.com/server-ca.crt
                OCSP - URI:http://ocsp.server-ca.Teleco.com:9081

            X509v3 Authority Key Identifier: 
                keyid:3E:7E:CA:8B:2B:67:F4:4E:C8:10:A8:3C:59:74:C1:E4:7D:3A:6F:63

            X509v3 Basic Constraints: critical
                CA:FALSE
            X509v3 CRL Distribution Points: 

                Full Name:
                  URI:http://server-ca.Teleco.com/server-ca.crl

            X509v3 Extended Key Usage: 
                TLS Web Client Authentication, TLS Web Server Authentication
            X509v3 Key Usage: critical
                Digital Signature, Key Encipherment
            X509v3 Subject Key Identifier: 
                B8:14:D7:E0:B3:AE:3D:5D:90:92:10:57:1A:5C:0A:7F:7E:1B:85:D7
            X509v3 Subject Alternative Name: 
                DNS:servertls13
    Signature Algorithm: sha256WithRSAEncryption
         29:30:3e:f3:b5:68:fa:0e:63:af:c0:72:fd:b9:ed:f5:d7:11:
         cf:58:31:a5:47:87:72:f5:11:af:ca:fa:66:da:4e:44:da:7c:
         94:9e:65:3e:ea:7b:19:73:e4:f6:b3:88:c5:d6:18:6d:1e:c9:
         b3:e4:1e:d2:21:51:ef:b1:bc:14:e9:fa:4c:12:93:be:13:f9:
         9c:15:d2:24:6b:b0:7a:85:44:5b:4f:e6:ac:89:4f:46:f8:98:
         44:82:a1:f3:4c:74:5a:a7:28:9b:62:34:ef:85:3f:16:5b:18:
         60:c0:4d:73:27:d1:60:45:c4:1d:82:ee:42:96:4d:b1:a9:9a:
         02:1b:90:23:ed:f9:74:e7:19:01:00:6f:42:7f:55:d3:e4:98:
         ee:6a:61:62:f2:be:83:b8:48:c1:cb:52:e8:bf:cd:6b:f7:14:
         d1:57:f0:ae:06:27:d9:45:f7:87:83:f4:d2:d4:76:24:c8:7e:
         7c:a5:a6:c6:03:dc:b2:f6:6a:9f:79:50:bb:08:ba:43:42:bc:
         b4:b6:2b:c2:61:5b:87:49:bd:8e:0f:2f:fe:84:77:6b:c9:3a:
         68:7e:4e:bf:c7:a9:cc:52:1e:20:61:80:7b:59:f7:ca:94:7c:
         70:e4:16:a6:12:13:ed:35:b5:53:a4:31:5c:dc:14:2e:81:5d:
         8e:f0:45:ea:20:f2:57:82:ac:85:d9:1a:47:f3:56:1d:83:58:
         de:c3:ae:1f:e3:cd:13:5c:18:ad:e6:66:85:d0:2f:61:2c:f8:
         c1:bd:b2:1e:14:d4:0b:42:49:36:5a:16:a5:d8:8d:25:3d:09:
         d2:aa:bc:1d:e8:14:f7:44:2d:1e:56:18:85:d4:8d:e3:a7:b6:
         8e:5b:67:fb:26:6b:b3:ab:4d:76:90:03:3c:6f:14:e2:19:a9:
         06:25:ee:e8:25:58:f3:d8:9b:17:ee:4e:e4:dd:73:a9:64:f3:
         86:bd:28:44:b1:54:54:53:ab:3e:92:3f:0c:97:05:51:a7:3b:
         c6:33:57:65:3d:ce:ff:e1:05:59:13:3f:14:72:9f:87:6a:d8:
         d5:25:9d:a3:8f:67:98:a4:09:a3:0c:7c:21:bb:74:93:a2:9e:
         55:b1:c0:e2:29:33:ad:73:56:c8:76:12:83:16:d5:26:2e:04:
         4c:ab:81:5b:a3:02:2b:46:cc:62:cb:91:ac:16:d4:b4:d4:f8:
         2c:3e:67:62:db:1d:34:32:6d:18:31:09:29:4e:8c:12:68:a7:
         0c:51:b2:ab:48:58:b9:b5:91:19:04:84:03:f3:3a:03:82:78:
         c8:ae:84:7b:56:33:43:ca:4c:f0:c5:89:d0:2d:89:e1:11:3d:
         f0:18:a1:1a:35:17:c1:a2
-----BEGIN CERTIFICATE-----
MIIFQjCCAyqgAwIBAgIRAIzQZtvQOOVu1MQBskELBbswDQYJKoZIhvcNAQELBQAw
MjELMAkGA1UEBhMCRVMxDzANBgNVBAoMBlRlbGVjbzESMBAGA1UEAwwJU2VydmVy
IENBMB4XDTIzMDQwMzEzNTk1MFoXDTI0MDQwMjEzNTk1MFowNDELMAkGA1UEBhMC
RVMxDzANBgNVBAoMBlRlbGVjbzEUMBIGA1UEAwwLc2VydmVydGxzMTMwggEiMA0G
CSqGSIb3DQEBAQUAA4IBDwAwggEKAoIBAQCLH3v/rSYir/u5Cl/SvbvbcHHprWAc
1pX0YFsd2bR1Px3PptRNPLJY198DH2BstMLYP4RtqfdWvY+KUjpR96XCQoCAfvo5
+0OmocbItC7tzbcX8/TAyul/4yXpFs/EK2lsuJDqzfnN95StFROT8DZ22bBDqmb2
v5KGis12k5rlXPr0sF8T0ANPa8AT0Aim/X7MT0sNn5OnWssZllfGtgjOkYKxa9fs
hIxZkaOMg5vJfLPmFS3gkJAicAyZ2snJkEo664Y9f8C5jInv+aDpAqn8ZgsjU5yQ
RkXsWk3JnxABMTN5GFHRDbtVQuZPZPFKDpZMGxxeWP77ddIwAilggIs7AgMBAAGj
ggFPMIIBSzB4BggrBgEFBQcBAQRsMGowNQYIKwYBBQUHMAKGKWh0dHA6Ly9zZXJ2
ZXItY2EuVGVsZWNvLmNvbS9zZXJ2ZXItY2EuY3J0MDEGCCsGAQUFBzABhiVodHRw
Oi8vb2NzcC5zZXJ2ZXItY2EuVGVsZWNvLmNvbTo5MDgxMB8GA1UdIwQYMBaAFD5+
yosrZ/ROyBCoPFl0weR9Om9jMAwGA1UdEwEB/wQCMAAwOgYDVR0fBDMwMTAvoC2g
K4YpaHR0cDovL3NlcnZlci1jYS5UZWxlY28uY29tL3NlcnZlci1jYS5jcmwwHQYD
VR0lBBYwFAYIKwYBBQUHAwIGCCsGAQUFBwMBMA4GA1UdDwEB/wQEAwIFoDAdBgNV
HQ4EFgQUuBTX4LOuPV2QkhBXGlwKf34bhdcwFgYDVR0RBA8wDYILc2VydmVydGxz
MTMwDQYJKoZIhvcNAQELBQADggIBACkwPvO1aPoOY6/Acv257fXXEc9YMaVHh3L1
Ea/K+mbaTkTafJSeZT7qexlz5PaziMXWGG0eybPkHtIhUe+xvBTp+kwSk74T+ZwV
0iRrsHqFRFtP5qyJT0b4mESCofNMdFqnKJtiNO+FPxZbGGDATXMn0WBFxB2C7kKW
TbGpmgIbkCPt+XTnGQEAb0J/VdPkmO5qYWLyvoO4SMHLUui/zWv3FNFX8K4GJ9lF
94eD9NLUdiTIfnylpsYD3LL2ap95ULsIukNCvLS2K8JhW4dJvY4PL/6Ed2vJOmh+
Tr/HqcxSHiBhgHtZ98qUfHDkFqYSE+01tVOkMVzcFC6BXY7wReog8leCrIXZGkfz
Vh2DWN7Drh/jzRNcGK3mZoXQL2Es+MG9sh4U1AtCSTZaFqXYjSU9CdKqvB3oFPdE
LR5WGIXUjeOnto5bZ/sma7OrTXaQAzxvFOIZqQYl7uglWPPYmxfuTuTdc6lk84a9
KESxVFRTqz6SPwyXBVGnO8YzV2U9zv/hBVkTPxRyn4dq2NUlnaOPZ5ikCaMMfCG7
dJOinlWxwOIpM61zVsh2EoMW1SYuBEyrgVujAitGzGLLkawW1LTU+Cw+Z2LbHTQy
bRgxCSlOjBJopwxRsqtIWLm1kRkEhAPzOgOCeMiuhHtWM0PKTPDFidAtieERPfAY
oRo1F8Gi
-----END CERTIFICATE-----
