Certificate:
    Data:
        Version: 3 (0x2)
        Serial Number:
            8c:d0:66:db:d0:38:e5:6e:d4:c4:01:b2:41:0b:05:c4
        Signature Algorithm: sha256WithRSAEncryption
        Issuer: C=ES, O=Teleco, CN=Server CA
        Validity
            Not Before: Apr  4 14:52:00 2023 GMT
            Not After : Apr  1 14:52:00 2033 GMT
        Subject: C=ES, O=Teleco, CN=servertls13
        Subject Public Key Info:
            Public Key Algorithm: rsaEncryption
                RSA Public-Key: (1512 bit)
                Modulus:
                    00:95:84:26:b1:58:3f:57:0a:1f:48:a4:5a:ce:01:
                    f8:af:19:81:08:27:f0:98:08:24:a6:4b:ed:2e:9a:
                    43:30:df:b6:ed:4a:a2:8d:93:a1:74:e9:0a:fc:d5:
                    c8:23:c2:3b:b7:e6:fe:3a:18:4a:50:98:e7:f6:31:
                    95:8d:a4:72:aa:e2:78:00:16:55:08:ee:82:ee:92:
                    d6:4e:20:b2:90:3c:aa:1d:6d:ae:01:d1:d4:43:e6:
                    6a:39:c7:45:9a:74:6f:ba:1a:71:a8:5d:a1:b4:c2:
                    20:87:01:79:8d:17:3c:9c:17:fc:31:c5:e1:c1:17:
                    96:b9:ab:57:48:47:4e:b6:4f:40:36:19:d0:30:f7:
                    2d:bd:37:19:08:90:de:c3:9b:dc:04:a3:e7:49:da:
                    e4:cb:c7:7c:0d:86:fe:ae:9c:07:fe:e3:79:13:0b:
                    b9:75:c8:62:96:33:cd:9b:25:45:04:f0:2f:b3:13:
                    5a:85:8a:e2:4b:43:df:b4:8d:c5
                Exponent: 65537 (0x10001)
        X509v3 extensions:
            Authority Information Access: 
                OCSP - URI:http://localhost:9080/

            X509v3 Authority Key Identifier: 
                keyid:21:9A:D7:40:94:17:FD:73:63:58:AE:F8:6A:CB:55:50:A7:38:D4:59

            X509v3 Basic Constraints: critical
                CA:FALSE
            X509v3 CRL Distribution Points: 

                Full Name:
                  URI:http://server-ca.Teleco.com/server-ca.crl

            X509v3 Extended Key Usage: 
                TLS Web Client Authentication, TLS Web Server Authentication, OCSP Signing
            X509v3 Key Usage: critical
                Digital Signature, Key Encipherment
            X509v3 Subject Key Identifier: 
                03:45:05:D2:FA:2D:B3:C1:AB:B1:CC:81:5D:8E:A2:95:CB:E2:2E:8A
    Signature Algorithm: sha256WithRSAEncryption
         18:0c:0f:ab:05:e8:17:a6:53:98:1c:d7:72:85:4f:5b:4b:2a:
         c7:59:4a:8c:46:2e:fe:b7:75:66:63:99:b9:30:dd:24:24:0d:
         77:1f:7d:52:0a:0e:79:d7:b8:34:6b:63:31:43:d5:ce:f3:46:
         83:02:cb:da:2c:fa:0a:64:0b:0a:da:9c:b3:b0:1f:e7:05:ff:
         53:d7:8e:26:4f:cf:10:bc:f1:e2:98:b7:ce:a9:0d:bb:6d:de:
         a7:19:e2:fe:fe:57:dc:7f:39:10:34:37:7d:d3:ad:83:80:d1:
         38:ec:93:1a:e0:3c:5e:dc:cd:16:c0:65:a0:a8:bd:f7:55:b0:
         0e:41:0a:19:1e:e3:8f:65:f0:6e:a1:e8:8a:88:b6:63:7c:d5:
         37:67:2a:23:b7:fc:b8:b7:08:d5:10:d7:ff:4a:6d:2f:ed:0d:
         92:ce:c8:1b:e0:95:de:e8:b7:d8:ab:ff:3c:86:3d:2e:78:33:
         18:a0:d1:9f:c0:8c:d1:fc:6a:0e:dc:a7:66:73:39:cf:6a:42:
         44:9a:10:29:f4:b4:37:b7:16:65:d4:23:c4:d0:96:61:c9:86:
         4c:70:e2:1d:da:6d:f2:c2:fa:04:93:e6:0c:2e:5e:c0:ad:37:
         e2:ab:c6:34:62:80:4c:14:46:9e:7f:1f:69:92:f2:a5:47:da:
         25:f0:2f:1b:17:1e:9f:0d:47:33:ee:c6:9e:64:eb:6d:8e:c5:
         f6:61:ea:23:27:07:6b:93:0e:6c:9a:4b:3a:9d:6d:08:32:2b:
         ed:b8:ad:02:5e:ad:52:65:58:ac:05:1d:34:22:22:d8:4e:57:
         a4:90:da:3a:20:61:38:a0:66:13:8c:ca:24:79:36:34:20:98:
         db:3a:0e:44:7a:f9:cb:a8:ec:a2:87:3a:9f:f6:40:8c:31:1a:
         53:78:7e:4d:27:fa:8d:fe:8c:89:fa:ae:92:33:b5:0e:e3:cd:
         f9:5b:be:61:61:ba:e8:ec:4b:2a:e8:c1:fd:a3:bc:22:0f:a9:
         0c:98:a3:6f:14:e8:e2:a4:ca:2d:68:0a:f9:55:b6:95:1a:d7:
         a8:b4:39:05:71:c7:e2:09:71:a5:1b:9b:27:ae:25:0b:ca:14:
         45:d6:37:de:1b:c2:29:3d:1b:9c:17:c9:36:0e:68:97:d3:dc:
         5f:93:e4:36:44:88:68:2b:16:03:19:95:84:5b:c2:bb:04:5b:
         11:20:9e:8b:f2:24:81:bb:9f:f2:66:2b:33:ba:af:27:71:31:
         cc:3c:ee:f2:15:d7:60:63:c7:20:f0:78:43:03:c1:28:f9:66:
         26:1d:ea:82:d6:9c:32:52:82:4c:e9:33:24:68:54:f2:85:0a:
         a9:c0:70:b0:2b:19:f4:c5
-----BEGIN CERTIFICATE-----
MIIEpTCCAo2gAwIBAgIRAIzQZtvQOOVu1MQBskELBcQwDQYJKoZIhvcNAQELBQAw
MjELMAkGA1UEBhMCRVMxDzANBgNVBAoMBlRlbGVjbzESMBAGA1UEAwwJU2VydmVy
IENBMB4XDTIzMDQwNDE0NTIwMFoXDTMzMDQwMTE0NTIwMFowNDELMAkGA1UEBhMC
RVMxDzANBgNVBAoMBlRlbGVjbzEUMBIGA1UEAwwLc2VydmVydGxzMTMwgdwwDQYJ
KoZIhvcNAQEBBQADgcoAMIHGAoG+AJWEJrFYP1cKH0ikWs4B+K8ZgQgn8JgIJKZL
7S6aQzDftu1Koo2ToXTpCvzVyCPCO7fm/joYSlCY5/YxlY2kcqrieAAWVQjugu6S
1k4gspA8qh1trgHR1EPmajnHRZp0b7oacahdobTCIIcBeY0XPJwX/DHF4cEXlrmr
V0hHTrZPQDYZ0DD3Lb03GQiQ3sOb3ASj50na5MvHfA2G/q6cB/7jeRMLuXXIYpYz
zZslRQTwL7MTWoWK4ktD37SNxQIDAQABo4H6MIH3MDIGCCsGAQUFBwEBBCYwJDAi
BggrBgEFBQcwAYYWaHR0cDovL2xvY2FsaG9zdDo5MDgwLzAfBgNVHSMEGDAWgBQh
mtdAlBf9c2NYrvhqy1VQpzjUWTAMBgNVHRMBAf8EAjAAMDoGA1UdHwQzMDEwL6At
oCuGKWh0dHA6Ly9zZXJ2ZXItY2EuVGVsZWNvLmNvbS9zZXJ2ZXItY2EuY3JsMCcG
A1UdJQQgMB4GCCsGAQUFBwMCBggrBgEFBQcDAQYIKwYBBQUHAwkwDgYDVR0PAQH/
BAQDAgWgMB0GA1UdDgQWBBQDRQXS+i2zwauxzIFdjqKVy+IuijANBgkqhkiG9w0B
AQsFAAOCAgEAGAwPqwXoF6ZTmBzXcoVPW0sqx1lKjEYu/rd1ZmOZuTDdJCQNdx99
UgoOede4NGtjMUPVzvNGgwLL2iz6CmQLCtqcs7Af5wX/U9eOJk/PELzx4pi3zqkN
u23epxni/v5X3H85EDQ3fdOtg4DROOyTGuA8XtzNFsBloKi991WwDkEKGR7jj2Xw
bqHoioi2Y3zVN2cqI7f8uLcI1RDX/0ptL+0Nks7IG+CV3ui32Kv/PIY9LngzGKDR
n8CM0fxqDtynZnM5z2pCRJoQKfS0N7cWZdQjxNCWYcmGTHDiHdpt8sL6BJPmDC5e
wK034qvGNGKATBRGnn8faZLypUfaJfAvGxcenw1HM+7GnmTrbY7F9mHqIycHa5MO
bJpLOp1tCDIr7bitAl6tUmVYrAUdNCIi2E5XpJDaOiBhOKBmE4zKJHk2NCCY2zoO
RHr5y6jsooc6n/ZAjDEaU3h+TSf6jf6MifqukjO1DuPN+Vu+YWG66OxLKujB/aO8
Ig+pDJijbxTo4qTKLWgK+VW2lRrXqLQ5BXHH4glxpRubJ64lC8oURdY33hvCKT0b
nBfJNg5ol9PcX5PkNkSIaCsWAxmVhFvCuwRbESCei/Ikgbuf8mYrM7qvJ3ExzDzu
8hXXYGPHIPB4QwPBKPlmJh3qgtacMlKCTOkzJGhU8oUKqcBwsCsZ9MU=
-----END CERTIFICATE-----
