Certificate:
    Data:
        Version: 3 (0x2)
        Serial Number:
            8c:d0:66:db:d0:38:e5:6e:d4:c4:01:b2:41:0b:05:be
        Signature Algorithm: sha256WithRSAEncryption
        Issuer: C=ES, O=Teleco, CN=Server CA
        Validity
            Not Before: Apr  3 22:16:28 2023 GMT
            Not After : Mar 31 22:16:28 2033 GMT
        Subject: C=ES, O=Teleco, CN=servertls13
        Subject Public Key Info:
            Public Key Algorithm: rsaEncryption
                RSA Public-Key: (2048 bit)
                Modulus:
                    00:8b:1f:7b:ff:ad:26:22:af:fb:b9:0a:5f:d2:bd:
                    bb:db:70:71:e9:ad:60:1c:d6:95:f4:60:5b:1d:d9:
                    b4:75:3f:1d:cf:a6:d4:4d:3c:b2:58:d7:df:03:1f:
                    60:6c:b4:c2:d8:3f:84:6d:a9:f7:56:bd:8f:8a:52:
                    3a:51:f7:a5:c2:42:80:80:7e:fa:39:fb:43:a6:a1:
                    c6:c8:b4:2e:ed:cd:b7:17:f3:f4:c0:ca:e9:7f:e3:
                    25:e9:16:cf:c4:2b:69:6c:b8:90:ea:cd:f9:cd:f7:
                    94:ad:15:13:93:f0:36:76:d9:b0:43:aa:66:f6:bf:
                    92:86:8a:cd:76:93:9a:e5:5c:fa:f4:b0:5f:13:d0:
                    03:4f:6b:c0:13:d0:08:a6:fd:7e:cc:4f:4b:0d:9f:
                    93:a7:5a:cb:19:96:57:c6:b6:08:ce:91:82:b1:6b:
                    d7:ec:84:8c:59:91:a3:8c:83:9b:c9:7c:b3:e6:15:
                    2d:e0:90:90:22:70:0c:99:da:c9:c9:90:4a:3a:eb:
                    86:3d:7f:c0:b9:8c:89:ef:f9:a0:e9:02:a9:fc:66:
                    0b:23:53:9c:90:46:45:ec:5a:4d:c9:9f:10:01:31:
                    33:79:18:51:d1:0d:bb:55:42:e6:4f:64:f1:4a:0e:
                    96:4c:1b:1c:5e:58:fe:fb:75:d2:30:02:29:60:80:
                    8b:3b
                Exponent: 65537 (0x10001)
        X509v3 extensions:
            Authority Information Access: 
                OCSP - URI:http://localhost:9080/

            X509v3 Authority Key Identifier: 
                keyid:E4:FC:75:33:2A:C1:8C:7D:EC:25:D9:A8:CF:F1:7B:44:70:5A:79:9F

            X509v3 Basic Constraints: critical
                CA:FALSE
            X509v3 CRL Distribution Points: 

                Full Name:
                  URI:http://server-ca.Teleco.com/server-ca.crl

            X509v3 Extended Key Usage: 
                TLS Web Client Authentication, TLS Web Server Authentication
            X509v3 Key Usage: critical
                Digital Signature, Key Encipherment
            X509v3 Subject Key Identifier: 
                B8:14:D7:E0:B3:AE:3D:5D:90:92:10:57:1A:5C:0A:7F:7E:1B:85:D7
    Signature Algorithm: sha256WithRSAEncryption
         89:67:d3:67:21:ca:92:00:c4:99:fc:c5:60:d6:d0:36:d2:fc:
         05:ab:7c:5e:a2:23:ab:d1:67:cd:b5:98:38:e1:07:30:9a:9d:
         8c:16:a3:48:72:00:83:58:ad:12:30:a8:2f:f4:7e:c8:ef:0b:
         d0:43:4e:c6:dd:93:8a:a8:c6:16:92:34:db:9b:11:36:95:af:
         da:83:01:cc:63:db:39:82:18:ff:69:12:b4:19:a2:3b:49:e1:
         fd:3c:ea:e5:4b:2a:26:3a:2c:77:25:e1:ca:11:90:ae:2e:70:
         f3:42:66:e9:86:17:10:79:8d:7a:36:c1:f6:8a:21:f6:37:a8:
         62:ec:23:67:47:82:97:1b:dc:5d:54:5d:9a:40:fb:02:ee:09:
         76:99:c5:19:ee:3b:48:25:78:a7:ec:d1:c1:fa:6b:29:b2:91:
         5d:fc:15:31:2c:f8:1a:54:90:38:ea:23:f7:88:aa:d5:f2:ec:
         50:14:9b:ab:0a:4f:5a:5e:97:e5:02:6a:d9:af:31:4c:11:b1:
         c8:3a:72:22:c5:ba:dd:4b:ef:0f:29:3b:92:86:d5:64:d3:a6:
         95:b1:56:59:e8:27:1e:ac:13:60:49:09:fc:05:da:95:5e:32:
         ff:c7:3c:75:07:92:87:2a:fa:c0:26:99:6e:cf:56:19:8c:73:
         0b:c0:60:ce:01:ba:e4:26:77:4e:dd:ff:b2:fc:2b:d4:8c:a7:
         62:a5:0b:d7:1a:5a:6f:c8:72:74:69:b9:37:a4:16:29:38:86:
         9f:5d:54:2c:e7:90:ba:62:75:8d:d4:c2:cd:69:00:c6:7f:4e:
         3d:54:33:b3:72:0e:76:a2:30:1c:6c:54:9d:87:f3:8b:0e:a1:
         d3:69:d6:f5:54:d6:28:c3:12:6a:3a:26:b1:4e:8a:ab:d0:f1:
         d0:4a:42:09:8a:b4:1f:ae:a8:55:2c:7f:5d:c5:a4:32:4e:5e:
         41:af:95:15:e9:77:cd:84:0a:3e:a2:d1:1c:ed:80:38:91:42:
         7f:84:1f:93:6a:a8:5b:cf:77:8c:e6:b2:53:83:80:55:c0:c6:
         a9:a1:e4:62:bd:7c:f7:25:7d:d5:ce:f5:9c:78:0a:4e:d5:75:
         f3:55:c4:a3:c2:45:dc:36:b4:2a:56:31:bd:48:ef:c5:d0:7c:
         69:cc:bf:b7:b8:b5:ca:c0:90:29:41:84:b3:03:03:b4:8d:d2:
         7b:45:ca:4d:29:a9:b4:48:eb:61:03:1d:f0:05:57:61:24:2d:
         47:18:d5:80:0c:ea:2d:43:c8:a2:47:3c:28:6e:19:c0:c0:ac:
         7b:ec:13:80:b4:f8:d2:a3:e5:9e:89:73:65:d2:8b:9e:ec:36:
         21:eb:93:b3:48:a9:0a:3d
-----BEGIN CERTIFICATE-----
MIIE4jCCAsqgAwIBAgIRAIzQZtvQOOVu1MQBskELBb4wDQYJKoZIhvcNAQELBQAw
MjELMAkGA1UEBhMCRVMxDzANBgNVBAoMBlRlbGVjbzESMBAGA1UEAwwJU2VydmVy
IENBMB4XDTIzMDQwMzIyMTYyOFoXDTMzMDMzMTIyMTYyOFowNDELMAkGA1UEBhMC
RVMxDzANBgNVBAoMBlRlbGVjbzEUMBIGA1UEAwwLc2VydmVydGxzMTMwggEiMA0G
CSqGSIb3DQEBAQUAA4IBDwAwggEKAoIBAQCLH3v/rSYir/u5Cl/SvbvbcHHprWAc
1pX0YFsd2bR1Px3PptRNPLJY198DH2BstMLYP4RtqfdWvY+KUjpR96XCQoCAfvo5
+0OmocbItC7tzbcX8/TAyul/4yXpFs/EK2lsuJDqzfnN95StFROT8DZ22bBDqmb2
v5KGis12k5rlXPr0sF8T0ANPa8AT0Aim/X7MT0sNn5OnWssZllfGtgjOkYKxa9fs
hIxZkaOMg5vJfLPmFS3gkJAicAyZ2snJkEo664Y9f8C5jInv+aDpAqn8ZgsjU5yQ
RkXsWk3JnxABMTN5GFHRDbtVQuZPZPFKDpZMGxxeWP77ddIwAilggIs7AgMBAAGj
gfAwge0wMgYIKwYBBQUHAQEEJjAkMCIGCCsGAQUFBzABhhZodHRwOi8vbG9jYWxo
b3N0OjkwODAvMB8GA1UdIwQYMBaAFOT8dTMqwYx97CXZqM/xe0RwWnmfMAwGA1Ud
EwEB/wQCMAAwOgYDVR0fBDMwMTAvoC2gK4YpaHR0cDovL3NlcnZlci1jYS5UZWxl
Y28uY29tL3NlcnZlci1jYS5jcmwwHQYDVR0lBBYwFAYIKwYBBQUHAwIGCCsGAQUF
BwMBMA4GA1UdDwEB/wQEAwIFoDAdBgNVHQ4EFgQUuBTX4LOuPV2QkhBXGlwKf34b
hdcwDQYJKoZIhvcNAQELBQADggIBAIln02chypIAxJn8xWDW0DbS/AWrfF6iI6vR
Z821mDjhBzCanYwWo0hyAINYrRIwqC/0fsjvC9BDTsbdk4qoxhaSNNubETaVr9qD
Acxj2zmCGP9pErQZojtJ4f086uVLKiY6LHcl4coRkK4ucPNCZumGFxB5jXo2wfaK
IfY3qGLsI2dHgpcb3F1UXZpA+wLuCXaZxRnuO0gleKfs0cH6aymykV38FTEs+BpU
kDjqI/eIqtXy7FAUm6sKT1pel+UCatmvMUwRscg6ciLFut1L7w8pO5KG1WTTppWx
VlnoJx6sE2BJCfwF2pVeMv/HPHUHkocq+sAmmW7PVhmMcwvAYM4BuuQmd07d/7L8
K9SMp2KlC9caWm/IcnRpuTekFik4hp9dVCznkLpidY3Uws1pAMZ/Tj1UM7NyDnai
MBxsVJ2H84sOodNp1vVU1ijDEmo6JrFOiqvQ8dBKQgmKtB+uqFUsf13FpDJOXkGv
lRXpd82ECj6i0RztgDiRQn+EH5NqqFvPd4zmslODgFXAxqmh5GK9fPclfdXO9Zx4
Ck7VdfNVxKPCRdw2tCpWMb1I78XQfGnMv7e4tcrAkClBhLMDA7SN0ntFyk0pqbRI
62EDHfAFV2EkLUcY1YAM6i1DyKJHPChuGcDArHvsE4C0+NKj5Z6Jc2XSi57sNiHr
k7NIqQo9
-----END CERTIFICATE-----
