Certificate:
    Data:
        Version: 3 (0x2)
        Serial Number:
            8c:d0:66:db:d0:38:e5:6e:d4:c4:01:b2:41:0b:05:b6
        Signature Algorithm: sha256WithRSAEncryption
        Issuer: C=ES, O=Teleco, CN=Server CA
        Validity
            Not Before: Feb 26 12:01:46 2023 GMT
            Not After : Feb 26 12:01:46 2024 GMT
        Subject: C=ES, O=Teleco, CN=servertls13
        Subject Public Key Info:
            Public Key Algorithm: rsaEncryption
                RSA Public-Key: (2048 bit)
                Modulus:
                    00:ab:53:e2:cc:79:4e:81:1a:7a:24:e7:40:65:88:
                    80:1f:9d:8c:5e:de:52:f5:ed:ab:38:23:6a:d6:2b:
                    7f:eb:1f:f0:c4:68:7f:ac:8f:1f:65:65:c6:ca:17:
                    c7:5a:76:72:52:3a:72:61:cd:15:09:72:e1:58:d9:
                    4e:11:4b:a1:de:a2:8c:20:2b:7f:7f:f3:f2:52:8b:
                    19:54:3c:f9:08:7b:fc:df:b5:c7:1b:e7:d8:27:b3:
                    ae:2f:57:6e:c2:56:58:5b:36:33:0f:90:03:f1:ff:
                    9c:d4:fa:e0:2c:4b:0f:6b:a4:31:e1:41:83:b9:f2:
                    e1:d4:d3:11:a1:97:2d:44:e0:ae:af:b9:f1:97:77:
                    f2:79:13:b9:83:1a:c6:6b:ef:27:72:27:95:9f:a0:
                    da:77:78:97:44:c3:b0:16:17:b4:5d:62:c7:bc:52:
                    20:c1:22:ca:92:0a:87:f1:55:a7:21:d1:ea:02:ee:
                    cc:18:de:99:a8:e2:54:16:cf:9b:d9:1e:71:ec:48:
                    2c:c0:25:86:46:09:9c:ed:4a:75:56:1a:9e:e6:ac:
                    07:7b:18:29:83:41:6d:e4:86:84:33:94:42:6c:0b:
                    40:53:86:55:d7:b1:2c:d1:99:23:93:32:e6:f0:10:
                    f1:c1:26:c6:a7:8f:a4:76:3f:d7:a3:9f:ea:7b:e7:
                    99:2f
                Exponent: 65537 (0x10001)
        X509v3 extensions:
            Authority Information Access: 
                CA Issuers - URI:http://server-ca.Teleco.com/server-ca.crt
                OCSP - URI:http://ocsp.server-ca.Teleco.com:9081

            X509v3 Authority Key Identifier: 
                keyid:16:A7:39:41:ED:0C:D0:FB:4C:62:16:3B:2F:BD:FE:C0:8A:6B:9D:94

            X509v3 Basic Constraints: critical
                CA:FALSE
            X509v3 CRL Distribution Points: 

                Full Name:
                  URI:http://server-ca.Teleco.com/server-ca.crl

            X509v3 Extended Key Usage: 
                TLS Web Client Authentication, TLS Web Server Authentication
            X509v3 Key Usage: critical
                Digital Signature, Key Encipherment
            X509v3 Subject Key Identifier: 
                EF:3D:C5:FB:A3:57:C5:D6:87:B1:E2:57:FD:E2:AE:A0:4B:C5:69:4B
            X509v3 Subject Alternative Name: 
                DNS:servertls13
    Signature Algorithm: sha256WithRSAEncryption
         bc:89:4c:ec:3e:87:e8:b0:b2:17:85:6a:81:a9:4c:b3:7d:4f:
         a4:78:ee:e6:48:74:d9:4c:92:ca:d2:7a:63:b2:a3:3f:a5:b5:
         8d:d9:ae:ab:fb:22:58:6d:a4:cb:9c:23:24:74:71:be:ef:58:
         6f:8b:dc:94:ff:c3:54:65:d1:04:92:f4:27:85:39:f2:c5:ae:
         0e:81:4d:47:f4:9c:ef:de:17:3a:37:91:de:ff:bb:8d:44:fa:
         78:fa:b6:a6:61:bc:80:09:e1:1f:ae:05:1d:b8:d0:43:ad:c4:
         bd:10:ec:81:e8:f4:c8:0b:41:5a:19:0c:4a:17:72:fe:f0:e1:
         f6:44:4f:da:47:f2:3a:12:fa:7b:19:93:ac:53:96:84:95:00:
         ee:72:ba:a6:bd:dd:63:b6:07:80:dd:3f:6d:61:55:22:72:95:
         82:bd:08:db:f3:84:25:ba:09:0f:22:96:3c:23:b0:bb:91:f1:
         aa:4d:19:ef:a1:0e:c1:8a:80:d6:5d:ea:da:8f:d8:52:70:35:
         d6:00:09:51:eb:12:be:17:b3:10:de:3c:51:d3:7c:81:0c:9e:
         0f:a7:64:a1:9f:46:57:04:e1:4c:20:92:e1:ee:39:65:08:a8:
         b3:9f:61:4d:17:91:2c:07:e2:3c:3f:c2:0a:c1:9e:c4:e1:cb:
         97:f1:54:d2:6a:19:19:7e:79:a4:b8:b9:70:e0:76:8e:7f:bc:
         0f:61:c4:cf:0c:24:3f:75:eb:c8:e9:4a:a0:01:00:20:1e:34:
         0b:2c:02:45:0c:fb:5f:d6:28:8e:14:70:f1:06:eb:c1:d3:1c:
         b0:71:10:e7:88:e4:f3:e4:36:78:ed:3d:ab:21:69:6d:38:d5:
         c4:76:d4:5d:28:a1:3e:04:4a:a1:ed:9a:8e:f2:6e:8b:f6:83:
         ad:73:35:56:29:92:1c:24:79:1b:be:30:13:58:5d:83:2f:a0:
         e1:07:33:da:46:78:f4:a4:30:62:be:37:e5:59:81:cf:b1:f5:
         fc:f7:b0:22:a9:7d:3d:36:7d:96:e9:1f:47:f4:1b:38:60:21:
         26:02:96:4d:26:b9:4d:3a:2d:61:37:ed:5c:60:85:4c:b8:cc:
         0d:04:31:f7:98:e5:b5:28:ca:28:17:0a:6a:53:d1:be:07:46:
         64:3b:89:73:05:17:83:8e:3e:98:e8:42:7c:06:07:2f:da:7c:
         4c:93:35:a5:7a:b6:41:d9:d7:87:1b:28:34:34:23:68:63:e3:
         2b:96:94:b4:42:57:c7:47:a7:cb:c0:35:12:ef:7f:5d:c1:c3:
         20:4b:29:6b:53:1c:57:7c:75:92:58:95:f7:36:41:02:66:77:
         c0:9c:27:b6:54:9f:8b:d7
-----BEGIN CERTIFICATE-----
MIIFQjCCAyqgAwIBAgIRAIzQZtvQOOVu1MQBskELBbYwDQYJKoZIhvcNAQELBQAw
MjELMAkGA1UEBhMCRVMxDzANBgNVBAoMBlRlbGVjbzESMBAGA1UEAwwJU2VydmVy
IENBMB4XDTIzMDIyNjEyMDE0NloXDTI0MDIyNjEyMDE0NlowNDELMAkGA1UEBhMC
RVMxDzANBgNVBAoMBlRlbGVjbzEUMBIGA1UEAwwLc2VydmVydGxzMTMwggEiMA0G
CSqGSIb3DQEBAQUAA4IBDwAwggEKAoIBAQCrU+LMeU6BGnok50BliIAfnYxe3lL1
7as4I2rWK3/rH/DEaH+sjx9lZcbKF8dadnJSOnJhzRUJcuFY2U4RS6HeoowgK39/
8/JSixlUPPkIe/zftccb59gns64vV27CVlhbNjMPkAPx/5zU+uAsSw9rpDHhQYO5
8uHU0xGhly1E4K6vufGXd/J5E7mDGsZr7ydyJ5WfoNp3eJdEw7AWF7RdYse8UiDB
IsqSCofxVach0eoC7swY3pmo4lQWz5vZHnHsSCzAJYZGCZztSnVWGp7mrAd7GCmD
QW3khoQzlEJsC0BThlXXsSzRmSOTMubwEPHBJsanj6R2P9ejn+p755kvAgMBAAGj
ggFPMIIBSzB4BggrBgEFBQcBAQRsMGowNQYIKwYBBQUHMAKGKWh0dHA6Ly9zZXJ2
ZXItY2EuVGVsZWNvLmNvbS9zZXJ2ZXItY2EuY3J0MDEGCCsGAQUFBzABhiVodHRw
Oi8vb2NzcC5zZXJ2ZXItY2EuVGVsZWNvLmNvbTo5MDgxMB8GA1UdIwQYMBaAFBan
OUHtDND7TGIWOy+9/sCKa52UMAwGA1UdEwEB/wQCMAAwOgYDVR0fBDMwMTAvoC2g
K4YpaHR0cDovL3NlcnZlci1jYS5UZWxlY28uY29tL3NlcnZlci1jYS5jcmwwHQYD
VR0lBBYwFAYIKwYBBQUHAwIGCCsGAQUFBwMBMA4GA1UdDwEB/wQEAwIFoDAdBgNV
HQ4EFgQU7z3F+6NXxdaHseJX/eKuoEvFaUswFgYDVR0RBA8wDYILc2VydmVydGxz
MTMwDQYJKoZIhvcNAQELBQADggIBALyJTOw+h+iwsheFaoGpTLN9T6R47uZIdNlM
ksrSemOyoz+ltY3Zrqv7IlhtpMucIyR0cb7vWG+L3JT/w1Rl0QSS9CeFOfLFrg6B
TUf0nO/eFzo3kd7/u41E+nj6tqZhvIAJ4R+uBR240EOtxL0Q7IHo9MgLQVoZDEoX
cv7w4fZET9pH8joS+nsZk6xTloSVAO5yuqa93WO2B4DdP21hVSJylYK9CNvzhCW6
CQ8iljwjsLuR8apNGe+hDsGKgNZd6tqP2FJwNdYACVHrEr4XsxDePFHTfIEMng+n
ZKGfRlcE4UwgkuHuOWUIqLOfYU0XkSwH4jw/wgrBnsThy5fxVNJqGRl+eaS4uXDg
do5/vA9hxM8MJD9168jpSqABACAeNAssAkUM+1/WKI4UcPEG68HTHLBxEOeI5PPk
NnjtPashaW041cR21F0ooT4ESqHtmo7ybov2g61zNVYpkhwkeRu+MBNYXYMvoOEH
M9pGePSkMGK+N+VZgc+x9fz3sCKpfT02fZbpH0f0GzhgISYClk0muU06LWE37Vxg
hUy4zA0EMfeY5bUoyigXCmpT0b4HRmQ7iXMFF4OOPpjoQnwGBy/afEyTNaV6tkHZ
14cbKDQ0I2hj4yuWlLRCV8dHp8vANRLvf13BwyBLKWtTHFd8dZJYlfc2QQJmd8Cc
J7ZUn4vX
-----END CERTIFICATE-----
