Certificate:
    Data:
        Version: 3 (0x2)
        Serial Number:
            8c:d0:66:db:d0:38:e5:6e:d4:c4:01:b2:41:0b:05:c1
        Signature Algorithm: sha256WithRSAEncryption
        Issuer: C=ES, O=Teleco, CN=Server CA
        Validity
            Not Before: Apr  4 11:06:06 2023 GMT
            Not After : Apr  1 11:06:06 2033 GMT
        Subject: C=ES, O=Teleco, CN=servertls13
        Subject Public Key Info:
            Public Key Algorithm: rsaEncryption
                RSA Public-Key: (2048 bit)
                Modulus:
                    00:8b:1f:7b:ff:ad:26:22:af:fb:b9:0a:5f:d2:bd:
                    bb:db:70:71:e9:ad:60:1c:d6:95:f4:60:5b:1d:d9:
                    b4:75:3f:1d:cf:a6:d4:4d:3c:b2:58:d7:df:03:1f:
                    60:6c:b4:c2:d8:3f:84:6d:a9:f7:56:bd:8f:8a:52:
                    3a:51:f7:a5:c2:42:80:80:7e:fa:39:fb:43:a6:a1:
                    c6:c8:b4:2e:ed:cd:b7:17:f3:f4:c0:ca:e9:7f:e3:
                    25:e9:16:cf:c4:2b:69:6c:b8:90:ea:cd:f9:cd:f7:
                    94:ad:15:13:93:f0:36:76:d9:b0:43:aa:66:f6:bf:
                    92:86:8a:cd:76:93:9a:e5:5c:fa:f4:b0:5f:13:d0:
                    03:4f:6b:c0:13:d0:08:a6:fd:7e:cc:4f:4b:0d:9f:
                    93:a7:5a:cb:19:96:57:c6:b6:08:ce:91:82:b1:6b:
                    d7:ec:84:8c:59:91:a3:8c:83:9b:c9:7c:b3:e6:15:
                    2d:e0:90:90:22:70:0c:99:da:c9:c9:90:4a:3a:eb:
                    86:3d:7f:c0:b9:8c:89:ef:f9:a0:e9:02:a9:fc:66:
                    0b:23:53:9c:90:46:45:ec:5a:4d:c9:9f:10:01:31:
                    33:79:18:51:d1:0d:bb:55:42:e6:4f:64:f1:4a:0e:
                    96:4c:1b:1c:5e:58:fe:fb:75:d2:30:02:29:60:80:
                    8b:3b
                Exponent: 65537 (0x10001)
        X509v3 extensions:
            Authority Information Access: 
                OCSP - URI:http://localhost:9080/

            X509v3 Authority Key Identifier: 
                keyid:4E:AB:92:63:17:41:73:71:19:E1:6A:9C:61:C8:30:2C:ED:FE:40:67

            X509v3 Basic Constraints: critical
                CA:FALSE
            X509v3 CRL Distribution Points: 

                Full Name:
                  URI:http://server-ca.Teleco.com/server-ca.crl

            X509v3 Extended Key Usage: 
                TLS Web Client Authentication, TLS Web Server Authentication
            X509v3 Key Usage: critical
                Digital Signature, Key Encipherment
            X509v3 Subject Key Identifier: 
                B8:14:D7:E0:B3:AE:3D:5D:90:92:10:57:1A:5C:0A:7F:7E:1B:85:D7
    Signature Algorithm: sha256WithRSAEncryption
         8c:49:49:3c:e6:9e:93:30:e5:81:5d:0b:02:1d:02:d3:11:ed:
         d1:1c:20:dc:89:5a:04:c0:4f:53:dc:75:1a:fa:d6:17:27:30:
         f3:53:ce:09:1c:98:6e:5e:4b:63:b7:6e:01:89:8d:d3:0c:e5:
         3d:7a:8c:e3:a7:b4:70:29:80:52:2a:21:9a:fa:c1:2f:52:1a:
         a1:9f:46:52:fd:ad:4e:34:f5:26:6c:cd:32:dd:c2:2e:72:a4:
         60:7a:59:65:17:88:a3:05:e5:49:0e:0e:95:00:40:1d:57:25:
         f6:c9:06:dd:c5:9f:9a:c3:58:88:0f:f6:65:66:a2:15:cc:29:
         3a:8f:43:67:a4:1c:ea:1f:6f:e6:ea:02:d3:a6:98:5e:ab:2d:
         9d:37:4f:33:9e:b0:dc:89:a9:2b:9e:f7:36:48:ff:1a:f5:05:
         02:e9:10:e5:b8:5a:d9:5e:c9:80:a9:12:39:50:98:d4:0b:a0:
         4b:14:7a:9b:8d:a4:77:76:04:d2:2c:75:69:21:e4:d1:36:18:
         a7:c7:f1:44:22:b9:bb:bd:f5:88:95:b1:df:a9:76:e5:d8:90:
         ec:ef:5f:cb:a8:9a:61:98:52:fa:9a:e4:ca:de:c8:0f:48:00:
         62:64:ef:9b:81:0a:a6:43:4b:eb:04:43:85:b0:40:e7:14:22:
         5d:6c:e4:48:f3:d9:22:38:69:80:96:d6:48:cd:8c:e5:d6:d7:
         fd:ee:78:30:df:eb:47:8f:52:9d:24:6a:90:82:e7:aa:da:24:
         8e:66:b6:0f:2d:73:e5:c6:f5:b0:ea:f5:41:13:7b:a2:a5:e3:
         73:4c:1d:ab:82:ec:1a:8f:62:96:7b:6e:ad:59:98:00:27:21:
         53:cc:5c:36:5e:ab:70:19:c8:0e:46:67:90:d8:59:47:81:08:
         50:06:85:c0:70:ba:50:29:22:09:c7:19:d7:b2:d6:b3:85:90:
         79:0f:50:91:21:6b:e6:03:03:fb:28:1e:7c:59:9a:ae:91:90:
         fb:f2:5a:dd:3e:73:9e:59:43:06:34:29:81:3b:83:f4:30:cd:
         f7:39:3a:99:e6:d8:75:f8:bf:a2:0f:f1:64:0d:c3:03:81:d0:
         40:9b:70:53:dc:5f:b7:ff:32:6e:8f:7d:b9:89:de:10:bb:d8:
         e6:91:c8:dc:36:17:ec:28:72:d8:a2:1f:5f:df:7b:bb:24:cf:
         47:c3:72:2e:62:ad:42:d7:de:86:a1:39:67:85:12:74:07:da:
         2b:05:83:0c:02:ba:aa:72:31:4d:42:88:17:21:80:2f:d8:2b:
         62:78:59:c2:79:2e:0b:09:10:d0:0f:d8:09:6a:fd:ea:5c:ed:
         ad:73:ba:29:3f:cb:79:ad
-----BEGIN CERTIFICATE-----
MIIE4jCCAsqgAwIBAgIRAIzQZtvQOOVu1MQBskELBcEwDQYJKoZIhvcNAQELBQAw
MjELMAkGA1UEBhMCRVMxDzANBgNVBAoMBlRlbGVjbzESMBAGA1UEAwwJU2VydmVy
IENBMB4XDTIzMDQwNDExMDYwNloXDTMzMDQwMTExMDYwNlowNDELMAkGA1UEBhMC
RVMxDzANBgNVBAoMBlRlbGVjbzEUMBIGA1UEAwwLc2VydmVydGxzMTMwggEiMA0G
CSqGSIb3DQEBAQUAA4IBDwAwggEKAoIBAQCLH3v/rSYir/u5Cl/SvbvbcHHprWAc
1pX0YFsd2bR1Px3PptRNPLJY198DH2BstMLYP4RtqfdWvY+KUjpR96XCQoCAfvo5
+0OmocbItC7tzbcX8/TAyul/4yXpFs/EK2lsuJDqzfnN95StFROT8DZ22bBDqmb2
v5KGis12k5rlXPr0sF8T0ANPa8AT0Aim/X7MT0sNn5OnWssZllfGtgjOkYKxa9fs
hIxZkaOMg5vJfLPmFS3gkJAicAyZ2snJkEo664Y9f8C5jInv+aDpAqn8ZgsjU5yQ
RkXsWk3JnxABMTN5GFHRDbtVQuZPZPFKDpZMGxxeWP77ddIwAilggIs7AgMBAAGj
gfAwge0wMgYIKwYBBQUHAQEEJjAkMCIGCCsGAQUFBzABhhZodHRwOi8vbG9jYWxo
b3N0OjkwODAvMB8GA1UdIwQYMBaAFE6rkmMXQXNxGeFqnGHIMCzt/kBnMAwGA1Ud
EwEB/wQCMAAwOgYDVR0fBDMwMTAvoC2gK4YpaHR0cDovL3NlcnZlci1jYS5UZWxl
Y28uY29tL3NlcnZlci1jYS5jcmwwHQYDVR0lBBYwFAYIKwYBBQUHAwIGCCsGAQUF
BwMBMA4GA1UdDwEB/wQEAwIFoDAdBgNVHQ4EFgQUuBTX4LOuPV2QkhBXGlwKf34b
hdcwDQYJKoZIhvcNAQELBQADggIBAIxJSTzmnpMw5YFdCwIdAtMR7dEcINyJWgTA
T1PcdRr61hcnMPNTzgkcmG5eS2O3bgGJjdMM5T16jOOntHApgFIqIZr6wS9SGqGf
RlL9rU409SZszTLdwi5ypGB6WWUXiKMF5UkODpUAQB1XJfbJBt3Fn5rDWIgP9mVm
ohXMKTqPQ2ekHOofb+bqAtOmmF6rLZ03TzOesNyJqSue9zZI/xr1BQLpEOW4Wtle
yYCpEjlQmNQLoEsUepuNpHd2BNIsdWkh5NE2GKfH8UQiubu99YiVsd+pduXYkOzv
X8uommGYUvqa5MreyA9IAGJk75uBCqZDS+sEQ4WwQOcUIl1s5Ejz2SI4aYCW1kjN
jOXW1/3ueDDf60ePUp0kapCC56raJI5mtg8tc+XG9bDq9UETe6Kl43NMHauC7BqP
YpZ7bq1ZmAAnIVPMXDZeq3AZyA5GZ5DYWUeBCFAGhcBwulApIgnHGdey1rOFkHkP
UJEha+YDA/soHnxZmq6RkPvyWt0+c55ZQwY0KYE7g/Qwzfc5Opnm2HX4v6IP8WQN
wwOB0ECbcFPcX7f/Mm6PfbmJ3hC72OaRyNw2F+woctiiH1/fe7skz0fDci5irULX
3oahOWeFEnQH2isFgwwCuqpyMU1CiBchgC/YK2J4WcJ5LgsJENAP2Alq/epc7a1z
uik/y3mt
-----END CERTIFICATE-----
