Certificate:
    Data:
        Version: 3 (0x2)
        Serial Number:
            8c:d0:66:db:d0:38:e5:6e:d4:c4:01:b2:41:0b:05:bd
        Signature Algorithm: sha256WithRSAEncryption
        Issuer: C=ES, O=Teleco, CN=Server CA
        Validity
            Not Before: Apr  3 16:05:38 2023 GMT
            Not After : Apr  2 16:05:38 2024 GMT
        Subject: C=ES, O=Teleco, CN=servertls13
        Subject Public Key Info:
            Public Key Algorithm: rsaEncryption
                RSA Public-Key: (1512 bit)
                Modulus:
                    00:95:84:26:b1:58:3f:57:0a:1f:48:a4:5a:ce:01:
                    f8:af:19:81:08:27:f0:98:08:24:a6:4b:ed:2e:9a:
                    43:30:df:b6:ed:4a:a2:8d:93:a1:74:e9:0a:fc:d5:
                    c8:23:c2:3b:b7:e6:fe:3a:18:4a:50:98:e7:f6:31:
                    95:8d:a4:72:aa:e2:78:00:16:55:08:ee:82:ee:92:
                    d6:4e:20:b2:90:3c:aa:1d:6d:ae:01:d1:d4:43:e6:
                    6a:39:c7:45:9a:74:6f:ba:1a:71:a8:5d:a1:b4:c2:
                    20:87:01:79:8d:17:3c:9c:17:fc:31:c5:e1:c1:17:
                    96:b9:ab:57:48:47:4e:b6:4f:40:36:19:d0:30:f7:
                    2d:bd:37:19:08:90:de:c3:9b:dc:04:a3:e7:49:da:
                    e4:cb:c7:7c:0d:86:fe:ae:9c:07:fe:e3:79:13:0b:
                    b9:75:c8:62:96:33:cd:9b:25:45:04:f0:2f:b3:13:
                    5a:85:8a:e2:4b:43:df:b4:8d:c5
                Exponent: 65537 (0x10001)
        X509v3 extensions:
            Authority Information Access: 
                OCSP - URI:http://localhost:9080/

            X509v3 Authority Key Identifier: 
                keyid:B9:0F:28:6B:E6:58:8D:64:D8:20:D6:F6:44:BD:5B:45:59:1B:74:2D

            X509v3 Basic Constraints: critical
                CA:FALSE
            X509v3 CRL Distribution Points: 

                Full Name:
                  URI:http://server-ca.Teleco.com/server-ca.crl

            X509v3 Extended Key Usage: 
                TLS Web Client Authentication, TLS Web Server Authentication
            X509v3 Key Usage: critical
                Digital Signature, Key Encipherment
            X509v3 Subject Key Identifier: 
                03:45:05:D2:FA:2D:B3:C1:AB:B1:CC:81:5D:8E:A2:95:CB:E2:2E:8A
    Signature Algorithm: sha256WithRSAEncryption
         43:68:4b:89:c5:e0:78:d0:c0:81:92:1a:ba:bb:d3:22:9f:57:
         96:ec:10:04:93:5f:d4:97:30:f7:4e:61:dc:f4:87:d2:2e:ed:
         5f:5f:cf:a8:6d:dc:ac:1c:09:21:83:96:2a:87:20:98:bd:5d:
         e3:6a:49:8c:e5:95:72:9c:0f:9c:38:b0:ad:96:a5:c4:c2:8d:
         fb:34:fb:d8:77:1e:88:a3:54:a0:10:89:38:e8:ad:a6:2a:6f:
         76:a4:e8:5d:d6:6b:a4:f3:77:ad:2c:47:88:62:18:1d:24:12:
         04:c3:83:20:f7:aa:ed:fc:f0:d4:55:c6:e8:e6:63:b7:ad:dc:
         e4:b7:77:08:ef:dd:46:2b:15:fe:d6:13:3f:4f:8d:a7:26:28:
         ad:b7:bb:f6:cd:33:a6:15:0b:23:51:ed:8f:5b:99:9a:9a:4a:
         68:c1:50:48:9a:00:a4:dd:ee:0f:86:ba:47:1a:1a:9b:aa:7f:
         34:ea:27:7d:b7:12:5d:94:db:03:76:a8:4c:19:ee:9c:9f:67:
         ed:b4:aa:e6:9d:d7:97:db:8b:1c:ab:f8:91:eb:0b:6d:6d:c0:
         d5:6d:de:67:e0:8f:16:e0:b7:53:e9:ef:32:5c:92:76:46:3c:
         d3:13:c2:f8:4f:d2:34:42:97:38:e5:f0:6f:eb:bd:82:fb:d4:
         7a:76:31:9a:9a:e3:66:1c:21:fd:47:3a:e5:64:19:a4:c7:d9:
         00:59:9a:84:5c:29:04:95:88:53:ca:22:40:39:95:f1:77:23:
         a9:d5:70:42:be:13:23:b6:25:22:cf:dd:70:34:6a:0d:81:a7:
         4a:7e:93:d1:77:b3:52:dc:6e:a8:27:8e:e6:b0:6b:5e:95:12:
         ca:1a:0e:a6:33:eb:ad:22:f6:1f:6c:cc:3e:a2:33:22:c6:c4:
         da:51:44:ea:75:82:e6:ae:73:58:3e:b4:78:b3:08:a1:f2:fc:
         ca:97:a5:62:92:0d:e2:0c:ba:6a:41:36:49:fa:c7:c0:ab:e7:
         e6:98:2a:f5:41:6f:f6:de:7a:1e:b7:ba:b2:d2:bc:1c:a5:ee:
         dd:54:ed:d5:60:68:7f:94:d2:f7:19:57:74:cd:77:4e:e1:cc:
         b5:dc:8c:a3:bc:6d:f8:03:0d:e1:85:81:67:cd:0a:63:5e:0b:
         76:d9:37:1e:cc:9b:39:50:ca:9e:2c:9d:84:d6:d0:d7:4c:52:
         30:51:28:da:aa:04:4f:d8:2a:1c:47:2b:a9:76:af:4e:f9:49:
         d5:12:13:3c:a6:4c:f2:a9:c8:05:92:85:67:34:07:4e:bb:d8:
         96:3f:a4:cb:ac:cb:41:e9:28:02:98:35:68:8c:37:16:d5:d8:
         92:e1:6d:6d:4c:99:32:01
-----BEGIN CERTIFICATE-----
MIIEmzCCAoOgAwIBAgIRAIzQZtvQOOVu1MQBskELBb0wDQYJKoZIhvcNAQELBQAw
MjELMAkGA1UEBhMCRVMxDzANBgNVBAoMBlRlbGVjbzESMBAGA1UEAwwJU2VydmVy
IENBMB4XDTIzMDQwMzE2MDUzOFoXDTI0MDQwMjE2MDUzOFowNDELMAkGA1UEBhMC
RVMxDzANBgNVBAoMBlRlbGVjbzEUMBIGA1UEAwwLc2VydmVydGxzMTMwgdwwDQYJ
KoZIhvcNAQEBBQADgcoAMIHGAoG+AJWEJrFYP1cKH0ikWs4B+K8ZgQgn8JgIJKZL
7S6aQzDftu1Koo2ToXTpCvzVyCPCO7fm/joYSlCY5/YxlY2kcqrieAAWVQjugu6S
1k4gspA8qh1trgHR1EPmajnHRZp0b7oacahdobTCIIcBeY0XPJwX/DHF4cEXlrmr
V0hHTrZPQDYZ0DD3Lb03GQiQ3sOb3ASj50na5MvHfA2G/q6cB/7jeRMLuXXIYpYz
zZslRQTwL7MTWoWK4ktD37SNxQIDAQABo4HwMIHtMDIGCCsGAQUFBwEBBCYwJDAi
BggrBgEFBQcwAYYWaHR0cDovL2xvY2FsaG9zdDo5MDgwLzAfBgNVHSMEGDAWgBS5
Dyhr5liNZNgg1vZEvVtFWRt0LTAMBgNVHRMBAf8EAjAAMDoGA1UdHwQzMDEwL6At
oCuGKWh0dHA6Ly9zZXJ2ZXItY2EuVGVsZWNvLmNvbS9zZXJ2ZXItY2EuY3JsMB0G
A1UdJQQWMBQGCCsGAQUFBwMCBggrBgEFBQcDATAOBgNVHQ8BAf8EBAMCBaAwHQYD
VR0OBBYEFANFBdL6LbPBq7HMgV2OopXL4i6KMA0GCSqGSIb3DQEBCwUAA4ICAQBD
aEuJxeB40MCBkhq6u9Min1eW7BAEk1/UlzD3TmHc9IfSLu1fX8+obdysHAkhg5Yq
hyCYvV3jakmM5ZVynA+cOLCtlqXEwo37NPvYdx6Io1SgEIk46K2mKm92pOhd1muk
83etLEeIYhgdJBIEw4Mg96rt/PDUVcbo5mO3rdzkt3cI791GKxX+1hM/T42nJiit
t7v2zTOmFQsjUe2PW5mamkpowVBImgCk3e4PhrpHGhqbqn806id9txJdlNsDdqhM
Ge6cn2fttKrmndeX24scq/iR6wttbcDVbd5n4I8W4LdT6e8yXJJ2RjzTE8L4T9I0
Qpc45fBv672C+9R6djGamuNmHCH9RzrlZBmkx9kAWZqEXCkElYhTyiJAOZXxdyOp
1XBCvhMjtiUiz91wNGoNgadKfpPRd7NS3G6oJ47msGtelRLKGg6mM+utIvYfbMw+
ojMixsTaUUTqdYLmrnNYPrR4swih8vzKl6Vikg3iDLpqQTZJ+sfAq+fmmCr1QW/2
3noet7qy0rwcpe7dVO3VYGh/lNL3GVd0zXdO4cy13IyjvG34Aw3hhYFnzQpjXgt2
2TcezJs5UMqeLJ2E1tDXTFIwUSjaqgRP2CocRyupdq9O+UnVEhM8pkzyqcgFkoVn
NAdOu9iWP6TLrMtB6SgCmDVojDcW1diS4W1tTJkyAQ==
-----END CERTIFICATE-----
