Certificate:
    Data:
        Version: 3 (0x2)
        Serial Number:
            8c:d0:66:db:d0:38:e5:6e:d4:c4:01:b2:41:0b:05:cc
        Signature Algorithm: sha256WithRSAEncryption
        Issuer: C=ES, O=Teleco, CN=Server CA
        Validity
            Not Before: Apr  5 09:43:10 2023 GMT
            Not After : Apr  2 09:43:10 2033 GMT
        Subject: C=ES, O=Teleco, CN=servertls13
        Subject Public Key Info:
            Public Key Algorithm: rsaEncryption
                RSA Public-Key: (1512 bit)
                Modulus:
                    00:95:84:26:b1:58:3f:57:0a:1f:48:a4:5a:ce:01:
                    f8:af:19:81:08:27:f0:98:08:24:a6:4b:ed:2e:9a:
                    43:30:df:b6:ed:4a:a2:8d:93:a1:74:e9:0a:fc:d5:
                    c8:23:c2:3b:b7:e6:fe:3a:18:4a:50:98:e7:f6:31:
                    95:8d:a4:72:aa:e2:78:00:16:55:08:ee:82:ee:92:
                    d6:4e:20:b2:90:3c:aa:1d:6d:ae:01:d1:d4:43:e6:
                    6a:39:c7:45:9a:74:6f:ba:1a:71:a8:5d:a1:b4:c2:
                    20:87:01:79:8d:17:3c:9c:17:fc:31:c5:e1:c1:17:
                    96:b9:ab:57:48:47:4e:b6:4f:40:36:19:d0:30:f7:
                    2d:bd:37:19:08:90:de:c3:9b:dc:04:a3:e7:49:da:
                    e4:cb:c7:7c:0d:86:fe:ae:9c:07:fe:e3:79:13:0b:
                    b9:75:c8:62:96:33:cd:9b:25:45:04:f0:2f:b3:13:
                    5a:85:8a:e2:4b:43:df:b4:8d:c5
                Exponent: 65537 (0x10001)
        X509v3 extensions:
            Authority Information Access: 
                CA Issuers - URI:http://server-ca.Teleco.com/server-ca.crt
                OCSP - URI:http://ocsp.server-ca.Teleco.com:9080

            X509v3 Authority Key Identifier: 
                keyid:46:D1:59:71:A8:1F:2F:91:13:0E:17:8E:BB:8E:AA:3F:2B:9D:9D:EC

            X509v3 Basic Constraints: critical
                CA:FALSE
            X509v3 CRL Distribution Points: 

                Full Name:
                  URI:http://server-ca.Teleco.com/server-ca.crl

            X509v3 Extended Key Usage: 
                TLS Web Client Authentication, TLS Web Server Authentication
            X509v3 Key Usage: critical
                Digital Signature, Key Encipherment
            X509v3 Subject Key Identifier: 
                03:45:05:D2:FA:2D:B3:C1:AB:B1:CC:81:5D:8E:A2:95:CB:E2:2E:8A
    Signature Algorithm: sha256WithRSAEncryption
         66:0a:ac:40:60:68:af:5e:5f:dc:48:20:3a:ea:fc:61:ff:35:
         50:88:ce:eb:e2:b3:a2:3d:b1:dd:32:1e:26:bd:ea:52:c3:f7:
         e2:5b:98:05:10:90:9c:82:5a:2a:b4:5d:df:50:ed:f2:54:60:
         f1:99:53:df:f3:ae:29:74:b5:4d:99:51:16:82:bb:d9:08:52:
         63:51:0f:c0:b6:06:4d:40:52:bb:96:c2:71:40:5c:fa:0d:e1:
         76:03:e5:23:b7:fd:44:14:4b:b7:a8:a4:e8:0e:a3:8c:29:b1:
         81:b4:1d:36:91:be:33:c3:57:21:5b:b9:4e:fc:79:c4:ba:68:
         be:4b:0e:1a:51:aa:07:15:fe:95:51:13:fd:11:50:5d:56:17:
         f5:83:f6:bd:f7:da:03:18:5d:86:2b:da:ba:59:ae:1b:be:f4:
         b4:df:48:d0:31:6b:f3:f8:00:e9:c4:76:1e:54:2c:f1:a2:a1:
         39:77:ac:8d:14:b2:02:1d:50:0a:ad:65:62:31:fa:72:bd:6e:
         83:e5:fb:12:73:79:d7:2a:2a:ba:13:d9:ba:eb:4a:e1:88:40:
         38:a3:98:e7:74:c3:64:79:60:e7:75:9e:f5:1a:de:b3:4b:f4:
         7d:92:27:96:96:09:58:5e:05:09:a2:77:96:af:c7:70:7d:bb:
         b6:3c:f9:03:e7:b3:4a:0a:88:82:3a:b6:b5:c1:f7:c3:04:c0:
         e5:01:bc:07:de:c8:60:d1:bb:2d:a5:94:47:48:26:dd:01:d9:
         aa:c3:4e:56:76:a1:b8:22:8e:b4:94:30:dd:82:e6:42:67:a7:
         6e:f7:64:f7:60:91:c8:b7:46:ab:f8:25:40:8d:ab:15:d2:b6:
         2e:ea:48:4e:71:3f:cb:cf:ec:d2:a8:68:0c:1b:26:b3:62:34:
         11:b3:e4:a4:a6:66:61:8c:98:e8:c4:9a:49:cc:58:3a:c6:ed:
         ae:3b:71:cd:b1:14:4d:42:25:3a:02:c1:47:ac:83:35:91:5a:
         c1:76:87:c7:13:30:3c:99:b7:95:1e:e6:0c:61:25:34:1d:ba:
         ac:b0:2e:6d:b9:c6:77:91:c4:4e:6a:e5:8a:a4:5f:0a:3b:ee:
         1c:01:5b:57:77:47:5d:ec:bc:2e:72:79:46:96:cd:e0:ef:38:
         18:a5:10:35:fc:68:75:09:39:ef:3d:0f:b6:5e:8d:3f:51:92:
         19:3e:18:7c:54:8f:2a:15:e5:9f:ce:2a:fb:d8:00:d2:9d:6b:
         fc:62:33:c6:d7:ce:ff:2b:fc:aa:99:4c:ce:8f:c2:c0:ba:35:
         88:7e:3d:1f:75:62:95:d7:f6:d2:a1:6a:ce:1b:40:0b:64:8e:
         30:e5:5a:4d:68:cf:61:99
-----BEGIN CERTIFICATE-----
MIIE4zCCAsugAwIBAgIRAIzQZtvQOOVu1MQBskELBcwwDQYJKoZIhvcNAQELBQAw
MjELMAkGA1UEBhMCRVMxDzANBgNVBAoMBlRlbGVjbzESMBAGA1UEAwwJU2VydmVy
IENBMB4XDTIzMDQwNTA5NDMxMFoXDTMzMDQwMjA5NDMxMFowNDELMAkGA1UEBhMC
RVMxDzANBgNVBAoMBlRlbGVjbzEUMBIGA1UEAwwLc2VydmVydGxzMTMwgdwwDQYJ
KoZIhvcNAQEBBQADgcoAMIHGAoG+AJWEJrFYP1cKH0ikWs4B+K8ZgQgn8JgIJKZL
7S6aQzDftu1Koo2ToXTpCvzVyCPCO7fm/joYSlCY5/YxlY2kcqrieAAWVQjugu6S
1k4gspA8qh1trgHR1EPmajnHRZp0b7oacahdobTCIIcBeY0XPJwX/DHF4cEXlrmr
V0hHTrZPQDYZ0DD3Lb03GQiQ3sOb3ASj50na5MvHfA2G/q6cB/7jeRMLuXXIYpYz
zZslRQTwL7MTWoWK4ktD37SNxQIDAQABo4IBNzCCATMweAYIKwYBBQUHAQEEbDBq
MDUGCCsGAQUFBzAChilodHRwOi8vc2VydmVyLWNhLlRlbGVjby5jb20vc2VydmVy
LWNhLmNydDAxBggrBgEFBQcwAYYlaHR0cDovL29jc3Auc2VydmVyLWNhLlRlbGVj
by5jb206OTA4MDAfBgNVHSMEGDAWgBRG0VlxqB8vkRMOF467jqo/K52d7DAMBgNV
HRMBAf8EAjAAMDoGA1UdHwQzMDEwL6AtoCuGKWh0dHA6Ly9zZXJ2ZXItY2EuVGVs
ZWNvLmNvbS9zZXJ2ZXItY2EuY3JsMB0GA1UdJQQWMBQGCCsGAQUFBwMCBggrBgEF
BQcDATAOBgNVHQ8BAf8EBAMCBaAwHQYDVR0OBBYEFANFBdL6LbPBq7HMgV2OopXL
4i6KMA0GCSqGSIb3DQEBCwUAA4ICAQBmCqxAYGivXl/cSCA66vxh/zVQiM7r4rOi
PbHdMh4mvepSw/fiW5gFEJCcgloqtF3fUO3yVGDxmVPf864pdLVNmVEWgrvZCFJj
UQ/AtgZNQFK7lsJxQFz6DeF2A+Ujt/1EFEu3qKToDqOMKbGBtB02kb4zw1chW7lO
/HnEumi+Sw4aUaoHFf6VURP9EVBdVhf1g/a999oDGF2GK9q6Wa4bvvS030jQMWvz
+ADpxHYeVCzxoqE5d6yNFLICHVAKrWViMfpyvW6D5fsSc3nXKiq6E9m660rhiEA4
o5jndMNkeWDndZ71Gt6zS/R9kieWlglYXgUJoneWr8dwfbu2PPkD57NKCoiCOra1
wffDBMDlAbwH3shg0bstpZRHSCbdAdmqw05WdqG4Io60lDDdguZCZ6du92T3YJHI
t0ar+CVAjasV0rYu6khOcT/Lz+zSqGgMGyazYjQRs+SkpmZhjJjoxJpJzFg6xu2u
O3HNsRRNQiU6AsFHrIM1kVrBdofHEzA8mbeVHuYMYSU0HbqssC5tucZ3kcROauWK
pF8KO+4cAVtXd0dd7LwucnlGls3g7zgYpRA1/Gh1CTnvPQ+2Xo0/UZIZPhh8VI8q
FeWfzir72ADSnWv8YjPG187/K/yqmUzOj8LAujWIfj0fdWKV1/bSoWrOG0ALZI4w
5VpNaM9hmQ==
-----END CERTIFICATE-----
