Certificate:
    Data:
        Version: 3 (0x2)
        Serial Number:
            8c:d0:66:db:d0:38:e5:6e:d4:c4:01:b2:41:0b:05:cf
        Signature Algorithm: sha256WithRSAEncryption
        Issuer: C=ES, O=Teleco, CN=Server CA
        Validity
            Not Before: Apr  6 09:44:41 2023 GMT
            Not After : Apr  5 09:44:41 2024 GMT
        Subject: C=ES, O=Teleco, CN=OCSP Responder
        Subject Public Key Info:
            Public Key Algorithm: rsaEncryption
                RSA Public-Key: (2048 bit)
                Modulus:
                    00:c0:74:5f:8a:a5:e3:8f:eb:a6:b0:57:d2:34:f8:
                    2c:3a:ef:ca:20:c0:4b:31:00:7f:a7:48:85:26:5c:
                    4a:a9:24:36:f1:62:fd:f1:6d:7b:3c:4a:98:8a:76:
                    76:e2:90:fa:16:f2:15:1b:97:e2:75:2b:f3:fe:33:
                    fa:64:38:a9:c4:9c:e6:f8:36:61:7c:80:e5:22:86:
                    23:7f:d6:45:f0:24:11:07:0e:c4:c8:ab:30:3a:6e:
                    46:54:19:a1:f4:79:71:83:0b:ac:31:f1:5c:8f:ac:
                    d8:cc:b9:97:57:a1:78:aa:24:0d:8c:26:e2:a9:51:
                    04:3d:08:11:45:2b:ad:ba:e8:ff:e0:50:ea:f0:fd:
                    ae:db:9e:56:93:db:a4:ae:bb:ee:cf:31:a7:15:3c:
                    b4:16:3f:3d:e9:32:9e:3f:f3:84:7b:32:e2:e3:8e:
                    8d:50:9f:d7:e9:76:13:2b:5b:81:a7:c1:c6:58:96:
                    4b:f2:f9:b5:a6:fe:5d:32:ce:da:26:82:55:49:ce:
                    e1:c8:a5:35:a5:f1:06:7f:96:a2:08:cf:a5:fc:bd:
                    0a:9b:8d:f1:b1:c4:a5:c1:3f:ac:33:2b:b3:dd:ea:
                    31:ca:5b:8c:e3:bb:87:3c:a9:23:a7:70:89:c2:ca:
                    1f:2c:ff:dc:f6:ae:eb:7d:f7:cc:99:4a:10:ce:80:
                    eb:55
                Exponent: 65537 (0x10001)
        X509v3 extensions:
            X509v3 Authority Key Identifier: 
                keyid:46:D1:59:71:A8:1F:2F:91:13:0E:17:8E:BB:8E:AA:3F:2B:9D:9D:EC

            X509v3 Basic Constraints: critical
                CA:FALSE
            X509v3 Extended Key Usage: 
                OCSP Signing
            X509v3 Key Usage: critical
                Digital Signature
            X509v3 Subject Key Identifier: 
                15:03:84:AD:26:DB:5C:74:78:83:8C:55:3B:1D:73:F1:B7:62:79:C0
    Signature Algorithm: sha256WithRSAEncryption
         84:31:0f:7a:d0:93:fc:2a:7a:15:cf:44:ac:7b:a7:33:de:94:
         3e:92:dd:03:59:0b:70:de:75:98:69:f3:72:55:a2:2b:25:cf:
         1a:0f:0f:a9:ae:b5:08:59:77:1d:5c:1f:00:64:d2:94:c0:50:
         fa:09:cc:3d:6d:9a:bf:f4:57:f7:d1:c8:34:67:a3:fd:5c:aa:
         db:38:44:27:68:64:ec:6d:a3:cb:e9:5c:b0:f4:a1:84:c1:6e:
         0f:fd:68:1a:94:7a:ea:a4:aa:26:10:2b:8d:6c:54:32:c9:06:
         23:1a:c4:07:ef:4b:27:58:3f:a6:fd:80:cd:f9:d3:a0:bd:d7:
         b0:41:d0:56:d3:a9:ed:8f:bf:cf:3e:b9:52:c2:23:ca:cc:03:
         ee:c5:c8:ea:eb:1e:47:5c:ae:24:83:a6:78:8a:76:6d:98:3e:
         c4:0b:41:55:74:a4:91:e1:b7:9c:21:a9:63:11:b4:77:55:08:
         5b:4f:34:8c:0c:8f:7e:d3:de:72:5b:35:47:3c:d7:9d:6a:ad:
         f9:05:fc:14:bd:8d:3b:26:77:82:b9:f0:a0:f4:44:8c:e7:74:
         b2:1f:ba:79:cd:bf:77:30:af:0b:83:12:08:ab:73:6d:73:1a:
         71:6e:0d:dc:32:15:88:bd:b4:7c:40:3d:89:d1:f5:97:4c:fc:
         fe:36:fe:03:28:54:10:06:25:10:5a:b3:bf:ca:78:52:1e:f8:
         04:9b:7e:f4:cb:e6:bc:1c:66:7a:8b:6f:35:c2:22:c3:10:5a:
         32:9c:55:2d:dc:79:84:6d:b9:b3:76:ca:2d:28:4e:8c:7f:9e:
         7b:15:3f:d0:34:85:c2:e4:ca:b2:e3:54:3b:55:c6:27:31:ec:
         0e:68:18:ed:8a:22:c4:4f:97:2d:16:6a:89:ed:02:51:6a:f4:
         25:ba:cd:1b:46:95:4b:7a:73:8e:8e:8d:a1:ec:8d:93:6f:c3:
         06:de:58:8a:94:45:30:2c:53:84:e3:53:58:8e:50:32:50:62:
         82:da:77:f0:4a:12:79:a3:38:f1:00:a3:09:56:1a:82:e6:32:
         93:d9:f5:8b:5c:bc:81:af:75:3e:00:f6:68:d3:63:ac:7e:17:
         86:af:50:64:6c:9e:da:4f:06:36:1a:9e:95:f7:1b:28:c2:4c:
         9b:4b:a0:d7:57:ad:73:69:e6:ff:11:c2:a8:d4:40:94:e7:22:
         40:49:ab:8c:06:b2:75:71:1d:3e:99:89:68:32:6d:9d:d1:59:
         f2:74:3a:8d:6d:c1:d4:5b:78:7a:d2:7e:b9:18:65:c3:0d:8c:
         fe:ae:47:3d:b7:28:9c:d5:50:3f:14:5a:e7:9e:41:ed:18:65:
         49:2b:50:17:5b:eb:69:66
-----BEGIN CERTIFICATE-----
MIIEaTCCAlGgAwIBAgIRAIzQZtvQOOVu1MQBskELBc8wDQYJKoZIhvcNAQELBQAw
MjELMAkGA1UEBhMCRVMxDzANBgNVBAoMBlRlbGVjbzESMBAGA1UEAwwJU2VydmVy
IENBMB4XDTIzMDQwNjA5NDQ0MVoXDTI0MDQwNTA5NDQ0MVowNzELMAkGA1UEBhMC
RVMxDzANBgNVBAoMBlRlbGVjbzEXMBUGA1UEAwwOT0NTUCBSZXNwb25kZXIwggEi
MA0GCSqGSIb3DQEBAQUAA4IBDwAwggEKAoIBAQDAdF+KpeOP66awV9I0+Cw678og
wEsxAH+nSIUmXEqpJDbxYv3xbXs8SpiKdnbikPoW8hUbl+J1K/P+M/pkOKnEnOb4
NmF8gOUihiN/1kXwJBEHDsTIqzA6bkZUGaH0eXGDC6wx8VyPrNjMuZdXoXiqJA2M
JuKpUQQ9CBFFK6266P/gUOrw/a7bnlaT26Suu+7PMacVPLQWPz3pMp4/84R7MuLj
jo1Qn9fpdhMrW4GnwcZYlkvy+bWm/l0yztomglVJzuHIpTWl8QZ/lqIIz6X8vQqb
jfGxxKXBP6wzK7Pd6jHKW4zju4c8qSOncInCyh8s/9z2rut998yZShDOgOtVAgMB
AAGjdTBzMB8GA1UdIwQYMBaAFEbRWXGoHy+REw4XjruOqj8rnZ3sMAwGA1UdEwEB
/wQCMAAwEwYDVR0lBAwwCgYIKwYBBQUHAwkwDgYDVR0PAQH/BAQDAgeAMB0GA1Ud
DgQWBBQVA4StJttcdHiDjFU7HXPxt2J5wDANBgkqhkiG9w0BAQsFAAOCAgEAhDEP
etCT/Cp6Fc9ErHunM96UPpLdA1kLcN51mGnzclWiKyXPGg8Pqa61CFl3HVwfAGTS
lMBQ+gnMPW2av/RX99HINGej/Vyq2zhEJ2hk7G2jy+lcsPShhMFuD/1oGpR66qSq
JhArjWxUMskGIxrEB+9LJ1g/pv2AzfnToL3XsEHQVtOp7Y+/zz65UsIjyswD7sXI
6useR1yuJIOmeIp2bZg+xAtBVXSkkeG3nCGpYxG0d1UIW080jAyPftPecls1RzzX
nWqt+QX8FL2NOyZ3grnwoPREjOd0sh+6ec2/dzCvC4MSCKtzbXMacW4N3DIViL20
fEA9idH1l0z8/jb+AyhUEAYlEFqzv8p4Uh74BJt+9MvmvBxmeotvNcIiwxBaMpxV
Ldx5hG25s3bKLShOjH+eexU/0DSFwuTKsuNUO1XGJzHsDmgY7YoixE+XLRZqie0C
UWr0JbrNG0aVS3pzjo6NoeyNk2/DBt5YipRFMCxThONTWI5QMlBigtp38EoSeaM4
8QCjCVYaguYyk9n1i1y8ga91PgD2aNNjrH4Xhq9QZGye2k8GNhqelfcbKMJMm0ug
11etc2nm/xHCqNRAlOciQEmrjAaydXEdPpmJaDJtndFZ8nQ6jW3B1Ft4etJ+uRhl
ww2M/q5HPbconNVQPxRa555B7RhlSStQF1vraWY=
-----END CERTIFICATE-----
