Certificate:
    Data:
        Version: 3 (0x2)
        Serial Number:
            8c:d0:66:db:d0:38:e5:6e:d4:c4:01:b2:41:0b:05:bf
        Signature Algorithm: sha256WithRSAEncryption
        Issuer: C=ES, O=Teleco, CN=Server CA
        Validity
            Not Before: Apr  3 22:16:42 2023 GMT
            Not After : Mar 31 22:16:42 2033 GMT
        Subject: C=ES, O=Teleco, CN=servertls13
        Subject Public Key Info:
            Public Key Algorithm: rsaEncryption
                RSA Public-Key: (1512 bit)
                Modulus:
                    00:95:84:26:b1:58:3f:57:0a:1f:48:a4:5a:ce:01:
                    f8:af:19:81:08:27:f0:98:08:24:a6:4b:ed:2e:9a:
                    43:30:df:b6:ed:4a:a2:8d:93:a1:74:e9:0a:fc:d5:
                    c8:23:c2:3b:b7:e6:fe:3a:18:4a:50:98:e7:f6:31:
                    95:8d:a4:72:aa:e2:78:00:16:55:08:ee:82:ee:92:
                    d6:4e:20:b2:90:3c:aa:1d:6d:ae:01:d1:d4:43:e6:
                    6a:39:c7:45:9a:74:6f:ba:1a:71:a8:5d:a1:b4:c2:
                    20:87:01:79:8d:17:3c:9c:17:fc:31:c5:e1:c1:17:
                    96:b9:ab:57:48:47:4e:b6:4f:40:36:19:d0:30:f7:
                    2d:bd:37:19:08:90:de:c3:9b:dc:04:a3:e7:49:da:
                    e4:cb:c7:7c:0d:86:fe:ae:9c:07:fe:e3:79:13:0b:
                    b9:75:c8:62:96:33:cd:9b:25:45:04:f0:2f:b3:13:
                    5a:85:8a:e2:4b:43:df:b4:8d:c5
                Exponent: 65537 (0x10001)
        X509v3 extensions:
            Authority Information Access: 
                OCSP - URI:http://localhost:9080/

            X509v3 Authority Key Identifier: 
                keyid:E4:FC:75:33:2A:C1:8C:7D:EC:25:D9:A8:CF:F1:7B:44:70:5A:79:9F

            X509v3 Basic Constraints: critical
                CA:FALSE
            X509v3 CRL Distribution Points: 

                Full Name:
                  URI:http://server-ca.Teleco.com/server-ca.crl

            X509v3 Extended Key Usage: 
                TLS Web Client Authentication, TLS Web Server Authentication
            X509v3 Key Usage: critical
                Digital Signature, Key Encipherment
            X509v3 Subject Key Identifier: 
                03:45:05:D2:FA:2D:B3:C1:AB:B1:CC:81:5D:8E:A2:95:CB:E2:2E:8A
    Signature Algorithm: sha256WithRSAEncryption
         23:9a:c9:04:c3:d9:4e:a8:1c:ab:9c:61:65:45:d1:ed:96:2c:
         00:b1:9a:ba:95:43:a2:09:df:a2:54:3f:7b:65:e5:03:29:62:
         60:b1:d7:10:7f:61:e4:04:d7:0e:49:1b:16:f0:99:58:06:b5:
         6a:f0:94:21:02:84:5d:8a:82:f5:2f:dc:2f:0a:d5:31:a7:0c:
         ea:5f:da:e1:df:86:6b:ce:c6:a1:26:c6:9d:9a:73:d1:3f:d8:
         26:69:13:20:ed:60:06:35:67:fc:30:38:8b:d6:57:ac:21:a5:
         e5:66:df:1a:5a:16:15:81:c7:57:57:15:bb:48:7e:5e:8e:cf:
         b6:86:63:a9:55:3c:11:cf:20:e6:2a:2d:65:fd:e4:90:06:f0:
         26:48:51:b5:f2:10:71:bf:5c:bc:f9:83:19:ec:3f:27:cb:4b:
         8d:db:9f:7e:ae:f5:76:26:03:17:cc:37:ab:89:05:ac:26:e5:
         61:2a:d4:48:ee:22:89:3d:99:fe:b2:18:58:4b:c5:c8:ab:9c:
         3c:e0:c7:dd:50:3d:ec:5a:92:37:a3:2d:98:e3:f7:08:d7:22:
         83:eb:6d:31:1e:bd:be:41:e4:fe:bd:9a:70:ab:b8:3e:4c:b5:
         93:6a:9b:06:3a:c9:57:5b:ca:60:2c:95:79:19:77:f3:6a:3a:
         54:15:f5:fc:92:29:f7:43:ac:07:2e:eb:c7:b1:ce:c8:76:39:
         b1:36:a2:83:43:94:9b:ae:15:3b:3c:63:46:7d:b8:fd:e7:ac:
         09:14:91:ec:45:60:a8:a9:83:97:0d:b1:04:f2:26:7e:fd:48:
         86:5a:de:b7:3d:28:6e:f1:d3:2e:10:fc:31:eb:34:23:43:07:
         3d:28:c3:08:31:79:19:e0:a7:e9:2a:1c:bc:41:c6:62:60:e3:
         b2:16:6e:c2:29:d5:1c:5f:24:16:10:a2:78:95:31:97:7d:b8:
         bb:25:ce:f4:60:7b:17:da:e0:c3:53:9c:b0:f0:f1:70:a5:c0:
         ad:d2:38:1e:af:e0:f9:fa:50:72:c6:40:09:17:f9:ca:35:0a:
         11:ce:80:87:5c:1a:ad:66:6d:ee:89:19:68:bd:a3:5b:7e:1b:
         a5:6b:e5:6b:74:36:1a:59:b8:5d:57:05:ce:7d:74:ce:ee:9b:
         8a:e9:91:9b:09:3d:65:50:91:d5:78:45:f2:12:4c:59:36:cb:
         ec:c8:a2:43:38:ee:dc:d2:9a:c9:76:77:08:ee:52:f0:37:1c:
         5f:4d:69:0d:ba:e1:0d:95:aa:3c:9e:df:aa:4c:b7:ee:b1:bb:
         07:8c:d6:d5:00:d8:15:e8:5c:55:b5:53:70:93:e8:41:fd:3a:
         a3:95:56:9f:13:4b:a8:1f
-----BEGIN CERTIFICATE-----
MIIEmzCCAoOgAwIBAgIRAIzQZtvQOOVu1MQBskELBb8wDQYJKoZIhvcNAQELBQAw
MjELMAkGA1UEBhMCRVMxDzANBgNVBAoMBlRlbGVjbzESMBAGA1UEAwwJU2VydmVy
IENBMB4XDTIzMDQwMzIyMTY0MloXDTMzMDMzMTIyMTY0MlowNDELMAkGA1UEBhMC
RVMxDzANBgNVBAoMBlRlbGVjbzEUMBIGA1UEAwwLc2VydmVydGxzMTMwgdwwDQYJ
KoZIhvcNAQEBBQADgcoAMIHGAoG+AJWEJrFYP1cKH0ikWs4B+K8ZgQgn8JgIJKZL
7S6aQzDftu1Koo2ToXTpCvzVyCPCO7fm/joYSlCY5/YxlY2kcqrieAAWVQjugu6S
1k4gspA8qh1trgHR1EPmajnHRZp0b7oacahdobTCIIcBeY0XPJwX/DHF4cEXlrmr
V0hHTrZPQDYZ0DD3Lb03GQiQ3sOb3ASj50na5MvHfA2G/q6cB/7jeRMLuXXIYpYz
zZslRQTwL7MTWoWK4ktD37SNxQIDAQABo4HwMIHtMDIGCCsGAQUFBwEBBCYwJDAi
BggrBgEFBQcwAYYWaHR0cDovL2xvY2FsaG9zdDo5MDgwLzAfBgNVHSMEGDAWgBTk
/HUzKsGMfewl2ajP8XtEcFp5nzAMBgNVHRMBAf8EAjAAMDoGA1UdHwQzMDEwL6At
oCuGKWh0dHA6Ly9zZXJ2ZXItY2EuVGVsZWNvLmNvbS9zZXJ2ZXItY2EuY3JsMB0G
A1UdJQQWMBQGCCsGAQUFBwMCBggrBgEFBQcDATAOBgNVHQ8BAf8EBAMCBaAwHQYD
VR0OBBYEFANFBdL6LbPBq7HMgV2OopXL4i6KMA0GCSqGSIb3DQEBCwUAA4ICAQAj
mskEw9lOqByrnGFlRdHtliwAsZq6lUOiCd+iVD97ZeUDKWJgsdcQf2HkBNcOSRsW
8JlYBrVq8JQhAoRdioL1L9wvCtUxpwzqX9rh34ZrzsahJsadmnPRP9gmaRMg7WAG
NWf8MDiL1lesIaXlZt8aWhYVgcdXVxW7SH5ejs+2hmOpVTwRzyDmKi1l/eSQBvAm
SFG18hBxv1y8+YMZ7D8ny0uN259+rvV2JgMXzDeriQWsJuVhKtRI7iKJPZn+shhY
S8XIq5w84MfdUD3sWpI3oy2Y4/cI1yKD620xHr2+QeT+vZpwq7g+TLWTapsGOslX
W8pgLJV5GXfzajpUFfX8kin3Q6wHLuvHsc7IdjmxNqKDQ5SbrhU7PGNGfbj956wJ
FJHsRWCoqYOXDbEE8iZ+/UiGWt63PShu8dMuEPwx6zQjQwc9KMMIMXkZ4KfpKhy8
QcZiYOOyFm7CKdUcXyQWEKJ4lTGXfbi7Jc70YHsX2uDDU5yw8PFwpcCt0jger+D5
+lByxkAJF/nKNQoRzoCHXBqtZm3uiRlovaNbfhula+VrdDYaWbhdVwXOfXTO7puK
6ZGbCT1lUJHVeEXyEkxZNsvsyKJDOO7c0prJdncI7lLwNxxfTWkNuuENlao8nt+q
TLfusbsHjNbVANgV6FxVtVNwk+hB/TqjlVafE0uoHw==
-----END CERTIFICATE-----
