Certificate:
    Data:
        Version: 3 (0x2)
        Serial Number:
            8c:d0:66:db:d0:38:e5:6e:d4:c4:01:b2:41:0b:05:cd
        Signature Algorithm: sha256WithRSAEncryption
        Issuer: C=ES, O=Teleco, CN=Server CA
        Validity
            Not Before: Apr  5 22:09:55 2023 GMT
            Not After : Apr  2 22:09:55 2033 GMT
        Subject: C=ES, O=Teleco, CN=servertls13
        Subject Public Key Info:
            Public Key Algorithm: rsaEncryption
                RSA Public-Key: (2048 bit)
                Modulus:
                    00:8b:1f:7b:ff:ad:26:22:af:fb:b9:0a:5f:d2:bd:
                    bb:db:70:71:e9:ad:60:1c:d6:95:f4:60:5b:1d:d9:
                    b4:75:3f:1d:cf:a6:d4:4d:3c:b2:58:d7:df:03:1f:
                    60:6c:b4:c2:d8:3f:84:6d:a9:f7:56:bd:8f:8a:52:
                    3a:51:f7:a5:c2:42:80:80:7e:fa:39:fb:43:a6:a1:
                    c6:c8:b4:2e:ed:cd:b7:17:f3:f4:c0:ca:e9:7f:e3:
                    25:e9:16:cf:c4:2b:69:6c:b8:90:ea:cd:f9:cd:f7:
                    94:ad:15:13:93:f0:36:76:d9:b0:43:aa:66:f6:bf:
                    92:86:8a:cd:76:93:9a:e5:5c:fa:f4:b0:5f:13:d0:
                    03:4f:6b:c0:13:d0:08:a6:fd:7e:cc:4f:4b:0d:9f:
                    93:a7:5a:cb:19:96:57:c6:b6:08:ce:91:82:b1:6b:
                    d7:ec:84:8c:59:91:a3:8c:83:9b:c9:7c:b3:e6:15:
                    2d:e0:90:90:22:70:0c:99:da:c9:c9:90:4a:3a:eb:
                    86:3d:7f:c0:b9:8c:89:ef:f9:a0:e9:02:a9:fc:66:
                    0b:23:53:9c:90:46:45:ec:5a:4d:c9:9f:10:01:31:
                    33:79:18:51:d1:0d:bb:55:42:e6:4f:64:f1:4a:0e:
                    96:4c:1b:1c:5e:58:fe:fb:75:d2:30:02:29:60:80:
                    8b:3b
                Exponent: 65537 (0x10001)
        X509v3 extensions:
            Authority Information Access: 
                CA Issuers - URI:http://server-ca.Teleco.com/server-ca.crt
                OCSP - URI:http://ocsp.server-ca.Teleco.com:9080

            X509v3 Authority Key Identifier: 
                keyid:46:D1:59:71:A8:1F:2F:91:13:0E:17:8E:BB:8E:AA:3F:2B:9D:9D:EC

            X509v3 Basic Constraints: critical
                CA:FALSE
            X509v3 CRL Distribution Points: 

                Full Name:
                  URI:http://server-ca.Teleco.com/server-ca.crl

            X509v3 Extended Key Usage: 
                TLS Web Client Authentication, TLS Web Server Authentication
            X509v3 Key Usage: critical
                Digital Signature, Key Encipherment
            X509v3 Subject Key Identifier: 
                B8:14:D7:E0:B3:AE:3D:5D:90:92:10:57:1A:5C:0A:7F:7E:1B:85:D7
    Signature Algorithm: sha256WithRSAEncryption
         66:95:7d:9a:ee:eb:61:8d:74:22:14:fc:f0:42:40:68:fe:89:
         2d:2f:3d:10:39:1c:17:8d:0a:e6:a1:70:6c:be:be:c1:8d:d1:
         3d:8b:b4:ac:25:a3:0a:c0:b6:be:dd:30:a8:35:ae:2b:2b:da:
         00:fb:7f:99:10:e2:d6:d1:bf:91:26:91:d1:2e:b6:0c:ee:6b:
         23:15:a7:d7:37:36:1e:bc:88:1d:eb:14:82:17:2b:6b:68:bb:
         71:a3:87:ef:35:40:4f:11:02:bf:f4:48:1d:bb:e5:93:80:61:
         13:76:4d:21:7e:bd:ec:6b:7b:3e:b7:16:2a:87:d3:b6:3b:d5:
         aa:0f:c8:03:8c:ac:25:ee:12:7a:83:0e:a6:15:40:42:2a:84:
         dc:bc:7f:39:7d:22:d9:a8:86:ce:bb:ca:b9:3e:2e:af:61:29:
         22:96:a9:05:f1:b9:7d:66:8c:ba:39:fd:2e:20:a1:95:43:fe:
         53:2b:7f:31:c8:c5:2b:70:ec:bc:a0:79:5f:d1:df:17:8b:76:
         95:17:3b:ef:b8:6a:95:19:60:be:a0:5a:ad:8a:13:8f:ef:19:
         88:6b:d8:4e:9c:8c:3d:db:09:53:80:5f:f2:51:72:8c:e8:01:
         d4:66:fa:df:e3:cc:aa:8b:e9:10:27:22:3a:3e:bc:00:97:f1:
         fa:00:a6:f9:a8:ee:c2:f9:53:fe:ac:cb:7f:8d:92:aa:0f:d9:
         12:ec:47:dd:7f:69:77:bc:52:1c:75:20:98:67:5f:5b:bc:f2:
         7e:ae:fd:af:12:f7:e7:d8:06:5e:53:e2:4e:99:dc:35:10:58:
         66:10:8a:ff:e6:6b:49:c7:f7:7a:48:16:d7:b8:ae:85:21:09:
         09:bf:5a:55:22:84:0c:e9:71:a2:41:12:be:d8:6f:d0:da:a9:
         d3:ec:3f:f2:53:0e:26:cb:94:2c:d7:2e:f0:f3:de:d9:02:bd:
         cb:4e:7b:60:04:29:5f:f9:7a:a9:83:9a:95:3e:ce:10:a0:da:
         70:b0:2e:4e:3f:cb:40:19:3a:c7:35:b2:bb:da:42:71:dd:c0:
         00:9d:53:67:8f:c8:d8:08:47:96:54:ad:d2:85:b6:5d:a9:49:
         ac:a6:01:94:75:34:ce:42:78:77:78:ee:e5:4c:27:a5:1c:25:
         11:31:0b:fc:2f:a3:50:f8:dc:d3:52:0e:1c:7a:51:b9:a6:bf:
         9e:52:40:b6:9d:cf:0a:4e:b6:bb:67:2b:57:1d:33:ff:7c:26:
         50:b4:ac:64:6e:b5:33:52:36:02:83:50:66:20:ff:f7:d1:79:
         23:4d:a1:de:03:96:a6:40:41:5b:6c:b8:e5:de:6a:7e:c0:9e:
         42:39:6b:dc:cc:e4:3b:d6
-----BEGIN CERTIFICATE-----
MIIFKjCCAxKgAwIBAgIRAIzQZtvQOOVu1MQBskELBc0wDQYJKoZIhvcNAQELBQAw
MjELMAkGA1UEBhMCRVMxDzANBgNVBAoMBlRlbGVjbzESMBAGA1UEAwwJU2VydmVy
IENBMB4XDTIzMDQwNTIyMDk1NVoXDTMzMDQwMjIyMDk1NVowNDELMAkGA1UEBhMC
RVMxDzANBgNVBAoMBlRlbGVjbzEUMBIGA1UEAwwLc2VydmVydGxzMTMwggEiMA0G
CSqGSIb3DQEBAQUAA4IBDwAwggEKAoIBAQCLH3v/rSYir/u5Cl/SvbvbcHHprWAc
1pX0YFsd2bR1Px3PptRNPLJY198DH2BstMLYP4RtqfdWvY+KUjpR96XCQoCAfvo5
+0OmocbItC7tzbcX8/TAyul/4yXpFs/EK2lsuJDqzfnN95StFROT8DZ22bBDqmb2
v5KGis12k5rlXPr0sF8T0ANPa8AT0Aim/X7MT0sNn5OnWssZllfGtgjOkYKxa9fs
hIxZkaOMg5vJfLPmFS3gkJAicAyZ2snJkEo664Y9f8C5jInv+aDpAqn8ZgsjU5yQ
RkXsWk3JnxABMTN5GFHRDbtVQuZPZPFKDpZMGxxeWP77ddIwAilggIs7AgMBAAGj
ggE3MIIBMzB4BggrBgEFBQcBAQRsMGowNQYIKwYBBQUHMAKGKWh0dHA6Ly9zZXJ2
ZXItY2EuVGVsZWNvLmNvbS9zZXJ2ZXItY2EuY3J0MDEGCCsGAQUFBzABhiVodHRw
Oi8vb2NzcC5zZXJ2ZXItY2EuVGVsZWNvLmNvbTo5MDgwMB8GA1UdIwQYMBaAFEbR
WXGoHy+REw4XjruOqj8rnZ3sMAwGA1UdEwEB/wQCMAAwOgYDVR0fBDMwMTAvoC2g
K4YpaHR0cDovL3NlcnZlci1jYS5UZWxlY28uY29tL3NlcnZlci1jYS5jcmwwHQYD
VR0lBBYwFAYIKwYBBQUHAwIGCCsGAQUFBwMBMA4GA1UdDwEB/wQEAwIFoDAdBgNV
HQ4EFgQUuBTX4LOuPV2QkhBXGlwKf34bhdcwDQYJKoZIhvcNAQELBQADggIBAGaV
fZru62GNdCIU/PBCQGj+iS0vPRA5HBeNCuahcGy+vsGN0T2LtKwlowrAtr7dMKg1
risr2gD7f5kQ4tbRv5EmkdEutgzuayMVp9c3Nh68iB3rFIIXK2tou3Gjh+81QE8R
Ar/0SB275ZOAYRN2TSF+vexrez63FiqH07Y71aoPyAOMrCXuEnqDDqYVQEIqhNy8
fzl9Itmohs67yrk+Lq9hKSKWqQXxuX1mjLo5/S4goZVD/lMrfzHIxStw7LygeV/R
3xeLdpUXO++4apUZYL6gWq2KE4/vGYhr2E6cjD3bCVOAX/JRcozoAdRm+t/jzKqL
6RAnIjo+vACX8foApvmo7sL5U/6sy3+NkqoP2RLsR91/aXe8Uhx1IJhnX1u88n6u
/a8S9+fYBl5T4k6Z3DUQWGYQiv/ma0nH93pIFte4roUhCQm/WlUihAzpcaJBEr7Y
b9DaqdPsP/JTDibLlCzXLvDz3tkCvctOe2AEKV/5eqmDmpU+zhCg2nCwLk4/y0AZ
Osc1srvaQnHdwACdU2ePyNgIR5ZUrdKFtl2pSaymAZR1NM5CeHd47uVMJ6UcJREx
C/wvo1D43NNSDhx6Ubmmv55SQLadzwpOtrtnK1cdM/98JlC0rGRutTNSNgKDUGYg
//fReSNNod4DlqZAQVtsuOXean7AnkI5a9zM5DvW
-----END CERTIFICATE-----
