Certificate:
    Data:
        Version: 3 (0x2)
        Serial Number:
            8c:d0:66:db:d0:38:e5:6e:d4:c4:01:b2:41:0b:05:c5
        Signature Algorithm: sha256WithRSAEncryption
        Issuer: C=ES, O=Teleco, CN=Server CA
        Validity
            Not Before: Apr  4 14:52:07 2023 GMT
            Not After : Apr  1 14:52:07 2033 GMT
        Subject: C=ES, O=Teleco, CN=servertls13
        Subject Public Key Info:
            Public Key Algorithm: rsaEncryption
                RSA Public-Key: (2048 bit)
                Modulus:
                    00:8b:1f:7b:ff:ad:26:22:af:fb:b9:0a:5f:d2:bd:
                    bb:db:70:71:e9:ad:60:1c:d6:95:f4:60:5b:1d:d9:
                    b4:75:3f:1d:cf:a6:d4:4d:3c:b2:58:d7:df:03:1f:
                    60:6c:b4:c2:d8:3f:84:6d:a9:f7:56:bd:8f:8a:52:
                    3a:51:f7:a5:c2:42:80:80:7e:fa:39:fb:43:a6:a1:
                    c6:c8:b4:2e:ed:cd:b7:17:f3:f4:c0:ca:e9:7f:e3:
                    25:e9:16:cf:c4:2b:69:6c:b8:90:ea:cd:f9:cd:f7:
                    94:ad:15:13:93:f0:36:76:d9:b0:43:aa:66:f6:bf:
                    92:86:8a:cd:76:93:9a:e5:5c:fa:f4:b0:5f:13:d0:
                    03:4f:6b:c0:13:d0:08:a6:fd:7e:cc:4f:4b:0d:9f:
                    93:a7:5a:cb:19:96:57:c6:b6:08:ce:91:82:b1:6b:
                    d7:ec:84:8c:59:91:a3:8c:83:9b:c9:7c:b3:e6:15:
                    2d:e0:90:90:22:70:0c:99:da:c9:c9:90:4a:3a:eb:
                    86:3d:7f:c0:b9:8c:89:ef:f9:a0:e9:02:a9:fc:66:
                    0b:23:53:9c:90:46:45:ec:5a:4d:c9:9f:10:01:31:
                    33:79:18:51:d1:0d:bb:55:42:e6:4f:64:f1:4a:0e:
                    96:4c:1b:1c:5e:58:fe:fb:75:d2:30:02:29:60:80:
                    8b:3b
                Exponent: 65537 (0x10001)
        X509v3 extensions:
            Authority Information Access: 
                OCSP - URI:http://localhost:9080/

            X509v3 Authority Key Identifier: 
                keyid:21:9A:D7:40:94:17:FD:73:63:58:AE:F8:6A:CB:55:50:A7:38:D4:59

            X509v3 Basic Constraints: critical
                CA:FALSE
            X509v3 CRL Distribution Points: 

                Full Name:
                  URI:http://server-ca.Teleco.com/server-ca.crl

            X509v3 Extended Key Usage: 
                TLS Web Client Authentication, TLS Web Server Authentication, OCSP Signing
            X509v3 Key Usage: critical
                Digital Signature, Key Encipherment
            X509v3 Subject Key Identifier: 
                B8:14:D7:E0:B3:AE:3D:5D:90:92:10:57:1A:5C:0A:7F:7E:1B:85:D7
    Signature Algorithm: sha256WithRSAEncryption
         a5:0a:be:14:c6:54:f8:58:4b:76:d4:e6:dd:84:23:e1:23:32:
         15:ee:43:12:49:f7:9b:82:85:4a:42:af:70:6e:67:da:5f:16:
         6c:8d:7e:7b:d9:16:9a:2a:37:0b:49:ec:2d:6b:8a:77:f7:74:
         59:84:c6:c1:39:9b:b2:1e:fe:58:a6:f6:ee:2e:2d:fb:31:4f:
         d3:ed:de:1b:da:8d:f6:93:ad:ae:41:2c:62:ee:b8:a6:19:d2:
         1e:ed:92:21:b0:65:4c:c0:87:d3:b0:53:6f:ea:66:0e:16:71:
         dd:44:47:b4:63:5c:d5:24:ad:e1:66:b1:07:7e:26:c4:61:51:
         02:96:2f:33:16:91:68:ab:59:75:87:51:b1:fa:e0:ee:82:3c:
         ce:96:72:56:90:c3:d5:f5:fc:12:6b:d0:d2:22:10:e6:52:a2:
         93:69:30:a2:6a:61:39:40:49:24:36:0a:b7:5e:2c:12:75:be:
         f0:b7:4d:95:2a:8d:b6:bc:e4:41:e8:24:98:9c:d7:d2:bf:81:
         f1:6a:f8:01:11:65:21:e1:7c:49:04:05:32:6f:b3:b5:4e:5e:
         89:3b:b5:9e:8a:d4:fb:d3:8a:fe:55:54:22:52:93:1c:01:e0:
         00:66:46:b6:ea:d5:21:e4:52:26:6a:25:51:76:67:29:86:0f:
         c3:c0:73:77:ae:5e:a4:dc:b1:94:2b:de:b5:6b:88:51:37:18:
         d7:10:ea:7f:59:09:b4:cb:06:f9:5d:06:12:93:03:c3:74:c3:
         0e:d8:81:83:c7:59:a4:7e:09:51:e5:79:a9:b5:b1:31:a9:ba:
         8a:21:ed:9d:e1:2d:8d:9e:7a:4f:c9:1d:96:68:b2:10:a1:17:
         41:69:c7:f2:ac:f6:24:5f:fc:7d:3c:56:c0:64:1d:9e:fd:5b:
         c6:50:d1:3e:84:85:59:c4:3f:f4:96:26:41:5d:ca:cf:69:30:
         27:cf:29:68:af:67:05:2b:f9:7c:0c:21:19:cd:22:da:90:16:
         d4:02:f1:55:42:8f:1d:95:c4:31:9e:d7:a3:e0:15:fb:9a:b7:
         c7:74:04:fa:75:c3:59:4e:b2:ab:6b:86:58:a3:d7:13:a6:0d:
         68:a5:b2:80:de:1b:a2:f5:f2:70:68:4f:6d:f4:b3:b2:d2:5a:
         8e:02:5c:d5:19:e8:3f:c7:75:45:31:c2:96:63:bd:c6:a8:29:
         f5:c6:22:ce:a5:ec:82:d8:38:04:cd:25:56:e2:26:8e:9a:d1:
         f5:69:65:2a:dc:ac:57:49:ec:9d:0d:e8:d1:d0:35:32:b5:e0:
         8f:b1:ab:6e:28:76:d5:f5:4f:26:6d:40:57:45:95:c0:bc:6c:
         a3:f0:0f:8d:cd:7e:70:fa
-----BEGIN CERTIFICATE-----
MIIE7DCCAtSgAwIBAgIRAIzQZtvQOOVu1MQBskELBcUwDQYJKoZIhvcNAQELBQAw
MjELMAkGA1UEBhMCRVMxDzANBgNVBAoMBlRlbGVjbzESMBAGA1UEAwwJU2VydmVy
IENBMB4XDTIzMDQwNDE0NTIwN1oXDTMzMDQwMTE0NTIwN1owNDELMAkGA1UEBhMC
RVMxDzANBgNVBAoMBlRlbGVjbzEUMBIGA1UEAwwLc2VydmVydGxzMTMwggEiMA0G
CSqGSIb3DQEBAQUAA4IBDwAwggEKAoIBAQCLH3v/rSYir/u5Cl/SvbvbcHHprWAc
1pX0YFsd2bR1Px3PptRNPLJY198DH2BstMLYP4RtqfdWvY+KUjpR96XCQoCAfvo5
+0OmocbItC7tzbcX8/TAyul/4yXpFs/EK2lsuJDqzfnN95StFROT8DZ22bBDqmb2
v5KGis12k5rlXPr0sF8T0ANPa8AT0Aim/X7MT0sNn5OnWssZllfGtgjOkYKxa9fs
hIxZkaOMg5vJfLPmFS3gkJAicAyZ2snJkEo664Y9f8C5jInv+aDpAqn8ZgsjU5yQ
RkXsWk3JnxABMTN5GFHRDbtVQuZPZPFKDpZMGxxeWP77ddIwAilggIs7AgMBAAGj
gfowgfcwMgYIKwYBBQUHAQEEJjAkMCIGCCsGAQUFBzABhhZodHRwOi8vbG9jYWxo
b3N0OjkwODAvMB8GA1UdIwQYMBaAFCGa10CUF/1zY1iu+GrLVVCnONRZMAwGA1Ud
EwEB/wQCMAAwOgYDVR0fBDMwMTAvoC2gK4YpaHR0cDovL3NlcnZlci1jYS5UZWxl
Y28uY29tL3NlcnZlci1jYS5jcmwwJwYDVR0lBCAwHgYIKwYBBQUHAwIGCCsGAQUF
BwMBBggrBgEFBQcDCTAOBgNVHQ8BAf8EBAMCBaAwHQYDVR0OBBYEFLgU1+Czrj1d
kJIQVxpcCn9+G4XXMA0GCSqGSIb3DQEBCwUAA4ICAQClCr4UxlT4WEt21ObdhCPh
IzIV7kMSSfebgoVKQq9wbmfaXxZsjX572RaaKjcLSewta4p393RZhMbBOZuyHv5Y
pvbuLi37MU/T7d4b2o32k62uQSxi7rimGdIe7ZIhsGVMwIfTsFNv6mYOFnHdREe0
Y1zVJK3hZrEHfibEYVECli8zFpFoq1l1h1Gx+uDugjzOlnJWkMPV9fwSa9DSIhDm
UqKTaTCiamE5QEkkNgq3XiwSdb7wt02VKo22vORB6CSYnNfSv4HxavgBEWUh4XxJ
BAUyb7O1Tl6JO7WeitT704r+VVQiUpMcAeAAZka26tUh5FImaiVRdmcphg/DwHN3
rl6k3LGUK961a4hRNxjXEOp/WQm0ywb5XQYSkwPDdMMO2IGDx1mkfglR5XmptbEx
qbqKIe2d4S2NnnpPyR2WaLIQoRdBacfyrPYkX/x9PFbAZB2e/VvGUNE+hIVZxD/0
liZBXcrPaTAnzylor2cFK/l8DCEZzSLakBbUAvFVQo8dlcQxntej4BX7mrfHdAT6
dcNZTrKra4ZYo9cTpg1opbKA3hui9fJwaE9t9LOy0lqOAlzVGeg/x3VFMcKWY73G
qCn1xiLOpeyC2DgEzSVW4iaOmtH1aWUq3KxXSeydDejR0DUyteCPsatuKHbV9U8m
bUBXRZXAvGyj8A+NzX5w+g==
-----END CERTIFICATE-----
