Certificate:
    Data:
        Version: 3 (0x2)
        Serial Number:
            8c:d0:66:db:d0:38:e5:6e:d4:c4:01:b2:41:0b:05:bc
        Signature Algorithm: sha256WithRSAEncryption
        Issuer: C=ES, O=Teleco, CN=Server CA
        Validity
            Not Before: Apr  3 16:05:23 2023 GMT
            Not After : Apr  2 16:05:23 2024 GMT
        Subject: C=ES, O=Teleco, CN=servertls13
        Subject Public Key Info:
            Public Key Algorithm: rsaEncryption
                RSA Public-Key: (2048 bit)
                Modulus:
                    00:8b:1f:7b:ff:ad:26:22:af:fb:b9:0a:5f:d2:bd:
                    bb:db:70:71:e9:ad:60:1c:d6:95:f4:60:5b:1d:d9:
                    b4:75:3f:1d:cf:a6:d4:4d:3c:b2:58:d7:df:03:1f:
                    60:6c:b4:c2:d8:3f:84:6d:a9:f7:56:bd:8f:8a:52:
                    3a:51:f7:a5:c2:42:80:80:7e:fa:39:fb:43:a6:a1:
                    c6:c8:b4:2e:ed:cd:b7:17:f3:f4:c0:ca:e9:7f:e3:
                    25:e9:16:cf:c4:2b:69:6c:b8:90:ea:cd:f9:cd:f7:
                    94:ad:15:13:93:f0:36:76:d9:b0:43:aa:66:f6:bf:
                    92:86:8a:cd:76:93:9a:e5:5c:fa:f4:b0:5f:13:d0:
                    03:4f:6b:c0:13:d0:08:a6:fd:7e:cc:4f:4b:0d:9f:
                    93:a7:5a:cb:19:96:57:c6:b6:08:ce:91:82:b1:6b:
                    d7:ec:84:8c:59:91:a3:8c:83:9b:c9:7c:b3:e6:15:
                    2d:e0:90:90:22:70:0c:99:da:c9:c9:90:4a:3a:eb:
                    86:3d:7f:c0:b9:8c:89:ef:f9:a0:e9:02:a9:fc:66:
                    0b:23:53:9c:90:46:45:ec:5a:4d:c9:9f:10:01:31:
                    33:79:18:51:d1:0d:bb:55:42:e6:4f:64:f1:4a:0e:
                    96:4c:1b:1c:5e:58:fe:fb:75:d2:30:02:29:60:80:
                    8b:3b
                Exponent: 65537 (0x10001)
        X509v3 extensions:
            Authority Information Access: 
                OCSP - URI:http://localhost:9080/

            X509v3 Authority Key Identifier: 
                keyid:B9:0F:28:6B:E6:58:8D:64:D8:20:D6:F6:44:BD:5B:45:59:1B:74:2D

            X509v3 Basic Constraints: critical
                CA:FALSE
            X509v3 CRL Distribution Points: 

                Full Name:
                  URI:http://server-ca.Teleco.com/server-ca.crl

            X509v3 Extended Key Usage: 
                TLS Web Client Authentication, TLS Web Server Authentication
            X509v3 Key Usage: critical
                Digital Signature, Key Encipherment
            X509v3 Subject Key Identifier: 
                B8:14:D7:E0:B3:AE:3D:5D:90:92:10:57:1A:5C:0A:7F:7E:1B:85:D7
            X509v3 Subject Alternative Name: 
                DNS:servertls13
    Signature Algorithm: sha256WithRSAEncryption
         7a:4b:31:04:1b:8f:af:f1:88:85:9c:90:55:cf:1b:1f:d3:da:
         6e:55:14:15:8c:aa:14:c6:2b:78:be:59:b5:55:c8:84:a4:a3:
         ed:a7:85:fd:1d:65:85:36:15:12:76:ad:ba:8a:69:ca:3b:b1:
         9f:b0:eb:54:58:f2:18:04:32:df:e4:42:b2:46:6c:38:e3:1e:
         30:f6:8f:9f:eb:24:52:4a:12:2e:2a:66:85:a5:d5:33:b7:0e:
         4e:01:4f:35:e0:4a:fa:d0:d2:6a:57:e8:db:1c:a5:69:de:b0:
         85:c7:19:01:ee:5c:37:d0:e3:ba:81:2e:44:84:d0:ca:0b:d0:
         30:92:d2:c6:40:e5:6c:a8:8c:b3:85:c1:0b:10:d5:88:d3:29:
         04:f1:ab:f8:4b:c1:1b:90:a5:1a:89:91:16:30:95:3b:66:31:
         a0:13:bc:48:6c:3c:6a:e9:fb:57:e0:24:90:8c:61:35:d7:f2:
         bf:23:1f:af:2c:85:07:f8:05:4a:f7:5b:ca:aa:53:4d:22:e4:
         79:03:a1:06:0e:67:f9:aa:f6:01:21:7b:92:68:41:e2:bb:b8:
         e1:39:6c:58:00:9e:3b:e4:e4:fc:eb:0a:9b:8d:e7:64:4f:e6:
         86:d7:05:3a:4e:e3:92:eb:1a:85:8b:04:1d:66:0a:15:e3:50:
         b8:06:de:be:ec:78:c3:c8:ab:f2:e8:aa:70:d9:be:47:39:90:
         30:52:a4:42:bc:8f:5f:47:7c:ef:ad:0e:16:ad:a5:97:8e:63:
         fd:4d:95:95:b8:56:f9:c7:b3:23:58:74:34:25:51:85:84:e1:
         c3:4f:d9:7d:dc:94:81:83:b8:38:85:39:c6:75:04:d8:57:ba:
         09:51:22:59:63:12:15:cd:af:07:ef:40:6d:f6:53:57:a5:33:
         33:71:a1:37:ab:f0:e1:58:9d:18:65:31:3f:94:b9:44:16:51:
         fd:06:13:e0:c0:4b:dc:3c:5a:f0:e4:1e:76:5a:5d:7d:f2:a2:
         2b:88:b3:f9:b7:da:48:14:ca:58:56:9b:e0:af:d3:ac:f4:72:
         1d:48:c6:58:49:a9:6a:ca:28:55:b3:95:32:29:11:39:3d:18:
         d0:b6:ae:d1:6c:8b:20:ac:93:12:66:f2:1b:10:09:32:11:fc:
         ed:4c:ab:f3:31:45:d5:81:6a:85:80:44:37:3e:6b:3b:46:c1:
         bd:55:3b:06:16:c9:d3:2d:29:30:61:6b:aa:11:6b:05:fc:97:
         84:f7:98:fb:41:57:3e:7f:04:65:fa:5b:31:da:6a:6f:79:09:
         2b:5a:08:d7:7c:5f:b9:48:ca:8a:a4:6b:ca:32:0a:7d:ea:b0:
         e1:ac:b6:c8:c1:04:08:d4
-----BEGIN CERTIFICATE-----
MIIE/DCCAuSgAwIBAgIRAIzQZtvQOOVu1MQBskELBbwwDQYJKoZIhvcNAQELBQAw
MjELMAkGA1UEBhMCRVMxDzANBgNVBAoMBlRlbGVjbzESMBAGA1UEAwwJU2VydmVy
IENBMB4XDTIzMDQwMzE2MDUyM1oXDTI0MDQwMjE2MDUyM1owNDELMAkGA1UEBhMC
RVMxDzANBgNVBAoMBlRlbGVjbzEUMBIGA1UEAwwLc2VydmVydGxzMTMwggEiMA0G
CSqGSIb3DQEBAQUAA4IBDwAwggEKAoIBAQCLH3v/rSYir/u5Cl/SvbvbcHHprWAc
1pX0YFsd2bR1Px3PptRNPLJY198DH2BstMLYP4RtqfdWvY+KUjpR96XCQoCAfvo5
+0OmocbItC7tzbcX8/TAyul/4yXpFs/EK2lsuJDqzfnN95StFROT8DZ22bBDqmb2
v5KGis12k5rlXPr0sF8T0ANPa8AT0Aim/X7MT0sNn5OnWssZllfGtgjOkYKxa9fs
hIxZkaOMg5vJfLPmFS3gkJAicAyZ2snJkEo664Y9f8C5jInv+aDpAqn8ZgsjU5yQ
RkXsWk3JnxABMTN5GFHRDbtVQuZPZPFKDpZMGxxeWP77ddIwAilggIs7AgMBAAGj
ggEJMIIBBTAyBggrBgEFBQcBAQQmMCQwIgYIKwYBBQUHMAGGFmh0dHA6Ly9sb2Nh
bGhvc3Q6OTA4MC8wHwYDVR0jBBgwFoAUuQ8oa+ZYjWTYINb2RL1bRVkbdC0wDAYD
VR0TAQH/BAIwADA6BgNVHR8EMzAxMC+gLaArhilodHRwOi8vc2VydmVyLWNhLlRl
bGVjby5jb20vc2VydmVyLWNhLmNybDAdBgNVHSUEFjAUBggrBgEFBQcDAgYIKwYB
BQUHAwEwDgYDVR0PAQH/BAQDAgWgMB0GA1UdDgQWBBS4FNfgs649XZCSEFcaXAp/
fhuF1zAWBgNVHREEDzANggtzZXJ2ZXJ0bHMxMzANBgkqhkiG9w0BAQsFAAOCAgEA
eksxBBuPr/GIhZyQVc8bH9PablUUFYyqFMYreL5ZtVXIhKSj7aeF/R1lhTYVEnat
uoppyjuxn7DrVFjyGAQy3+RCskZsOOMeMPaPn+skUkoSLipmhaXVM7cOTgFPNeBK
+tDSalfo2xylad6whccZAe5cN9DjuoEuRITQygvQMJLSxkDlbKiMs4XBCxDViNMp
BPGr+EvBG5ClGomRFjCVO2YxoBO8SGw8aun7V+AkkIxhNdfyvyMfryyFB/gFSvdb
yqpTTSLkeQOhBg5n+ar2ASF7kmhB4ru44TlsWACeO+Tk/OsKm43nZE/mhtcFOk7j
kusahYsEHWYKFeNQuAbevux4w8ir8uiqcNm+RzmQMFKkQryPX0d8760OFq2ll45j
/U2VlbhW+cezI1h0NCVRhYThw0/ZfdyUgYO4OIU5xnUE2Fe6CVEiWWMSFc2vB+9A
bfZTV6UzM3GhN6vw4VidGGUxP5S5RBZR/QYT4MBL3Dxa8OQedlpdffKiK4iz+bfa
SBTKWFab4K/TrPRyHUjGWEmpasooVbOVMikROT0Y0Lau0WyLIKyTEmbyGxAJMhH8
7Uyr8zFF1YFqhYBENz5rO0bBvVU7BhbJ0y0pMGFrqhFrBfyXhPeY+0FXPn8EZfpb
Mdpqb3kJK1oI13xfuUjKiqRryjIKfeqw4ay2yMEECNQ=
-----END CERTIFICATE-----
