Certificate:
    Data:
        Version: 3 (0x2)
        Serial Number:
            8c:d0:66:db:d0:38:e5:6e:d4:c4:01:b2:41:0b:05:c6
        Signature Algorithm: sha256WithRSAEncryption
        Issuer: C=ES, O=Teleco, CN=Server CA
        Validity
            Not Before: Apr  4 15:05:42 2023 GMT
            Not After : Apr  1 15:05:42 2033 GMT
        Subject: C=ES, O=Teleco, CN=servertls13
        Subject Public Key Info:
            Public Key Algorithm: rsaEncryption
                RSA Public-Key: (2048 bit)
                Modulus:
                    00:8b:1f:7b:ff:ad:26:22:af:fb:b9:0a:5f:d2:bd:
                    bb:db:70:71:e9:ad:60:1c:d6:95:f4:60:5b:1d:d9:
                    b4:75:3f:1d:cf:a6:d4:4d:3c:b2:58:d7:df:03:1f:
                    60:6c:b4:c2:d8:3f:84:6d:a9:f7:56:bd:8f:8a:52:
                    3a:51:f7:a5:c2:42:80:80:7e:fa:39:fb:43:a6:a1:
                    c6:c8:b4:2e:ed:cd:b7:17:f3:f4:c0:ca:e9:7f:e3:
                    25:e9:16:cf:c4:2b:69:6c:b8:90:ea:cd:f9:cd:f7:
                    94:ad:15:13:93:f0:36:76:d9:b0:43:aa:66:f6:bf:
                    92:86:8a:cd:76:93:9a:e5:5c:fa:f4:b0:5f:13:d0:
                    03:4f:6b:c0:13:d0:08:a6:fd:7e:cc:4f:4b:0d:9f:
                    93:a7:5a:cb:19:96:57:c6:b6:08:ce:91:82:b1:6b:
                    d7:ec:84:8c:59:91:a3:8c:83:9b:c9:7c:b3:e6:15:
                    2d:e0:90:90:22:70:0c:99:da:c9:c9:90:4a:3a:eb:
                    86:3d:7f:c0:b9:8c:89:ef:f9:a0:e9:02:a9:fc:66:
                    0b:23:53:9c:90:46:45:ec:5a:4d:c9:9f:10:01:31:
                    33:79:18:51:d1:0d:bb:55:42:e6:4f:64:f1:4a:0e:
                    96:4c:1b:1c:5e:58:fe:fb:75:d2:30:02:29:60:80:
                    8b:3b
                Exponent: 65537 (0x10001)
        X509v3 extensions:
            Authority Information Access: 
                OCSP - URI:http://localhost:9080/

            X509v3 Authority Key Identifier: 
                keyid:D0:0F:03:63:55:5A:96:94:DA:FA:8E:B1:39:C3:F2:A5:E2:1B:37:EB

            X509v3 Basic Constraints: critical
                CA:FALSE
            X509v3 CRL Distribution Points: 

                Full Name:
                  URI:http://server-ca.Teleco.com/server-ca.crl

            X509v3 Extended Key Usage: 
                TLS Web Client Authentication, TLS Web Server Authentication, OCSP Signing
            X509v3 Key Usage: critical
                Digital Signature, Key Encipherment
            X509v3 Subject Key Identifier: 
                B8:14:D7:E0:B3:AE:3D:5D:90:92:10:57:1A:5C:0A:7F:7E:1B:85:D7
    Signature Algorithm: sha256WithRSAEncryption
         8d:ef:42:b1:67:7f:b1:4f:d7:4d:f4:2a:1a:93:43:e3:26:f9:
         05:79:31:84:7d:30:bf:27:54:2f:e5:6b:e1:56:f9:d9:6a:3d:
         d3:22:56:fc:a0:cb:cf:74:92:11:6d:bc:2b:7c:62:57:ed:d4:
         e0:92:58:69:42:fe:b9:ae:6f:ed:98:4c:d8:6c:ab:9a:5d:d5:
         21:e4:89:5a:49:c3:d6:f2:55:83:d0:72:5a:7d:da:9d:9b:92:
         47:fc:38:52:e9:d0:e4:92:b0:a9:c9:62:e3:ba:4e:69:88:8d:
         4d:1e:14:6a:03:7a:86:b8:c0:4c:a9:d7:68:00:36:99:87:61:
         e0:60:d4:5d:88:53:78:4e:e0:11:73:6c:b3:b3:42:82:fa:c3:
         f7:74:32:8d:db:8f:76:6b:70:32:4a:b4:c3:a9:2e:6f:55:19:
         31:c3:20:69:e7:71:d5:14:23:ac:38:2b:7f:2d:f5:c8:3a:52:
         fd:c4:2a:c5:2a:75:9a:32:a0:6f:89:33:57:a4:6d:db:92:70:
         fa:52:21:4e:df:bb:f0:bf:7d:70:92:da:f9:f4:ea:72:20:ca:
         c6:22:6b:f5:30:4f:5d:32:a9:76:a1:f2:dd:25:4f:c9:1b:14:
         7a:e7:f4:cf:7a:df:2d:75:ec:2b:5e:77:d0:10:23:bc:23:5b:
         e5:0c:45:06:80:fa:76:11:9d:1d:49:b2:57:10:ce:a5:94:4b:
         7b:23:98:9e:dc:ac:e2:29:76:4b:4f:92:3e:dd:92:2c:21:61:
         63:7b:65:68:de:e2:8c:b1:b7:13:3c:f0:99:66:72:89:d8:12:
         e3:06:75:1a:bc:b1:78:71:31:cd:4e:78:ca:b3:2b:68:9b:a1:
         ab:e1:df:59:41:fa:23:75:50:d4:31:f3:e5:c8:47:07:00:11:
         59:5c:8c:21:5a:8e:cd:56:66:96:75:18:3b:e0:40:88:fc:08:
         41:3e:14:8f:55:de:be:82:de:ea:cb:c4:cb:1b:aa:7e:18:fe:
         ff:04:44:50:ce:fe:cd:49:f3:b8:4c:9d:3d:91:d9:aa:26:0d:
         e6:1c:0c:84:a4:d0:3d:d6:1e:92:19:10:e6:40:89:dd:39:0a:
         cd:62:23:10:59:1f:2d:bc:6c:3d:4a:a3:58:68:1b:37:07:67:
         2b:fd:37:e4:46:8c:7c:e8:9b:e9:51:63:a3:ba:ac:fc:32:76:
         38:79:97:e5:85:48:95:9b:ee:66:a7:9b:62:c0:23:68:04:8d:
         ea:df:3f:e0:ab:23:53:34:76:21:a2:9a:36:47:20:10:76:96:
         0d:3f:d3:06:a4:1a:66:32:e5:49:74:52:e4:f3:68:02:b6:36:
         0b:30:53:57:62:52:c2:f7
-----BEGIN CERTIFICATE-----
MIIE7DCCAtSgAwIBAgIRAIzQZtvQOOVu1MQBskELBcYwDQYJKoZIhvcNAQELBQAw
MjELMAkGA1UEBhMCRVMxDzANBgNVBAoMBlRlbGVjbzESMBAGA1UEAwwJU2VydmVy
IENBMB4XDTIzMDQwNDE1MDU0MloXDTMzMDQwMTE1MDU0MlowNDELMAkGA1UEBhMC
RVMxDzANBgNVBAoMBlRlbGVjbzEUMBIGA1UEAwwLc2VydmVydGxzMTMwggEiMA0G
CSqGSIb3DQEBAQUAA4IBDwAwggEKAoIBAQCLH3v/rSYir/u5Cl/SvbvbcHHprWAc
1pX0YFsd2bR1Px3PptRNPLJY198DH2BstMLYP4RtqfdWvY+KUjpR96XCQoCAfvo5
+0OmocbItC7tzbcX8/TAyul/4yXpFs/EK2lsuJDqzfnN95StFROT8DZ22bBDqmb2
v5KGis12k5rlXPr0sF8T0ANPa8AT0Aim/X7MT0sNn5OnWssZllfGtgjOkYKxa9fs
hIxZkaOMg5vJfLPmFS3gkJAicAyZ2snJkEo664Y9f8C5jInv+aDpAqn8ZgsjU5yQ
RkXsWk3JnxABMTN5GFHRDbtVQuZPZPFKDpZMGxxeWP77ddIwAilggIs7AgMBAAGj
gfowgfcwMgYIKwYBBQUHAQEEJjAkMCIGCCsGAQUFBzABhhZodHRwOi8vbG9jYWxo
b3N0OjkwODAvMB8GA1UdIwQYMBaAFNAPA2NVWpaU2vqOsTnD8qXiGzfrMAwGA1Ud
EwEB/wQCMAAwOgYDVR0fBDMwMTAvoC2gK4YpaHR0cDovL3NlcnZlci1jYS5UZWxl
Y28uY29tL3NlcnZlci1jYS5jcmwwJwYDVR0lBCAwHgYIKwYBBQUHAwIGCCsGAQUF
BwMBBggrBgEFBQcDCTAOBgNVHQ8BAf8EBAMCBaAwHQYDVR0OBBYEFLgU1+Czrj1d
kJIQVxpcCn9+G4XXMA0GCSqGSIb3DQEBCwUAA4ICAQCN70KxZ3+xT9dN9Coak0Pj
JvkFeTGEfTC/J1Qv5WvhVvnZaj3TIlb8oMvPdJIRbbwrfGJX7dTgklhpQv65rm/t
mEzYbKuaXdUh5IlaScPW8lWD0HJafdqdm5JH/DhS6dDkkrCpyWLjuk5piI1NHhRq
A3qGuMBMqddoADaZh2HgYNRdiFN4TuARc2yzs0KC+sP3dDKN2492a3AySrTDqS5v
VRkxwyBp53HVFCOsOCt/LfXIOlL9xCrFKnWaMqBviTNXpG3bknD6UiFO37vwv31w
ktr59OpyIMrGImv1ME9dMql2ofLdJU/JGxR65/TPet8tdewrXnfQECO8I1vlDEUG
gPp2EZ0dSbJXEM6llEt7I5ie3KziKXZLT5I+3ZIsIWFje2Vo3uKMsbcTPPCZZnKJ
2BLjBnUavLF4cTHNTnjKsytom6Gr4d9ZQfojdVDUMfPlyEcHABFZXIwhWo7NVmaW
dRg74ECI/AhBPhSPVd6+gt7qy8TLG6p+GP7/BERQzv7NSfO4TJ09kdmqJg3mHAyE
pNA91h6SGRDmQIndOQrNYiMQWR8tvGw9SqNYaBs3B2cr/TfkRox86JvpUWOjuqz8
MnY4eZflhUiVm+5mp5tiwCNoBI3q3z/gqyNTNHYhopo2RyAQdpYNP9MGpBpmMuVJ
dFLk82gCtjYLMFNXYlLC9w==
-----END CERTIFICATE-----
