Certificate:
    Data:
        Version: 3 (0x2)
        Serial Number:
            8c:d0:66:db:d0:38:e5:6e:d4:c4:01:b2:41:0b:05:cb
        Signature Algorithm: sha256WithRSAEncryption
        Issuer: C=ES, O=Teleco, CN=Server CA
        Validity
            Not Before: Apr  5 09:42:50 2023 GMT
            Not After : Apr  2 09:42:50 2033 GMT
        Subject: C=ES, O=Teleco, CN=servertls13
        Subject Public Key Info:
            Public Key Algorithm: rsaEncryption
                RSA Public-Key: (2048 bit)
                Modulus:
                    00:8b:1f:7b:ff:ad:26:22:af:fb:b9:0a:5f:d2:bd:
                    bb:db:70:71:e9:ad:60:1c:d6:95:f4:60:5b:1d:d9:
                    b4:75:3f:1d:cf:a6:d4:4d:3c:b2:58:d7:df:03:1f:
                    60:6c:b4:c2:d8:3f:84:6d:a9:f7:56:bd:8f:8a:52:
                    3a:51:f7:a5:c2:42:80:80:7e:fa:39:fb:43:a6:a1:
                    c6:c8:b4:2e:ed:cd:b7:17:f3:f4:c0:ca:e9:7f:e3:
                    25:e9:16:cf:c4:2b:69:6c:b8:90:ea:cd:f9:cd:f7:
                    94:ad:15:13:93:f0:36:76:d9:b0:43:aa:66:f6:bf:
                    92:86:8a:cd:76:93:9a:e5:5c:fa:f4:b0:5f:13:d0:
                    03:4f:6b:c0:13:d0:08:a6:fd:7e:cc:4f:4b:0d:9f:
                    93:a7:5a:cb:19:96:57:c6:b6:08:ce:91:82:b1:6b:
                    d7:ec:84:8c:59:91:a3:8c:83:9b:c9:7c:b3:e6:15:
                    2d:e0:90:90:22:70:0c:99:da:c9:c9:90:4a:3a:eb:
                    86:3d:7f:c0:b9:8c:89:ef:f9:a0:e9:02:a9:fc:66:
                    0b:23:53:9c:90:46:45:ec:5a:4d:c9:9f:10:01:31:
                    33:79:18:51:d1:0d:bb:55:42:e6:4f:64:f1:4a:0e:
                    96:4c:1b:1c:5e:58:fe:fb:75:d2:30:02:29:60:80:
                    8b:3b
                Exponent: 65537 (0x10001)
        X509v3 extensions:
            Authority Information Access: 
                CA Issuers - URI:http://server-ca.Teleco.com/server-ca.crt
                OCSP - URI:http://ocsp.server-ca.Teleco.com:9080

            X509v3 Authority Key Identifier: 
                keyid:46:D1:59:71:A8:1F:2F:91:13:0E:17:8E:BB:8E:AA:3F:2B:9D:9D:EC

            X509v3 Basic Constraints: critical
                CA:FALSE
            X509v3 CRL Distribution Points: 

                Full Name:
                  URI:http://server-ca.Teleco.com/server-ca.crl

            X509v3 Extended Key Usage: 
                TLS Web Client Authentication, TLS Web Server Authentication
            X509v3 Key Usage: critical
                Digital Signature, Key Encipherment
            X509v3 Subject Key Identifier: 
                B8:14:D7:E0:B3:AE:3D:5D:90:92:10:57:1A:5C:0A:7F:7E:1B:85:D7
    Signature Algorithm: sha256WithRSAEncryption
         4d:d3:ae:85:05:4b:f8:01:3f:4a:4e:8e:bb:a1:85:ff:cb:1b:
         51:78:c2:a8:2d:3a:0d:bb:c6:0c:f2:1b:73:ef:d4:c3:0a:bd:
         48:b9:30:97:4d:cd:b9:23:a5:df:ae:13:7b:78:78:af:a1:8d:
         63:84:81:c3:31:b5:24:4d:3a:3b:40:78:8f:68:8d:b2:84:85:
         17:d5:08:62:06:6e:0c:52:d9:7f:3d:62:62:34:e0:c2:d4:b9:
         7c:8f:31:fb:93:a3:82:38:40:61:a0:a7:84:86:aa:17:81:cc:
         2b:26:5c:79:82:22:a7:e4:99:1b:f5:6d:58:e6:92:e1:b5:fa:
         70:f6:8a:7e:4e:ed:95:ab:17:93:c2:12:e5:f3:b9:42:28:9c:
         b5:b0:01:21:8c:ba:16:8f:01:66:17:6b:ae:bc:6a:76:ef:74:
         a4:d6:b1:8f:72:28:e5:76:b1:02:da:a7:38:e5:47:8f:4a:6b:
         0e:4b:0f:3c:e1:7c:00:4e:8f:66:52:e2:f5:c5:a1:58:50:14:
         71:4b:8c:1e:83:39:fb:a1:d8:c1:a9:b6:32:36:f4:27:fe:c2:
         80:a2:c3:30:31:83:35:59:bc:43:41:0f:67:31:7c:94:f8:6e:
         1b:2a:d0:05:53:9c:d9:3d:d8:f8:4f:1c:42:e5:ec:51:a1:b9:
         d7:8b:c7:a4:c7:71:c5:c2:ef:7b:02:18:ed:28:bd:1e:c2:7f:
         64:cc:a1:f5:f8:19:7c:1d:9e:31:97:8e:0f:80:8d:64:c2:04:
         ea:90:0e:37:b6:ac:f0:c3:49:ab:ba:41:ee:77:e0:aa:04:de:
         e9:ae:17:7f:da:45:ad:3d:03:1b:7d:ce:21:ae:6f:eb:ab:22:
         16:88:0a:36:c5:da:ab:8b:08:c5:a4:52:dd:14:c4:fb:16:5d:
         1e:eb:35:b8:bc:f4:d6:ad:7b:80:a9:cd:9f:d4:1a:06:36:48:
         c7:02:db:ce:07:7d:af:74:c5:db:59:65:55:3f:15:f0:a4:a0:
         9b:cc:99:ee:b4:f6:b9:7c:d1:c9:09:bb:c6:53:6f:63:23:22:
         7d:f5:ba:c9:ae:95:d0:ac:bf:b1:37:2a:02:35:91:41:38:fc:
         14:a7:6c:27:7f:a2:40:35:50:78:28:c2:37:4f:ff:0e:06:0b:
         68:4b:03:2e:9e:c2:a1:b6:53:01:60:d9:25:ea:23:31:41:6e:
         5f:ba:8e:1d:cf:8a:1d:1a:cd:b8:3a:9b:0f:fb:e2:2c:ad:b4:
         f5:3b:7d:86:a6:46:5b:92:cd:3b:ed:39:f6:24:61:d0:b2:45:
         5b:03:8d:a9:5c:40:30:5a:d4:4c:df:cf:62:d3:76:cd:e9:ed:
         e5:c5:47:c3:84:b9:2f:c5
-----BEGIN CERTIFICATE-----
MIIFKjCCAxKgAwIBAgIRAIzQZtvQOOVu1MQBskELBcswDQYJKoZIhvcNAQELBQAw
MjELMAkGA1UEBhMCRVMxDzANBgNVBAoMBlRlbGVjbzESMBAGA1UEAwwJU2VydmVy
IENBMB4XDTIzMDQwNTA5NDI1MFoXDTMzMDQwMjA5NDI1MFowNDELMAkGA1UEBhMC
RVMxDzANBgNVBAoMBlRlbGVjbzEUMBIGA1UEAwwLc2VydmVydGxzMTMwggEiMA0G
CSqGSIb3DQEBAQUAA4IBDwAwggEKAoIBAQCLH3v/rSYir/u5Cl/SvbvbcHHprWAc
1pX0YFsd2bR1Px3PptRNPLJY198DH2BstMLYP4RtqfdWvY+KUjpR96XCQoCAfvo5
+0OmocbItC7tzbcX8/TAyul/4yXpFs/EK2lsuJDqzfnN95StFROT8DZ22bBDqmb2
v5KGis12k5rlXPr0sF8T0ANPa8AT0Aim/X7MT0sNn5OnWssZllfGtgjOkYKxa9fs
hIxZkaOMg5vJfLPmFS3gkJAicAyZ2snJkEo664Y9f8C5jInv+aDpAqn8ZgsjU5yQ
RkXsWk3JnxABMTN5GFHRDbtVQuZPZPFKDpZMGxxeWP77ddIwAilggIs7AgMBAAGj
ggE3MIIBMzB4BggrBgEFBQcBAQRsMGowNQYIKwYBBQUHMAKGKWh0dHA6Ly9zZXJ2
ZXItY2EuVGVsZWNvLmNvbS9zZXJ2ZXItY2EuY3J0MDEGCCsGAQUFBzABhiVodHRw
Oi8vb2NzcC5zZXJ2ZXItY2EuVGVsZWNvLmNvbTo5MDgwMB8GA1UdIwQYMBaAFEbR
WXGoHy+REw4XjruOqj8rnZ3sMAwGA1UdEwEB/wQCMAAwOgYDVR0fBDMwMTAvoC2g
K4YpaHR0cDovL3NlcnZlci1jYS5UZWxlY28uY29tL3NlcnZlci1jYS5jcmwwHQYD
VR0lBBYwFAYIKwYBBQUHAwIGCCsGAQUFBwMBMA4GA1UdDwEB/wQEAwIFoDAdBgNV
HQ4EFgQUuBTX4LOuPV2QkhBXGlwKf34bhdcwDQYJKoZIhvcNAQELBQADggIBAE3T
roUFS/gBP0pOjruhhf/LG1F4wqgtOg27xgzyG3Pv1MMKvUi5MJdNzbkjpd+uE3t4
eK+hjWOEgcMxtSRNOjtAeI9ojbKEhRfVCGIGbgxS2X89YmI04MLUuXyPMfuTo4I4
QGGgp4SGqheBzCsmXHmCIqfkmRv1bVjmkuG1+nD2in5O7ZWrF5PCEuXzuUIonLWw
ASGMuhaPAWYXa668anbvdKTWsY9yKOV2sQLapzjlR49Kaw5LDzzhfABOj2ZS4vXF
oVhQFHFLjB6DOfuh2MGptjI29Cf+woCiwzAxgzVZvENBD2cxfJT4bhsq0AVTnNk9
2PhPHELl7FGhudeLx6THccXC73sCGO0ovR7Cf2TMofX4GXwdnjGXjg+AjWTCBOqQ
Dje2rPDDSau6Qe534KoE3umuF3/aRa09Axt9ziGub+urIhaICjbF2quLCMWkUt0U
xPsWXR7rNbi89Nate4CpzZ/UGgY2SMcC284Hfa90xdtZZVU/FfCkoJvMme609rl8
0ckJu8ZTb2MjIn31usmuldCsv7E3KgI1kUE4/BSnbCd/okA1UHgowjdP/w4GC2hL
Ay6ewqG2UwFg2SXqIzFBbl+6jh3Pih0azbg6mw/74iyttPU7fYamRluSzTvtOfYk
YdCyRVsDjalcQDBa1Ezfz2LTds3p7eXFR8OEuS/F
-----END CERTIFICATE-----
