Certificate:
    Data:
        Version: 3 (0x2)
        Serial Number:
            8c:d0:66:db:d0:38:e5:6e:d4:c4:01:b2:41:0b:05:ca
        Signature Algorithm: sha256WithRSAEncryption
        Issuer: C=ES, O=Teleco, CN=Server CA
        Validity
            Not Before: Apr  4 22:03:32 2023 GMT
            Not After : Apr  1 22:03:32 2033 GMT
        Subject: C=ES, O=Teleco, CN=servertls13
        Subject Public Key Info:
            Public Key Algorithm: rsaEncryption
                RSA Public-Key: (1512 bit)
                Modulus:
                    00:95:84:26:b1:58:3f:57:0a:1f:48:a4:5a:ce:01:
                    f8:af:19:81:08:27:f0:98:08:24:a6:4b:ed:2e:9a:
                    43:30:df:b6:ed:4a:a2:8d:93:a1:74:e9:0a:fc:d5:
                    c8:23:c2:3b:b7:e6:fe:3a:18:4a:50:98:e7:f6:31:
                    95:8d:a4:72:aa:e2:78:00:16:55:08:ee:82:ee:92:
                    d6:4e:20:b2:90:3c:aa:1d:6d:ae:01:d1:d4:43:e6:
                    6a:39:c7:45:9a:74:6f:ba:1a:71:a8:5d:a1:b4:c2:
                    20:87:01:79:8d:17:3c:9c:17:fc:31:c5:e1:c1:17:
                    96:b9:ab:57:48:47:4e:b6:4f:40:36:19:d0:30:f7:
                    2d:bd:37:19:08:90:de:c3:9b:dc:04:a3:e7:49:da:
                    e4:cb:c7:7c:0d:86:fe:ae:9c:07:fe:e3:79:13:0b:
                    b9:75:c8:62:96:33:cd:9b:25:45:04:f0:2f:b3:13:
                    5a:85:8a:e2:4b:43:df:b4:8d:c5
                Exponent: 65537 (0x10001)
        X509v3 extensions:
            Authority Information Access: 
                CA Issuers - URI:http://server-ca.Teleco.com/server-ca.crt
                OCSP - URI:http://ocsp.server-ca.Teleco.com:9080

            X509v3 Authority Key Identifier: 
                keyid:1B:2D:CA:AE:C2:F8:26:FD:92:78:C6:7C:42:C1:23:FE:27:1D:2A:2B

            X509v3 Basic Constraints: critical
                CA:FALSE
            X509v3 CRL Distribution Points: 

                Full Name:
                  URI:http://server-ca.Teleco.com/server-ca.crl

            X509v3 Extended Key Usage: 
                TLS Web Client Authentication, TLS Web Server Authentication
            X509v3 Key Usage: critical
                Digital Signature, Key Encipherment
            X509v3 Subject Key Identifier: 
                03:45:05:D2:FA:2D:B3:C1:AB:B1:CC:81:5D:8E:A2:95:CB:E2:2E:8A
    Signature Algorithm: sha256WithRSAEncryption
         18:7a:01:b3:d3:1e:64:d3:7c:68:8d:94:4f:dd:97:ff:6a:89:
         9a:22:33:4a:6c:7d:6e:74:e6:82:d1:65:2f:20:16:5e:3b:7f:
         63:65:bf:d1:5f:63:47:a2:88:08:2d:ed:a5:2e:8e:cc:ee:20:
         e7:67:cf:c7:b6:ee:26:33:72:74:5d:8b:6a:83:d7:15:4e:41:
         7b:7a:98:ab:f6:c4:55:ec:c0:d6:f5:62:ad:ec:b2:78:46:a3:
         de:e1:df:18:90:26:d2:ca:07:7a:b0:8a:ba:9e:3e:d3:03:d3:
         cd:c9:a9:43:21:80:ca:86:6f:54:3d:bf:39:18:15:b3:1f:45:
         ed:85:1e:3d:df:58:cc:b3:c3:f7:db:56:17:12:a5:bf:b6:f4:
         24:d3:c5:31:c7:8e:40:b1:cc:77:a1:f2:63:97:ef:26:05:64:
         a1:dd:0e:c2:62:98:5b:5a:3e:80:68:f9:53:bb:72:5f:83:44:
         f9:e5:c6:d0:86:f4:af:ea:df:d4:9d:12:7f:7d:94:b1:25:8d:
         e9:54:91:19:05:7c:11:58:c8:4c:d6:fb:38:e5:58:3a:70:3f:
         46:d9:db:b0:9b:8b:c9:cf:0f:a7:64:0d:ef:a1:7f:9b:24:ae:
         fe:09:2f:57:02:b2:64:35:84:7d:b6:1f:7b:07:2b:8f:14:12:
         3e:3c:e5:5c:7b:5a:c6:25:7a:2e:46:62:ac:42:ea:2d:fa:89:
         14:29:0a:3f:bd:cb:65:5c:4f:19:83:d0:aa:33:f7:a6:cf:f0:
         a0:31:2e:a1:87:dd:ff:21:69:1b:73:99:ed:38:9f:ba:5e:8f:
         7a:4d:4c:20:f9:9f:f2:fb:b0:d3:5d:6a:f3:a4:ce:f3:09:53:
         66:34:e0:c2:90:90:b3:f3:88:8d:45:48:85:bb:31:b3:92:c3:
         a4:33:61:68:50:d3:42:aa:c9:a3:88:2e:c3:95:b7:ff:70:83:
         4e:bd:ff:14:35:35:95:1f:83:c7:95:cb:93:38:47:1b:82:cb:
         10:1e:f3:b0:bb:60:f9:4e:90:ad:41:7a:b5:60:e8:ac:e4:5c:
         42:60:61:bf:ca:0b:1d:ce:a7:a4:5d:e6:71:64:72:b4:66:d8:
         de:3e:38:35:ed:83:85:e5:51:0a:f0:c9:87:0a:14:dc:17:69:
         3f:c3:37:1b:93:03:e1:34:61:e7:f9:f7:01:30:33:8e:05:de:
         8b:fa:8e:be:52:73:06:be:0f:96:53:9f:d7:62:f4:76:24:03:
         f5:d0:41:e3:2b:a3:20:32:ce:40:8e:7f:2c:40:48:c0:e9:bb:
         4a:f9:48:98:8c:72:27:ef:56:1a:a5:7b:58:8e:21:68:6d:77:
         be:b5:1e:23:86:76:86:4e
-----BEGIN CERTIFICATE-----
MIIE4zCCAsugAwIBAgIRAIzQZtvQOOVu1MQBskELBcowDQYJKoZIhvcNAQELBQAw
MjELMAkGA1UEBhMCRVMxDzANBgNVBAoMBlRlbGVjbzESMBAGA1UEAwwJU2VydmVy
IENBMB4XDTIzMDQwNDIyMDMzMloXDTMzMDQwMTIyMDMzMlowNDELMAkGA1UEBhMC
RVMxDzANBgNVBAoMBlRlbGVjbzEUMBIGA1UEAwwLc2VydmVydGxzMTMwgdwwDQYJ
KoZIhvcNAQEBBQADgcoAMIHGAoG+AJWEJrFYP1cKH0ikWs4B+K8ZgQgn8JgIJKZL
7S6aQzDftu1Koo2ToXTpCvzVyCPCO7fm/joYSlCY5/YxlY2kcqrieAAWVQjugu6S
1k4gspA8qh1trgHR1EPmajnHRZp0b7oacahdobTCIIcBeY0XPJwX/DHF4cEXlrmr
V0hHTrZPQDYZ0DD3Lb03GQiQ3sOb3ASj50na5MvHfA2G/q6cB/7jeRMLuXXIYpYz
zZslRQTwL7MTWoWK4ktD37SNxQIDAQABo4IBNzCCATMweAYIKwYBBQUHAQEEbDBq
MDUGCCsGAQUFBzAChilodHRwOi8vc2VydmVyLWNhLlRlbGVjby5jb20vc2VydmVy
LWNhLmNydDAxBggrBgEFBQcwAYYlaHR0cDovL29jc3Auc2VydmVyLWNhLlRlbGVj
by5jb206OTA4MDAfBgNVHSMEGDAWgBQbLcquwvgm/ZJ4xnxCwSP+Jx0qKzAMBgNV
HRMBAf8EAjAAMDoGA1UdHwQzMDEwL6AtoCuGKWh0dHA6Ly9zZXJ2ZXItY2EuVGVs
ZWNvLmNvbS9zZXJ2ZXItY2EuY3JsMB0GA1UdJQQWMBQGCCsGAQUFBwMCBggrBgEF
BQcDATAOBgNVHQ8BAf8EBAMCBaAwHQYDVR0OBBYEFANFBdL6LbPBq7HMgV2OopXL
4i6KMA0GCSqGSIb3DQEBCwUAA4ICAQAYegGz0x5k03xojZRP3Zf/aomaIjNKbH1u
dOaC0WUvIBZeO39jZb/RX2NHoogILe2lLo7M7iDnZ8/Htu4mM3J0XYtqg9cVTkF7
epir9sRV7MDW9WKt7LJ4RqPe4d8YkCbSygd6sIq6nj7TA9PNyalDIYDKhm9UPb85
GBWzH0XthR4931jMs8P321YXEqW/tvQk08Uxx45Ascx3ofJjl+8mBWSh3Q7CYphb
Wj6AaPlTu3Jfg0T55cbQhvSv6t/UnRJ/fZSxJY3pVJEZBXwRWMhM1vs45Vg6cD9G
2duwm4vJzw+nZA3voX+bJK7+CS9XArJkNYR9th97ByuPFBI+POVce1rGJXouRmKs
Quot+okUKQo/vctlXE8Zg9CqM/emz/CgMS6hh93/IWkbc5ntOJ+6Xo96TUwg+Z/y
+7DTXWrzpM7zCVNmNODCkJCz84iNRUiFuzGzksOkM2FoUNNCqsmjiC7Dlbf/cINO
vf8UNTWVH4PHlcuTOEcbgssQHvOwu2D5TpCtQXq1YOis5FxCYGG/ygsdzqekXeZx
ZHK0ZtjePjg17YOF5VEK8MmHChTcF2k/wzcbkwPhNGHn+fcBMDOOBd6L+o6+UnMG
vg+WU5/XYvR2JAP10EHjK6MgMs5Ajn8sQEjA6btK+UiYjHIn71YapXtYjiFobXe+
tR4jhnaGTg==
-----END CERTIFICATE-----
