Certificate:
    Data:
        Version: 3 (0x2)
        Serial Number:
            8c:d0:66:db:d0:38:e5:6e:d4:c4:01:b2:41:0b:05:b8
        Signature Algorithm: sha256WithRSAEncryption
        Issuer: C=ES, O=Teleco, CN=Server CA
        Validity
            Not Before: Mar 26 15:03:07 2023 GMT
            Not After : Mar 25 15:03:07 2024 GMT
        Subject: C=ES, O=Teleco, CN=servertls13
        Subject Public Key Info:
            Public Key Algorithm: rsaEncryption
                RSA Public-Key: (2048 bit)
                Modulus:
                    00:c0:de:f0:5f:3b:f5:65:bd:c9:ae:e8:43:0b:3e:
                    3e:2b:f9:77:59:6f:be:d8:55:b1:a6:3a:6a:c3:67:
                    e4:b8:42:e3:58:14:3d:02:91:bd:f8:3c:d7:5d:8d:
                    32:43:e9:13:c3:3f:ed:3d:a4:fe:99:6f:94:9c:cb:
                    35:d7:99:a1:b6:66:ca:91:50:64:02:e8:bc:eb:9a:
                    29:f9:45:a2:4e:da:4e:4b:ea:58:be:41:14:85:b6:
                    94:33:5f:ce:79:00:9a:f3:08:8b:93:83:75:52:c6:
                    ff:bf:2d:45:af:4a:69:2f:c7:47:81:05:7f:ff:a4:
                    0e:99:ba:bc:0f:ae:a3:18:61:d0:d5:11:14:e6:37:
                    6b:0e:4c:36:49:db:fe:de:cd:82:f8:b6:c1:41:b8:
                    73:7f:d6:93:c0:9a:4d:71:11:e1:6b:5b:9f:37:66:
                    b6:80:1d:80:d2:34:3d:14:f6:4d:77:4e:75:68:5e:
                    78:f0:3a:a7:dd:d9:f6:88:bd:75:d3:53:de:9b:4a:
                    50:6c:d6:42:5f:ab:8f:f9:62:1d:8f:89:0b:73:d7:
                    a8:82:e5:3b:ac:c3:fc:8d:98:86:f1:49:91:41:33:
                    df:51:ed:5a:27:d3:d7:39:ed:b9:1a:36:10:29:3b:
                    8b:bf:29:1b:af:81:06:fb:6c:35:59:83:15:1e:75:
                    7c:89
                Exponent: 65537 (0x10001)
        X509v3 extensions:
            Authority Information Access: 
                CA Issuers - URI:http://server-ca.Teleco.com/server-ca.crt
                OCSP - URI:http://ocsp.server-ca.Teleco.com:9081

            X509v3 Authority Key Identifier: 
                keyid:FB:05:1B:3E:59:49:40:DD:30:F4:A8:AE:11:9F:AB:15:DF:F6:7B:EB

            X509v3 Basic Constraints: critical
                CA:FALSE
            X509v3 CRL Distribution Points: 

                Full Name:
                  URI:http://server-ca.Teleco.com/server-ca.crl

            X509v3 Extended Key Usage: 
                TLS Web Client Authentication, TLS Web Server Authentication
            X509v3 Key Usage: critical
                Digital Signature, Key Encipherment
            X509v3 Subject Key Identifier: 
                43:86:BE:6F:83:BE:AF:D0:83:D7:22:A5:11:B0:4B:E0:B1:B5:23:35
            X509v3 Subject Alternative Name: 
                DNS:servertls13
    Signature Algorithm: sha256WithRSAEncryption
         d9:7e:a6:4e:04:84:32:e8:e3:ea:66:76:c7:26:c6:b0:51:13:
         4b:5f:cf:21:27:75:80:6d:9c:f0:e4:8d:0b:c5:65:d2:d3:4f:
         88:1b:81:b6:3d:b9:74:ad:bb:9a:e8:12:41:81:c1:7d:d7:2f:
         73:b0:62:1f:72:6c:0e:b4:98:ae:e4:5a:a6:be:89:a1:f6:8c:
         0d:18:71:41:40:10:ca:59:14:8e:49:e4:db:5e:3f:2a:e8:5d:
         50:44:cb:01:19:9e:83:14:cc:fb:b4:dd:47:78:25:14:0e:75:
         a7:28:37:df:b2:d5:64:ef:34:c3:8f:29:85:99:bf:1c:bf:9b:
         62:dc:14:d1:5c:85:41:f7:2f:05:fe:95:1e:56:8e:95:bf:31:
         b4:8b:99:7f:4a:9b:f6:4e:d7:cb:3c:cf:71:9e:51:d3:cc:e4:
         e1:f8:e4:01:a2:aa:91:4c:5c:e9:d9:38:e0:0a:32:da:dc:ae:
         7e:30:16:b6:5f:93:50:d0:d3:21:34:f5:48:1b:d0:6f:4b:1a:
         50:e9:44:7e:83:27:f0:1e:c4:7c:54:c5:b8:bb:de:ea:41:2f:
         cb:b6:97:06:e6:0e:0f:eb:6b:18:69:ba:d3:2b:bd:3b:c9:00:
         14:d4:d9:97:da:d6:6a:56:05:33:96:55:86:9d:af:fc:34:2e:
         f6:d6:74:99:54:cb:03:75:d0:66:b4:fd:44:e1:00:fc:47:6c:
         00:1b:f8:92:4b:22:5a:7a:67:e7:eb:4a:d9:ed:66:04:cb:71:
         fb:6f:b9:88:87:31:dd:e2:21:29:7e:4e:31:d4:67:1b:20:37:
         4f:11:d8:e7:0a:44:9d:76:f6:6c:dc:d2:ee:c7:c4:02:5e:82:
         f4:d4:ce:7c:09:a4:3e:f5:b0:cb:ed:51:1b:86:21:c7:b1:ed:
         94:58:0e:0a:93:73:3b:9c:03:1b:87:90:5a:91:6a:ad:ed:e7:
         22:c7:92:e9:bc:e3:de:8c:dc:bd:7b:36:c2:4c:b1:d7:b3:6b:
         cc:a7:52:43:e4:80:dd:2d:2b:4e:4b:c7:b1:4d:6a:6e:b1:12:
         d5:4b:a8:2d:99:8d:88:a1:29:c7:ee:5b:0f:88:45:66:0a:be:
         d9:38:b1:7b:f2:c2:58:a8:76:b7:a5:e1:6c:90:e3:a7:94:d4:
         c4:80:3a:a5:69:60:b4:7f:18:17:a3:a2:ce:4c:78:ad:bf:2d:
         d1:0b:f0:d4:d6:f3:6e:1a:23:f1:b3:8f:57:5b:8f:7e:63:83:
         01:b9:a9:d5:7d:af:d0:9e:c1:40:61:02:19:b8:fa:ee:ea:9f:
         ed:88:ad:b6:c8:e2:cb:74:a7:34:41:55:01:cc:db:8a:c5:be:
         dc:00:21:a1:04:14:97:0a
-----BEGIN CERTIFICATE-----
MIIFQjCCAyqgAwIBAgIRAIzQZtvQOOVu1MQBskELBbgwDQYJKoZIhvcNAQELBQAw
MjELMAkGA1UEBhMCRVMxDzANBgNVBAoMBlRlbGVjbzESMBAGA1UEAwwJU2VydmVy
IENBMB4XDTIzMDMyNjE1MDMwN1oXDTI0MDMyNTE1MDMwN1owNDELMAkGA1UEBhMC
RVMxDzANBgNVBAoMBlRlbGVjbzEUMBIGA1UEAwwLc2VydmVydGxzMTMwggEiMA0G
CSqGSIb3DQEBAQUAA4IBDwAwggEKAoIBAQDA3vBfO/Vlvcmu6EMLPj4r+XdZb77Y
VbGmOmrDZ+S4QuNYFD0Ckb34PNddjTJD6RPDP+09pP6Zb5ScyzXXmaG2ZsqRUGQC
6Lzrmin5RaJO2k5L6li+QRSFtpQzX855AJrzCIuTg3VSxv+/LUWvSmkvx0eBBX//
pA6ZurwPrqMYYdDVERTmN2sOTDZJ2/7ezYL4tsFBuHN/1pPAmk1xEeFrW583ZraA
HYDSND0U9k13TnVoXnjwOqfd2faIvXXTU96bSlBs1kJfq4/5Yh2PiQtz16iC5Tus
w/yNmIbxSZFBM99R7Von09c57bkaNhApO4u/KRuvgQb7bDVZgxUedXyJAgMBAAGj
ggFPMIIBSzB4BggrBgEFBQcBAQRsMGowNQYIKwYBBQUHMAKGKWh0dHA6Ly9zZXJ2
ZXItY2EuVGVsZWNvLmNvbS9zZXJ2ZXItY2EuY3J0MDEGCCsGAQUFBzABhiVodHRw
Oi8vb2NzcC5zZXJ2ZXItY2EuVGVsZWNvLmNvbTo5MDgxMB8GA1UdIwQYMBaAFPsF
Gz5ZSUDdMPSorhGfqxXf9nvrMAwGA1UdEwEB/wQCMAAwOgYDVR0fBDMwMTAvoC2g
K4YpaHR0cDovL3NlcnZlci1jYS5UZWxlY28uY29tL3NlcnZlci1jYS5jcmwwHQYD
VR0lBBYwFAYIKwYBBQUHAwIGCCsGAQUFBwMBMA4GA1UdDwEB/wQEAwIFoDAdBgNV
HQ4EFgQUQ4a+b4O+r9CD1yKlEbBL4LG1IzUwFgYDVR0RBA8wDYILc2VydmVydGxz
MTMwDQYJKoZIhvcNAQELBQADggIBANl+pk4EhDLo4+pmdscmxrBRE0tfzyEndYBt
nPDkjQvFZdLTT4gbgbY9uXStu5roEkGBwX3XL3OwYh9ybA60mK7kWqa+iaH2jA0Y
cUFAEMpZFI5J5NtePyroXVBEywEZnoMUzPu03Ud4JRQOdacoN9+y1WTvNMOPKYWZ
vxy/m2LcFNFchUH3LwX+lR5WjpW/MbSLmX9Km/ZO18s8z3GeUdPM5OH45AGiqpFM
XOnZOOAKMtrcrn4wFrZfk1DQ0yE09Ugb0G9LGlDpRH6DJ/AexHxUxbi73upBL8u2
lwbmDg/raxhputMrvTvJABTU2Zfa1mpWBTOWVYadr/w0LvbWdJlUywN10Ga0/UTh
APxHbAAb+JJLIlp6Z+frStntZgTLcftvuYiHMd3iISl+TjHUZxsgN08R2OcKRJ12
9mzc0u7HxAJegvTUznwJpD71sMvtURuGIcex7ZRYDgqTczucAxuHkFqRaq3t5yLH
kum8496M3L17NsJMsdeza8ynUkPkgN0tK05Lx7FNam6xEtVLqC2ZjYihKcfuWw+I
RWYKvtk4sXvywliodrel4WyQ46eU1MSAOqVpYLR/GBejos5MeK2/LdEL8NTW824a
I/Gzj1dbj35jgwG5qdV9r9CewUBhAhm4+u7qn+2IrbbI4st0pzRBVQHM24rFvtwA
IaEEFJcK
-----END CERTIFICATE-----
