Certificate:
    Data:
        Version: 3 (0x2)
        Serial Number:
            8c:d0:66:db:d0:38:e5:6e:d4:c4:01:b2:41:0b:05:c9
        Signature Algorithm: sha256WithRSAEncryption
        Issuer: C=ES, O=Teleco, CN=Server CA
        Validity
            Not Before: Apr  4 22:03:19 2023 GMT
            Not After : Apr  1 22:03:19 2033 GMT
        Subject: C=ES, O=Teleco, CN=servertls13
        Subject Public Key Info:
            Public Key Algorithm: rsaEncryption
                RSA Public-Key: (2048 bit)
                Modulus:
                    00:8b:1f:7b:ff:ad:26:22:af:fb:b9:0a:5f:d2:bd:
                    bb:db:70:71:e9:ad:60:1c:d6:95:f4:60:5b:1d:d9:
                    b4:75:3f:1d:cf:a6:d4:4d:3c:b2:58:d7:df:03:1f:
                    60:6c:b4:c2:d8:3f:84:6d:a9:f7:56:bd:8f:8a:52:
                    3a:51:f7:a5:c2:42:80:80:7e:fa:39:fb:43:a6:a1:
                    c6:c8:b4:2e:ed:cd:b7:17:f3:f4:c0:ca:e9:7f:e3:
                    25:e9:16:cf:c4:2b:69:6c:b8:90:ea:cd:f9:cd:f7:
                    94:ad:15:13:93:f0:36:76:d9:b0:43:aa:66:f6:bf:
                    92:86:8a:cd:76:93:9a:e5:5c:fa:f4:b0:5f:13:d0:
                    03:4f:6b:c0:13:d0:08:a6:fd:7e:cc:4f:4b:0d:9f:
                    93:a7:5a:cb:19:96:57:c6:b6:08:ce:91:82:b1:6b:
                    d7:ec:84:8c:59:91:a3:8c:83:9b:c9:7c:b3:e6:15:
                    2d:e0:90:90:22:70:0c:99:da:c9:c9:90:4a:3a:eb:
                    86:3d:7f:c0:b9:8c:89:ef:f9:a0:e9:02:a9:fc:66:
                    0b:23:53:9c:90:46:45:ec:5a:4d:c9:9f:10:01:31:
                    33:79:18:51:d1:0d:bb:55:42:e6:4f:64:f1:4a:0e:
                    96:4c:1b:1c:5e:58:fe:fb:75:d2:30:02:29:60:80:
                    8b:3b
                Exponent: 65537 (0x10001)
        X509v3 extensions:
            Authority Information Access: 
                CA Issuers - URI:http://server-ca.Teleco.com/server-ca.crt
                OCSP - URI:http://ocsp.server-ca.Teleco.com:9080

            X509v3 Authority Key Identifier: 
                keyid:1B:2D:CA:AE:C2:F8:26:FD:92:78:C6:7C:42:C1:23:FE:27:1D:2A:2B

            X509v3 Basic Constraints: critical
                CA:FALSE
            X509v3 CRL Distribution Points: 

                Full Name:
                  URI:http://server-ca.Teleco.com/server-ca.crl

            X509v3 Extended Key Usage: 
                TLS Web Client Authentication, TLS Web Server Authentication
            X509v3 Key Usage: critical
                Digital Signature, Key Encipherment
            X509v3 Subject Key Identifier: 
                B8:14:D7:E0:B3:AE:3D:5D:90:92:10:57:1A:5C:0A:7F:7E:1B:85:D7
    Signature Algorithm: sha256WithRSAEncryption
         19:82:81:f1:94:ac:a4:b6:df:5b:c8:d4:d9:ee:bc:d1:a6:0a:
         46:7e:f4:d9:71:7c:6f:a0:24:8f:92:4d:ea:f5:b3:2e:98:20:
         79:c1:06:6a:eb:31:a3:69:2c:81:e9:c4:48:90:47:eb:a5:51:
         3e:4a:3d:6d:e3:8a:c1:d1:97:b3:a4:c7:e9:b9:ac:d8:a7:67:
         91:30:13:94:bb:0f:95:7b:b8:b4:ff:2f:32:59:18:41:66:b9:
         05:84:5d:3a:cd:f8:ba:a9:f4:aa:71:ef:3b:2b:4e:34:10:40:
         be:04:1f:46:8f:7a:d3:f2:8c:31:d7:c9:db:ed:d6:68:c5:22:
         8c:62:48:87:ea:b8:0e:b9:6e:4a:8a:f2:40:50:45:55:cd:de:
         d3:06:36:a5:de:44:26:73:f4:fa:f5:50:65:26:b2:6d:4f:9a:
         c6:f8:f9:7c:ed:fb:22:f0:10:c3:da:dc:f2:1c:a4:73:4c:44:
         43:d4:33:9e:41:1f:ad:77:79:e1:79:40:08:1f:73:8b:99:6c:
         27:b8:38:8d:0c:2c:5f:d8:eb:6f:48:b0:4e:6a:58:78:70:da:
         71:bf:04:8d:70:2e:52:f3:cb:ee:5d:73:a8:fb:47:1e:f4:38:
         a8:48:5b:98:36:6a:97:64:68:f7:c3:14:50:d6:87:13:01:44:
         95:7e:85:49:d9:b3:28:30:e3:d1:de:8f:3f:d1:a0:f3:79:01:
         d3:3e:6c:dd:ca:a0:9f:09:72:8d:54:ee:26:ed:6a:c7:e3:73:
         b3:df:57:72:2f:00:49:fb:bd:6b:49:35:46:98:ee:a1:9a:ea:
         70:37:3d:a2:a9:52:d9:20:68:ef:ac:b0:23:9d:69:c2:cd:29:
         2a:c9:3c:e7:28:16:ae:73:aa:60:a4:f6:1b:85:5b:40:e1:ee:
         19:7b:11:23:31:dd:bf:51:b9:3d:a7:20:17:9e:50:df:e3:b3:
         73:e0:ee:22:f1:60:ac:79:9c:44:19:d6:6b:ac:a2:c0:70:ac:
         64:f3:9f:30:ad:cd:97:6c:9e:ae:97:5f:bf:2e:86:b2:48:a2:
         1f:a7:be:aa:47:3b:17:a8:13:ca:b6:bb:cd:db:17:3f:12:96:
         ba:b6:18:a1:75:9a:b3:f4:64:e9:97:d6:b8:67:e2:e3:5b:1f:
         84:c4:61:41:b1:9e:b3:08:11:e0:d6:41:ae:bf:0e:7e:66:19:
         97:3b:bb:17:54:ee:af:d5:21:32:70:49:52:d3:e7:5a:06:5b:
         79:4a:81:29:66:c5:a2:bc:d5:3c:6c:7e:09:08:7d:55:04:3b:
         12:76:31:62:ce:4d:a5:52:5d:39:c3:9c:db:92:e3:ec:56:bd:
         fc:c1:7c:2f:83:2f:c2:80
-----BEGIN CERTIFICATE-----
MIIFKjCCAxKgAwIBAgIRAIzQZtvQOOVu1MQBskELBckwDQYJKoZIhvcNAQELBQAw
MjELMAkGA1UEBhMCRVMxDzANBgNVBAoMBlRlbGVjbzESMBAGA1UEAwwJU2VydmVy
IENBMB4XDTIzMDQwNDIyMDMxOVoXDTMzMDQwMTIyMDMxOVowNDELMAkGA1UEBhMC
RVMxDzANBgNVBAoMBlRlbGVjbzEUMBIGA1UEAwwLc2VydmVydGxzMTMwggEiMA0G
CSqGSIb3DQEBAQUAA4IBDwAwggEKAoIBAQCLH3v/rSYir/u5Cl/SvbvbcHHprWAc
1pX0YFsd2bR1Px3PptRNPLJY198DH2BstMLYP4RtqfdWvY+KUjpR96XCQoCAfvo5
+0OmocbItC7tzbcX8/TAyul/4yXpFs/EK2lsuJDqzfnN95StFROT8DZ22bBDqmb2
v5KGis12k5rlXPr0sF8T0ANPa8AT0Aim/X7MT0sNn5OnWssZllfGtgjOkYKxa9fs
hIxZkaOMg5vJfLPmFS3gkJAicAyZ2snJkEo664Y9f8C5jInv+aDpAqn8ZgsjU5yQ
RkXsWk3JnxABMTN5GFHRDbtVQuZPZPFKDpZMGxxeWP77ddIwAilggIs7AgMBAAGj
ggE3MIIBMzB4BggrBgEFBQcBAQRsMGowNQYIKwYBBQUHMAKGKWh0dHA6Ly9zZXJ2
ZXItY2EuVGVsZWNvLmNvbS9zZXJ2ZXItY2EuY3J0MDEGCCsGAQUFBzABhiVodHRw
Oi8vb2NzcC5zZXJ2ZXItY2EuVGVsZWNvLmNvbTo5MDgwMB8GA1UdIwQYMBaAFBst
yq7C+Cb9knjGfELBI/4nHSorMAwGA1UdEwEB/wQCMAAwOgYDVR0fBDMwMTAvoC2g
K4YpaHR0cDovL3NlcnZlci1jYS5UZWxlY28uY29tL3NlcnZlci1jYS5jcmwwHQYD
VR0lBBYwFAYIKwYBBQUHAwIGCCsGAQUFBwMBMA4GA1UdDwEB/wQEAwIFoDAdBgNV
HQ4EFgQUuBTX4LOuPV2QkhBXGlwKf34bhdcwDQYJKoZIhvcNAQELBQADggIBABmC
gfGUrKS231vI1NnuvNGmCkZ+9NlxfG+gJI+STer1sy6YIHnBBmrrMaNpLIHpxEiQ
R+ulUT5KPW3jisHRl7Okx+m5rNinZ5EwE5S7D5V7uLT/LzJZGEFmuQWEXTrN+Lqp
9Kpx7zsrTjQQQL4EH0aPetPyjDHXydvt1mjFIoxiSIfquA65bkqK8kBQRVXN3tMG
NqXeRCZz9Pr1UGUmsm1Pmsb4+Xzt+yLwEMPa3PIcpHNMREPUM55BH613eeF5QAgf
c4uZbCe4OI0MLF/Y629IsE5qWHhw2nG/BI1wLlLzy+5dc6j7Rx70OKhIW5g2apdk
aPfDFFDWhxMBRJV+hUnZsygw49Hejz/RoPN5AdM+bN3KoJ8Jco1U7ibtasfjc7Pf
V3IvAEn7vWtJNUaY7qGa6nA3PaKpUtkgaO+ssCOdacLNKSrJPOcoFq5zqmCk9huF
W0Dh7hl7ESMx3b9RuT2nIBeeUN/js3Pg7iLxYKx5nEQZ1musosBwrGTznzCtzZds
nq6XX78uhrJIoh+nvqpHOxeoE8q2u83bFz8Slrq2GKF1mrP0ZOmX1rhn4uNbH4TE
YUGxnrMIEeDWQa6/Dn5mGZc7uxdU7q/VITJwSVLT51oGW3lKgSlmxaK81TxsfgkI
fVUEOxJ2MWLOTaVSXTnDnNuS4+xWvfzBfC+DL8KA
-----END CERTIFICATE-----
