Certificate:
    Data:
        Version: 3 (0x2)
        Serial Number:
            8c:d0:66:db:d0:38:e5:6e:d4:c4:01:b2:41:0b:05:ba
        Signature Algorithm: sha256WithRSAEncryption
        Issuer: C=ES, O=Teleco, CN=Server CA
        Validity
            Not Before: Apr  3 13:59:32 2023 GMT
            Not After : Apr  2 13:59:32 2024 GMT
        Subject: C=ES, O=Teleco, CN=servertls13
        Subject Public Key Info:
            Public Key Algorithm: rsaEncryption
                RSA Public-Key: (1512 bit)
                Modulus:
                    00:95:84:26:b1:58:3f:57:0a:1f:48:a4:5a:ce:01:
                    f8:af:19:81:08:27:f0:98:08:24:a6:4b:ed:2e:9a:
                    43:30:df:b6:ed:4a:a2:8d:93:a1:74:e9:0a:fc:d5:
                    c8:23:c2:3b:b7:e6:fe:3a:18:4a:50:98:e7:f6:31:
                    95:8d:a4:72:aa:e2:78:00:16:55:08:ee:82:ee:92:
                    d6:4e:20:b2:90:3c:aa:1d:6d:ae:01:d1:d4:43:e6:
                    6a:39:c7:45:9a:74:6f:ba:1a:71:a8:5d:a1:b4:c2:
                    20:87:01:79:8d:17:3c:9c:17:fc:31:c5:e1:c1:17:
                    96:b9:ab:57:48:47:4e:b6:4f:40:36:19:d0:30:f7:
                    2d:bd:37:19:08:90:de:c3:9b:dc:04:a3:e7:49:da:
                    e4:cb:c7:7c:0d:86:fe:ae:9c:07:fe:e3:79:13:0b:
                    b9:75:c8:62:96:33:cd:9b:25:45:04:f0:2f:b3:13:
                    5a:85:8a:e2:4b:43:df:b4:8d:c5
                Exponent: 65537 (0x10001)
        X509v3 extensions:
            Authority Information Access: 
                CA Issuers - URI:http://server-ca.Teleco.com/server-ca.crt
                OCSP - URI:http://ocsp.server-ca.Teleco.com:9081

            X509v3 Authority Key Identifier: 
                keyid:3E:7E:CA:8B:2B:67:F4:4E:C8:10:A8:3C:59:74:C1:E4:7D:3A:6F:63

            X509v3 Basic Constraints: critical
                CA:FALSE
            X509v3 CRL Distribution Points: 

                Full Name:
                  URI:http://server-ca.Teleco.com/server-ca.crl

            X509v3 Extended Key Usage: 
                TLS Web Client Authentication, TLS Web Server Authentication
            X509v3 Key Usage: critical
                Digital Signature, Key Encipherment
            X509v3 Subject Key Identifier: 
                03:45:05:D2:FA:2D:B3:C1:AB:B1:CC:81:5D:8E:A2:95:CB:E2:2E:8A
    Signature Algorithm: sha256WithRSAEncryption
         17:e3:6d:60:03:a2:d2:58:39:aa:4a:e6:4d:e8:63:d2:5e:a2:
         66:e4:a3:02:fe:21:2d:af:71:47:65:3d:52:99:32:7f:a0:45:
         e8:1a:42:bd:14:da:8e:0d:23:e0:31:25:cc:ec:71:0b:42:cd:
         7c:cb:d5:34:2f:16:53:26:01:a4:9c:e4:87:8c:e9:2c:08:92:
         ff:ca:ed:04:9e:ca:37:bf:d8:0a:1c:18:f8:0e:e2:3d:a1:20:
         c4:9f:9d:2a:7a:5c:c2:c2:72:10:35:fa:9b:10:58:dd:75:79:
         8a:ea:d3:c1:05:5a:93:89:c6:70:e4:25:2a:06:08:8a:84:3f:
         7f:70:84:39:82:8d:20:3b:31:be:1d:f9:58:4f:60:be:ff:a5:
         41:59:a6:c8:6f:c3:86:91:4b:2e:b2:ea:cf:d5:de:0a:7c:5d:
         df:d6:7d:9b:bd:3b:a0:8b:ad:25:06:0a:a0:dc:c7:9b:8c:4a:
         2e:46:bb:67:e7:11:48:b0:84:cf:32:b8:72:72:19:ad:2b:c1:
         a1:77:7a:3d:69:f6:72:c4:b0:77:c9:5d:9e:95:10:e2:de:27:
         8f:15:31:1d:dc:ea:2b:fc:c1:61:34:04:0c:21:98:37:a3:c6:
         b5:e3:70:13:78:0d:e9:2e:94:04:7c:1b:d5:48:ec:06:91:db:
         4a:92:16:0c:26:ff:d8:71:c8:69:91:bf:50:ab:44:73:5e:03:
         83:49:84:0f:72:97:36:dd:9a:4e:b8:fa:90:10:fc:ed:b0:1a:
         4b:35:ca:08:14:35:11:42:a8:17:2a:2f:c4:c3:ff:a4:08:9d:
         c5:d5:2c:df:46:b9:04:d4:1e:12:c5:78:4a:ce:dd:1f:78:4e:
         f2:72:83:b0:59:ac:3e:fc:42:e4:30:97:22:da:f8:c9:50:8a:
         33:a4:c4:13:11:fa:a3:4a:74:d0:e1:3f:fa:dc:28:df:7d:5b:
         bc:70:78:c6:2e:5b:98:cd:6e:87:49:8f:6a:6b:40:eb:98:b0:
         22:9f:f0:1c:78:ba:4c:2e:76:90:1c:ee:42:36:66:91:aa:21:
         02:ee:1c:84:f4:85:c3:3e:4e:2d:40:45:79:e7:64:cb:ad:fe:
         9d:72:a0:1f:55:0b:dc:41:98:08:fe:f0:7f:af:15:d8:74:6e:
         28:45:45:aa:b4:a2:91:93:68:dc:da:9d:1f:1c:93:44:45:5f:
         60:48:d1:39:1f:c4:31:a7:0b:ae:b1:58:fd:da:cf:1d:c4:81:
         c3:86:05:8a:bf:18:83:17:24:fe:21:f8:00:b0:47:3b:e5:ca:
         03:33:9e:33:44:cf:63:97:b7:9f:df:ea:5b:c4:a7:ee:f3:16:
         2f:5f:dd:f0:67:fd:00:d1
-----BEGIN CERTIFICATE-----
MIIE4zCCAsugAwIBAgIRAIzQZtvQOOVu1MQBskELBbowDQYJKoZIhvcNAQELBQAw
MjELMAkGA1UEBhMCRVMxDzANBgNVBAoMBlRlbGVjbzESMBAGA1UEAwwJU2VydmVy
IENBMB4XDTIzMDQwMzEzNTkzMloXDTI0MDQwMjEzNTkzMlowNDELMAkGA1UEBhMC
RVMxDzANBgNVBAoMBlRlbGVjbzEUMBIGA1UEAwwLc2VydmVydGxzMTMwgdwwDQYJ
KoZIhvcNAQEBBQADgcoAMIHGAoG+AJWEJrFYP1cKH0ikWs4B+K8ZgQgn8JgIJKZL
7S6aQzDftu1Koo2ToXTpCvzVyCPCO7fm/joYSlCY5/YxlY2kcqrieAAWVQjugu6S
1k4gspA8qh1trgHR1EPmajnHRZp0b7oacahdobTCIIcBeY0XPJwX/DHF4cEXlrmr
V0hHTrZPQDYZ0DD3Lb03GQiQ3sOb3ASj50na5MvHfA2G/q6cB/7jeRMLuXXIYpYz
zZslRQTwL7MTWoWK4ktD37SNxQIDAQABo4IBNzCCATMweAYIKwYBBQUHAQEEbDBq
MDUGCCsGAQUFBzAChilodHRwOi8vc2VydmVyLWNhLlRlbGVjby5jb20vc2VydmVy
LWNhLmNydDAxBggrBgEFBQcwAYYlaHR0cDovL29jc3Auc2VydmVyLWNhLlRlbGVj
by5jb206OTA4MTAfBgNVHSMEGDAWgBQ+fsqLK2f0TsgQqDxZdMHkfTpvYzAMBgNV
HRMBAf8EAjAAMDoGA1UdHwQzMDEwL6AtoCuGKWh0dHA6Ly9zZXJ2ZXItY2EuVGVs
ZWNvLmNvbS9zZXJ2ZXItY2EuY3JsMB0GA1UdJQQWMBQGCCsGAQUFBwMCBggrBgEF
BQcDATAOBgNVHQ8BAf8EBAMCBaAwHQYDVR0OBBYEFANFBdL6LbPBq7HMgV2OopXL
4i6KMA0GCSqGSIb3DQEBCwUAA4ICAQAX421gA6LSWDmqSuZN6GPSXqJm5KMC/iEt
r3FHZT1SmTJ/oEXoGkK9FNqODSPgMSXM7HELQs18y9U0LxZTJgGknOSHjOksCJL/
yu0Enso3v9gKHBj4DuI9oSDEn50qelzCwnIQNfqbEFjddXmK6tPBBVqTicZw5CUq
BgiKhD9/cIQ5go0gOzG+HflYT2C+/6VBWabIb8OGkUsusurP1d4KfF3f1n2bvTug
i60lBgqg3MebjEouRrtn5xFIsITPMrhychmtK8Ghd3o9afZyxLB3yV2elRDi3ieP
FTEd3Oor/MFhNAQMIZg3o8a143ATeA3pLpQEfBvVSOwGkdtKkhYMJv/Ycchpkb9Q
q0RzXgODSYQPcpc23ZpOuPqQEPztsBpLNcoIFDURQqgXKi/Ew/+kCJ3F1SzfRrkE
1B4SxXhKzt0feE7ycoOwWaw+/ELkMJci2vjJUIozpMQTEfqjSnTQ4T/63CjffVu8
cHjGLluYzW6HSY9qa0DrmLAin/AceLpMLnaQHO5CNmaRqiEC7hyE9IXDPk4tQEV5
52TLrf6dcqAfVQvcQZgI/vB/rxXYdG4oRUWqtKKRk2jc2p0fHJNERV9gSNE5H8Qx
pwuusVj92s8dxIHDhgWKvxiDFyT+IfgAsEc75coDM54zRM9jl7ef3+pbxKfu8xYv
X93wZ/0A0Q==
-----END CERTIFICATE-----
