Certificate:
    Data:
        Version: 3 (0x2)
        Serial Number:
            f6:2b:03:82:d0:9b:c1:18:19:50:de:a6:d5:c9:9b:6d
        Signature Algorithm: sha256WithRSAEncryption
        Issuer: C=ES, O=Teleco, CN=Client CA
        Validity
            Not Before: Mar  4 22:25:31 2023 GMT
            Not After : Jun  2 22:25:31 2023 GMT
        Subject: C=ES, O=Teleco, CN=clienttls13
        Subject Public Key Info:
            Public Key Algorithm: rsaEncryption
                RSA Public-Key: (1512 bit)
                Modulus:
                    00:bd:45:e1:34:e1:82:3a:29:4b:73:8c:a3:1b:aa:
                    66:01:db:b5:84:a2:2d:37:49:15:6c:23:ad:5f:44:
                    bd:62:be:35:04:09:54:8a:f0:50:01:b1:30:04:38:
                    fc:ae:cd:e7:bf:93:78:88:70:0e:49:06:c5:36:de:
                    f7:7e:0d:1e:bd:12:d8:a9:4e:19:95:4f:6d:41:be:
                    6d:82:a4:53:d3:ca:95:34:81:40:dd:1c:11:1d:09:
                    d7:e6:25:87:a7:b9:1e:3c:7d:ca:8d:1a:e4:c7:e5:
                    80:34:a9:43:3f:79:82:c9:2b:6c:37:50:a1:fd:00:
                    52:58:ff:de:d5:2c:5c:c7:0a:59:2d:58:57:4f:73:
                    17:53:59:7b:9c:b8:1c:82:41:a4:55:fc:99:a4:02:
                    b7:fe:f3:22:7d:9b:38:81:df:09:b0:42:20:c7:0d:
                    4e:21:b3:bf:91:61:3f:e6:84:42:f0:56:e6:bf:1b:
                    c3:3f:f9:78:8c:48:3f:d5:bf:d1
                Exponent: 65537 (0x10001)
        X509v3 extensions:
            Authority Information Access: 
                CA Issuers - URI:http://client-ca.Teleco.com/client-ca.crt
                OCSP - URI:http://ocsp.client-ca.Teleco.com:9082

            X509v3 Authority Key Identifier: 
                keyid:B1:95:C8:1C:9F:36:2E:E6:4C:C1:44:EE:07:67:29:B9:27:FD:E3:C6

            X509v3 Basic Constraints: critical
                CA:FALSE
            X509v3 CRL Distribution Points: 

                Full Name:
                  URI:http://client-ca.Teleco.com/client-ca.crl

            X509v3 Extended Key Usage: 
                TLS Web Client Authentication
            X509v3 Key Usage: critical
                Digital Signature
            X509v3 Subject Key Identifier: 
                80:F8:D6:63:4B:03:9B:3B:53:0A:F9:1C:0E:8A:D5:D8:4F:27:72:AB
    Signature Algorithm: sha256WithRSAEncryption
         97:39:92:98:14:10:4e:44:7f:10:1d:20:7d:eb:00:a7:ba:d0:
         43:22:90:b9:6d:d8:0a:e5:f5:50:4e:f5:4f:09:43:cb:b2:26:
         c9:01:5e:b8:ab:65:4c:0f:df:84:8d:99:26:0e:90:83:31:1b:
         47:27:bf:64:b7:b1:1a:30:5d:8c:53:44:ae:1a:02:ae:86:64:
         eb:4d:7f:e2:2d:45:37:d1:d7:66:f0:52:be:a3:57:ec:98:13:
         06:ef:9a:03:e3:13:f2:ba:f8:ac:bf:13:b0:96:33:b7:67:58:
         46:ab:2b:21:4e:ad:e8:23:46:03:75:50:e4:e6:d7:86:73:5c:
         59:5a:2d:e6:d7:b9:99:19:e2:bd:a8:97:ac:6b:2f:bf:de:03:
         46:02:de:55:f2:2e:2b:c4:0d:45:e2:88:51:da:79:b0:66:6b:
         25:78:c0:fa:bd:90:c2:95:46:4e:74:1f:cd:c9:7a:0c:bd:f9:
         99:4b:58:a3:a4:2c:7a:9f:44:58:74:83:a8:28:98:74:9b:c0:
         22:c1:c7:d2:58:69:ee:33:bc:6a:bc:ff:51:ac:1e:ac:e2:10:
         05:8e:22:3d:3c:bb:3c:5b:fc:ac:dd:53:86:b3:76:ea:39:41:
         b0:f0:a9:be:f7:19:7d:d5:d0:6f:0b:89:0c:01:c6:06:5b:95:
         05:fd:95:af:03:7d:1c:27:56:82:ae:f9:94:23:00:a3:a5:3d:
         99:f0:21:09:5f:67:1a:7a:5b:84:f8:93:40:89:2c:00:6a:dd:
         6d:2a:95:e7:37:29:e7:d9:14:51:d5:22:6c:bc:bd:64:01:db:
         f1:b1:c4:9c:38:67:c6:2f:db:90:c5:19:6d:3b:63:0b:e3:47:
         1e:31:4b:56:a2:7e:c1:b2:c6:85:93:32:8c:fa:fe:7d:fa:b4:
         ac:33:f0:92:ff:c9:1b:04:86:23:fa:34:5b:dc:a0:dd:0e:be:
         78:ee:ac:af:ef:cb:8a:c0:2f:e5:98:cf:39:06:29:e0:54:b7:
         58:57:4c:15:d6:59:fb:59:30:23:4c:c0:ba:d6:b4:fb:34:be:
         7c:be:05:a4:3e:07:cc:0b:7a:91:5a:59:9f:08:d0:5e:7e:ad:
         b3:ce:92:5c:50:ad:57:cb:7a:ec:55:92:5e:ab:80:33:ae:87:
         ea:9c:62:e2:25:d4:a9:52:99:5e:ab:ec:1d:e4:07:50:00:66:
         98:dd:69:ef:61:82:6f:05:de:f6:5c:02:d1:29:75:9c:b2:7e:
         51:12:be:4f:28:9a:02:d8:de:be:7a:7c:61:59:80:3f:29:7d:
         93:6c:f8:5a:f2:b9:25:ff:53:eb:12:a8:1b:32:66:4b:01:8e:
         4c:87:18:3e:68:63:dd:52
-----BEGIN CERTIFICATE-----
MIIE2TCCAsGgAwIBAgIRAPYrA4LQm8EYGVDeptXJm20wDQYJKoZIhvcNAQELBQAw
MjELMAkGA1UEBhMCRVMxDzANBgNVBAoMBlRlbGVjbzESMBAGA1UEAwwJQ2xpZW50
IENBMB4XDTIzMDMwNDIyMjUzMVoXDTIzMDYwMjIyMjUzMVowNDELMAkGA1UEBhMC
RVMxDzANBgNVBAoMBlRlbGVjbzEUMBIGA1UEAwwLY2xpZW50dGxzMTMwgdwwDQYJ
KoZIhvcNAQEBBQADgcoAMIHGAoG+AL1F4TThgjopS3OMoxuqZgHbtYSiLTdJFWwj
rV9EvWK+NQQJVIrwUAGxMAQ4/K7N57+TeIhwDkkGxTbe934NHr0S2KlOGZVPbUG+
bYKkU9PKlTSBQN0cER0J1+Ylh6e5Hjx9yo0a5MflgDSpQz95gskrbDdQof0AUlj/
3tUsXMcKWS1YV09zF1NZe5y4HIJBpFX8maQCt/7zIn2bOIHfCbBCIMcNTiGzv5Fh
P+aEQvBW5r8bwz/5eIxIP9W/0QIDAQABo4IBLTCCASkweAYIKwYBBQUHAQEEbDBq
MDUGCCsGAQUFBzAChilodHRwOi8vY2xpZW50LWNhLlRlbGVjby5jb20vY2xpZW50
LWNhLmNydDAxBggrBgEFBQcwAYYlaHR0cDovL29jc3AuY2xpZW50LWNhLlRlbGVj
by5jb206OTA4MjAfBgNVHSMEGDAWgBSxlcgcnzYu5kzBRO4HZym5J/3jxjAMBgNV
HRMBAf8EAjAAMDoGA1UdHwQzMDEwL6AtoCuGKWh0dHA6Ly9jbGllbnQtY2EuVGVs
ZWNvLmNvbS9jbGllbnQtY2EuY3JsMBMGA1UdJQQMMAoGCCsGAQUFBwMCMA4GA1Ud
DwEB/wQEAwIHgDAdBgNVHQ4EFgQUgPjWY0sDmztTCvkcDorV2E8ncqswDQYJKoZI
hvcNAQELBQADggIBAJc5kpgUEE5EfxAdIH3rAKe60EMikLlt2Arl9VBO9U8JQ8uy
JskBXrirZUwP34SNmSYOkIMxG0cnv2S3sRowXYxTRK4aAq6GZOtNf+ItRTfR12bw
Ur6jV+yYEwbvmgPjE/K6+Ky/E7CWM7dnWEarKyFOregjRgN1UOTm14ZzXFlaLebX
uZkZ4r2ol6xrL7/eA0YC3lXyLivEDUXiiFHaebBmayV4wPq9kMKVRk50H83Jegy9
+ZlLWKOkLHqfRFh0g6gomHSbwCLBx9JYae4zvGq8/1GsHqziEAWOIj08uzxb/Kzd
U4azduo5QbDwqb73GX3V0G8LiQwBxgZblQX9la8DfRwnVoKu+ZQjAKOlPZnwIQlf
Zxp6W4T4k0CJLABq3W0qlec3KefZFFHVImy8vWQB2/GxxJw4Z8Yv25DFGW07Ywvj
Rx4xS1aifsGyxoWTMoz6/n36tKwz8JL/yRsEhiP6NFvcoN0OvnjurK/vy4rAL+WY
zzkGKeBUt1hXTBXWWftZMCNMwLrWtPs0vny+BaQ+B8wLepFaWZ8I0F5+rbPOklxQ
rVfLeuxVkl6rgDOuh+qcYuIl1KlSmV6r7B3kB1AAZpjdae9hgm8F3vZcAtEpdZyy
flESvk8omgLY3r56fGFZgD8pfZNs+FryuSX/U+sSqBsyZksBjkyHGD5oY91S
-----END CERTIFICATE-----
