Certificate:
    Data:
        Version: 3 (0x2)
        Serial Number:
            f6:2b:03:82:d0:9b:c1:18:19:50:de:a6:d5:c9:9b:6b
        Signature Algorithm: sha256WithRSAEncryption
        Issuer: C=ES, O=Teleco, CN=Client CA
        Validity
            Not Before: Feb  4 11:15:26 2023 GMT
            Not After : Feb  4 11:15:26 2024 GMT
        Subject: C=ES, O=Teleco, CN=clientFirma
        Subject Public Key Info:
            Public Key Algorithm: rsaEncryption
                RSA Public-Key: (1512 bit)
                Modulus:
                    00:bf:2c:0f:8a:f6:63:1d:92:58:cc:33:3a:bc:8d:
                    02:85:da:81:42:16:10:90:00:4f:4c:c1:ef:71:12:
                    95:2f:9a:0d:b3:33:86:5a:7b:19:59:ae:a7:50:12:
                    db:ad:47:e1:7e:a9:83:ad:45:c1:d7:ca:6a:62:48:
                    2d:c5:1c:79:4c:a0:57:15:36:5c:e8:d1:da:ce:25:
                    1d:76:cb:c2:a2:43:a4:7b:74:6d:30:62:f2:d0:b8:
                    fc:75:d1:97:56:de:b8:d6:c5:12:08:1a:1c:56:79:
                    11:6a:61:31:4c:73:76:62:b8:ee:e8:36:62:23:43:
                    4d:cc:31:0c:5f:f2:e7:f4:3c:10:05:9d:7f:62:c4:
                    d9:b5:81:c4:95:60:92:58:f6:a5:1f:73:e4:d7:ec:
                    06:3b:04:51:70:a4:52:e3:e2:d3:f3:5b:4a:bf:14:
                    a5:cb:35:9d:23:28:24:0a:59:6d:9e:7a:1f:7e:25:
                    f3:2d:9a:38:ff:5a:76:2c:79:19
                Exponent: 65537 (0x10001)
        X509v3 extensions:
            Authority Information Access: 
                CA Issuers - URI:http://client-ca.Teleco.com/client-ca.crt
                OCSP - URI:http://ocsp.client-ca.Teleco.com:9082

            X509v3 Authority Key Identifier: 
                keyid:B1:95:C8:1C:9F:36:2E:E6:4C:C1:44:EE:07:67:29:B9:27:FD:E3:C6

            X509v3 Basic Constraints: critical
                CA:FALSE
            X509v3 CRL Distribution Points: 

                Full Name:
                  URI:http://client-ca.Teleco.com/client-ca.crl

            X509v3 Extended Key Usage: 
                TLS Web Client Authentication
            X509v3 Key Usage: critical
                Digital Signature
            X509v3 Subject Key Identifier: 
                1B:BD:F7:4A:C8:1F:75:CD:A9:41:D9:79:F1:1E:8B:86:A5:55:EE:CF
    Signature Algorithm: sha256WithRSAEncryption
         81:ed:ac:53:67:b1:31:3b:fd:15:3b:84:84:7e:75:78:c2:b8:
         f4:1c:33:f5:8a:ff:26:7e:af:e9:65:92:5b:f6:d5:61:6c:db:
         d9:20:25:d0:26:4b:b6:e4:06:a4:36:44:28:8c:70:de:2c:73:
         57:00:34:33:35:6c:dd:72:73:a7:69:bb:c5:53:a2:91:56:a0:
         b6:6e:83:b5:b8:7d:fe:18:ad:1b:52:3d:1f:10:48:16:2f:de:
         96:f1:e5:a4:85:fc:2e:8f:5e:ab:b9:6b:2a:58:a6:6a:fd:10:
         a1:63:3e:71:a3:eb:09:52:05:86:f3:2b:ad:b8:de:29:48:e0:
         47:45:46:92:22:a0:5f:a5:e7:34:2c:8f:ad:40:22:2a:7a:df:
         26:05:79:6c:89:d3:d5:84:a9:16:14:30:aa:4b:f2:9f:45:a9:
         a0:6d:9b:c8:23:b3:f8:8c:cd:78:80:91:23:52:25:1a:ae:d5:
         0d:e7:8c:5c:4a:9b:4e:77:94:6d:f3:1c:df:43:ea:3d:5f:01:
         e9:3b:7a:a6:3a:02:63:17:26:bd:d9:98:0d:81:46:6f:ee:c0:
         a5:39:7a:5e:39:d2:46:c7:19:15:52:d9:a3:da:6f:b8:51:c5:
         7e:d0:95:81:ce:c2:81:cc:d1:d8:70:fc:3f:42:94:e1:15:32:
         08:3f:3c:f0:d7:7c:2c:52:83:74:3e:75:71:ef:a7:5b:a1:ea:
         53:3e:06:b4:48:88:99:76:a4:e7:b9:9a:25:08:a0:fc:a6:b9:
         e1:94:88:0e:31:05:cc:1c:54:07:75:aa:90:39:b1:82:33:c4:
         92:ee:49:04:58:14:95:dc:2f:0c:00:cb:a2:c7:d6:6b:d3:ff:
         c6:3a:fa:f3:dd:fe:63:a9:c7:ab:8e:14:5a:66:14:ad:51:47:
         26:c0:43:9c:cc:6b:ee:8c:69:54:f5:c8:80:b7:d0:4f:06:4d:
         50:76:6d:aa:02:d6:28:7e:a3:8c:78:6d:20:3d:d9:d1:2b:85:
         0e:fa:8e:a4:a0:79:97:fc:a9:c1:d8:13:6a:40:96:9c:b7:c8:
         aa:0e:42:57:b0:76:b0:46:2e:e1:bc:cc:be:0d:14:16:a2:7c:
         22:47:2b:5a:f0:48:91:27:3e:1a:3e:6c:9e:a4:02:79:65:04:
         1b:1b:5b:bf:8c:cb:90:9c:07:91:58:31:ab:90:a2:50:f8:42:
         59:00:38:11:e1:8a:8d:da:af:54:67:16:22:3e:13:ea:2b:c9:
         a6:3b:81:47:a3:a2:7d:4f:0d:ee:ab:83:45:4e:29:d7:60:7b:
         88:fd:87:18:87:90:42:6f:26:b6:76:02:83:6b:6a:48:fd:83:
         04:5b:27:ce:73:f6:47:b0
-----BEGIN CERTIFICATE-----
MIIE2TCCAsGgAwIBAgIRAPYrA4LQm8EYGVDeptXJm2swDQYJKoZIhvcNAQELBQAw
MjELMAkGA1UEBhMCRVMxDzANBgNVBAoMBlRlbGVjbzESMBAGA1UEAwwJQ2xpZW50
IENBMB4XDTIzMDIwNDExMTUyNloXDTI0MDIwNDExMTUyNlowNDELMAkGA1UEBhMC
RVMxDzANBgNVBAoMBlRlbGVjbzEUMBIGA1UEAwwLY2xpZW50RmlybWEwgdwwDQYJ
KoZIhvcNAQEBBQADgcoAMIHGAoG+AL8sD4r2Yx2SWMwzOryNAoXagUIWEJAAT0zB
73ESlS+aDbMzhlp7GVmup1AS261H4X6pg61FwdfKamJILcUceUygVxU2XOjR2s4l
HXbLwqJDpHt0bTBi8tC4/HXRl1beuNbFEggaHFZ5EWphMUxzdmK47ug2YiNDTcwx
DF/y5/Q8EAWdf2LE2bWBxJVgklj2pR9z5NfsBjsEUXCkUuPi0/NbSr8Upcs1nSMo
JApZbZ56H34l8y2aOP9adix5GQIDAQABo4IBLTCCASkweAYIKwYBBQUHAQEEbDBq
MDUGCCsGAQUFBzAChilodHRwOi8vY2xpZW50LWNhLlRlbGVjby5jb20vY2xpZW50
LWNhLmNydDAxBggrBgEFBQcwAYYlaHR0cDovL29jc3AuY2xpZW50LWNhLlRlbGVj
by5jb206OTA4MjAfBgNVHSMEGDAWgBSxlcgcnzYu5kzBRO4HZym5J/3jxjAMBgNV
HRMBAf8EAjAAMDoGA1UdHwQzMDEwL6AtoCuGKWh0dHA6Ly9jbGllbnQtY2EuVGVs
ZWNvLmNvbS9jbGllbnQtY2EuY3JsMBMGA1UdJQQMMAoGCCsGAQUFBwMCMA4GA1Ud
DwEB/wQEAwIHgDAdBgNVHQ4EFgQUG733Ssgfdc2pQdl58R6LhqVV7s8wDQYJKoZI
hvcNAQELBQADggIBAIHtrFNnsTE7/RU7hIR+dXjCuPQcM/WK/yZ+r+llklv21WFs
29kgJdAmS7bkBqQ2RCiMcN4sc1cANDM1bN1yc6dpu8VTopFWoLZug7W4ff4YrRtS
PR8QSBYv3pbx5aSF/C6PXqu5aypYpmr9EKFjPnGj6wlSBYbzK6243ilI4EdFRpIi
oF+l5zQsj61AIip63yYFeWyJ09WEqRYUMKpL8p9FqaBtm8gjs/iMzXiAkSNSJRqu
1Q3njFxKm053lG3zHN9D6j1fAek7eqY6AmMXJr3ZmA2BRm/uwKU5el450kbHGRVS
2aPab7hRxX7QlYHOwoHM0dhw/D9ClOEVMgg/PPDXfCxSg3Q+dXHvp1uh6lM+BrRI
iJl2pOe5miUIoPymueGUiA4xBcwcVAd1qpA5sYIzxJLuSQRYFJXcLwwAy6LH1mvT
/8Y6+vPd/mOpx6uOFFpmFK1RRybAQ5zMa+6MaVT1yIC30E8GTVB2baoC1ih+o4x4
bSA92dErhQ76jqSgeZf8qcHYE2pAlpy3yKoOQlewdrBGLuG8zL4NFBaifCJHK1rw
SJEnPho+bJ6kAnllBBsbW7+My5CcB5FYMauQolD4QlkAOBHhio3ar1RnFiI+E+or
yaY7gUejon1PDe6rg0VOKddge4j9hxiHkEJvJrZ2AoNrakj9gwRbJ85z9kew
-----END CERTIFICATE-----
