Certificate:
    Data:
        Version: 3 (0x2)
        Serial Number:
            f6:2b:03:82:d0:9b:c1:18:19:50:de:a6:d5:c9:9b:7a
        Signature Algorithm: sha256WithRSAEncryption
        Issuer: C=ES, O=Teleco, CN=Client CA
        Validity
            Not Before: Apr  4 15:51:20 2023 GMT
            Not After : Apr  1 15:51:20 2033 GMT
        Subject: C=ES, O=Teleco, CN=clienttls13
        Subject Public Key Info:
            Public Key Algorithm: rsaEncryption
                RSA Public-Key: (1512 bit)
                Modulus:
                    00:bd:45:e1:34:e1:82:3a:29:4b:73:8c:a3:1b:aa:
                    66:01:db:b5:84:a2:2d:37:49:15:6c:23:ad:5f:44:
                    bd:62:be:35:04:09:54:8a:f0:50:01:b1:30:04:38:
                    fc:ae:cd:e7:bf:93:78:88:70:0e:49:06:c5:36:de:
                    f7:7e:0d:1e:bd:12:d8:a9:4e:19:95:4f:6d:41:be:
                    6d:82:a4:53:d3:ca:95:34:81:40:dd:1c:11:1d:09:
                    d7:e6:25:87:a7:b9:1e:3c:7d:ca:8d:1a:e4:c7:e5:
                    80:34:a9:43:3f:79:82:c9:2b:6c:37:50:a1:fd:00:
                    52:58:ff:de:d5:2c:5c:c7:0a:59:2d:58:57:4f:73:
                    17:53:59:7b:9c:b8:1c:82:41:a4:55:fc:99:a4:02:
                    b7:fe:f3:22:7d:9b:38:81:df:09:b0:42:20:c7:0d:
                    4e:21:b3:bf:91:61:3f:e6:84:42:f0:56:e6:bf:1b:
                    c3:3f:f9:78:8c:48:3f:d5:bf:d1
                Exponent: 65537 (0x10001)
        X509v3 extensions:
            Authority Information Access: 
                OCSP - URI:http://localhost:9080/

            X509v3 Authority Key Identifier: 
                keyid:AF:F9:FE:86:F6:4B:37:FA:61:5A:78:C0:6B:00:62:E8:54:11:C8:23

            X509v3 Basic Constraints: critical
                CA:FALSE
            X509v3 CRL Distribution Points: 

                Full Name:
                  URI:http://client-ca.Teleco.com/client-ca.crl

            X509v3 Extended Key Usage: 
                TLS Web Client Authentication
            X509v3 Key Usage: critical
                Digital Signature
            X509v3 Subject Key Identifier: 
                80:F8:D6:63:4B:03:9B:3B:53:0A:F9:1C:0E:8A:D5:D8:4F:27:72:AB
    Signature Algorithm: sha256WithRSAEncryption
         90:34:c3:42:47:e0:a0:8d:45:b2:7d:b6:e8:64:b5:22:92:bc:
         2b:a2:d3:49:09:ca:a3:5b:2a:dc:63:49:29:b4:a7:f2:b4:ac:
         d5:40:6d:04:ce:03:44:44:35:7b:08:69:98:35:f3:81:05:f6:
         91:0d:d2:68:e9:fa:9f:69:84:8c:32:37:e3:a7:72:0c:c5:2c:
         49:41:61:cf:78:fe:fa:5b:8f:2c:0b:a6:0e:40:cc:7f:36:6d:
         be:07:85:1d:ae:f6:15:af:93:66:c1:a6:dd:a9:96:c9:0a:19:
         dc:fc:76:5c:61:28:5e:d8:2b:46:d4:41:29:7d:a2:9b:f6:74:
         d5:12:0f:9c:b5:98:00:e9:14:f6:49:c3:aa:1e:2a:5c:7a:60:
         88:d1:51:5d:11:1c:18:78:0b:7a:c9:0a:4d:56:ff:0b:e2:05:
         ec:e1:d9:8f:68:93:1b:e4:24:47:49:25:9a:f4:89:93:1e:cb:
         2a:e8:3d:e4:87:15:7f:4c:2a:5d:92:3f:d6:5c:f8:99:ec:c5:
         a0:92:52:36:5f:63:57:14:e6:b1:94:c8:7d:85:eb:f5:4b:51:
         f3:dc:4d:8a:d9:78:49:19:a8:88:f5:5c:21:59:af:88:fb:78:
         73:7b:76:d6:e4:0a:28:e7:a3:67:2e:d3:e4:92:a6:c2:0e:6d:
         40:61:1a:08:eb:40:8d:28:4c:0b:22:1c:ae:6d:b8:e1:09:87:
         d1:6f:e4:08:72:ad:cc:63:bd:12:8e:7c:8c:7d:94:2a:91:30:
         5a:fe:07:e2:1d:6d:4c:8f:f5:b2:b3:65:37:58:d7:fe:7f:21:
         b8:60:21:b2:00:12:fa:d5:26:03:cf:3b:96:76:4a:b9:8a:ce:
         17:6f:22:64:fd:5f:85:5c:50:9c:2e:28:d9:06:aa:d8:1c:4b:
         ff:19:30:d5:ce:5e:78:3e:7a:fb:2b:ff:74:e2:ff:4a:2c:a2:
         71:aa:b1:02:73:0b:51:bb:a9:74:b5:1c:e2:03:5b:3a:ec:1b:
         3f:74:ba:76:72:02:e0:e5:77:6b:c7:8b:a4:08:44:c4:d4:f9:
         8f:9f:33:a1:24:4e:3c:f5:f5:3d:0b:fb:df:17:74:57:86:96:
         fb:86:db:c0:7e:1b:d6:77:62:6b:12:52:1a:86:dc:7a:44:dc:
         f5:2e:88:6e:4a:47:ae:e2:7e:d6:bc:70:92:31:a6:f3:98:9f:
         67:53:e3:a4:ae:b2:5d:2e:00:e4:75:62:a9:28:4b:9b:a9:3e:
         41:02:f9:e2:9f:18:a6:12:15:a1:e1:dc:90:8a:99:78:b3:04:
         d0:28:47:90:c6:de:84:fe:5e:0e:58:19:92:9f:f8:e0:c7:71:
         c0:4e:a5:20:19:17:2d:12
-----BEGIN CERTIFICATE-----
MIIEkTCCAnmgAwIBAgIRAPYrA4LQm8EYGVDeptXJm3owDQYJKoZIhvcNAQELBQAw
MjELMAkGA1UEBhMCRVMxDzANBgNVBAoMBlRlbGVjbzESMBAGA1UEAwwJQ2xpZW50
IENBMB4XDTIzMDQwNDE1NTEyMFoXDTMzMDQwMTE1NTEyMFowNDELMAkGA1UEBhMC
RVMxDzANBgNVBAoMBlRlbGVjbzEUMBIGA1UEAwwLY2xpZW50dGxzMTMwgdwwDQYJ
KoZIhvcNAQEBBQADgcoAMIHGAoG+AL1F4TThgjopS3OMoxuqZgHbtYSiLTdJFWwj
rV9EvWK+NQQJVIrwUAGxMAQ4/K7N57+TeIhwDkkGxTbe934NHr0S2KlOGZVPbUG+
bYKkU9PKlTSBQN0cER0J1+Ylh6e5Hjx9yo0a5MflgDSpQz95gskrbDdQof0AUlj/
3tUsXMcKWS1YV09zF1NZe5y4HIJBpFX8maQCt/7zIn2bOIHfCbBCIMcNTiGzv5Fh
P+aEQvBW5r8bwz/5eIxIP9W/0QIDAQABo4HmMIHjMDIGCCsGAQUFBwEBBCYwJDAi
BggrBgEFBQcwAYYWaHR0cDovL2xvY2FsaG9zdDo5MDgwLzAfBgNVHSMEGDAWgBSv
+f6G9ks3+mFaeMBrAGLoVBHIIzAMBgNVHRMBAf8EAjAAMDoGA1UdHwQzMDEwL6At
oCuGKWh0dHA6Ly9jbGllbnQtY2EuVGVsZWNvLmNvbS9jbGllbnQtY2EuY3JsMBMG
A1UdJQQMMAoGCCsGAQUFBwMCMA4GA1UdDwEB/wQEAwIHgDAdBgNVHQ4EFgQUgPjW
Y0sDmztTCvkcDorV2E8ncqswDQYJKoZIhvcNAQELBQADggIBAJA0w0JH4KCNRbJ9
tuhktSKSvCui00kJyqNbKtxjSSm0p/K0rNVAbQTOA0RENXsIaZg184EF9pEN0mjp
+p9phIwyN+OncgzFLElBYc94/vpbjywLpg5AzH82bb4HhR2u9hWvk2bBpt2plskK
Gdz8dlxhKF7YK0bUQSl9opv2dNUSD5y1mADpFPZJw6oeKlx6YIjRUV0RHBh4C3rJ
Ck1W/wviBezh2Y9okxvkJEdJJZr0iZMeyyroPeSHFX9MKl2SP9Zc+JnsxaCSUjZf
Y1cU5rGUyH2F6/VLUfPcTYrZeEkZqIj1XCFZr4j7eHN7dtbkCijno2cu0+SSpsIO
bUBhGgjrQI0oTAsiHK5tuOEJh9Fv5AhyrcxjvRKOfIx9lCqRMFr+B+IdbUyP9bKz
ZTdY1/5/IbhgIbIAEvrVJgPPO5Z2SrmKzhdvImT9X4VcUJwuKNkGqtgcS/8ZMNXO
Xng+evsr/3Ti/0osonGqsQJzC1G7qXS1HOIDWzrsGz90unZyAuDld2vHi6QIRMTU
+Y+fM6EkTjz19T0L+98XdFeGlvuG28B+G9Z3YmsSUhqG3HpE3PUuiG5KR67ifta8
cJIxpvOYn2dT46Susl0uAOR1YqkoS5upPkEC+eKfGKYSFaHh3JCKmXizBNAoR5DG
3oT+Xg5YGZKf+ODHccBOpSAZFy0S
-----END CERTIFICATE-----
