Certificate:
    Data:
        Version: 3 (0x2)
        Serial Number:
            f6:2b:03:82:d0:9b:c1:18:19:50:de:a6:d5:c9:9b:77
        Signature Algorithm: sha256WithRSAEncryption
        Issuer: C=ES, O=Teleco, CN=Client CA
        Validity
            Not Before: Apr  4 11:01:58 2023 GMT
            Not After : Apr  1 11:01:58 2033 GMT
        Subject: C=ES, O=Teleco, CN=clienttls13
        Subject Public Key Info:
            Public Key Algorithm: rsaEncryption
                RSA Public-Key: (1512 bit)
                Modulus:
                    00:bd:45:e1:34:e1:82:3a:29:4b:73:8c:a3:1b:aa:
                    66:01:db:b5:84:a2:2d:37:49:15:6c:23:ad:5f:44:
                    bd:62:be:35:04:09:54:8a:f0:50:01:b1:30:04:38:
                    fc:ae:cd:e7:bf:93:78:88:70:0e:49:06:c5:36:de:
                    f7:7e:0d:1e:bd:12:d8:a9:4e:19:95:4f:6d:41:be:
                    6d:82:a4:53:d3:ca:95:34:81:40:dd:1c:11:1d:09:
                    d7:e6:25:87:a7:b9:1e:3c:7d:ca:8d:1a:e4:c7:e5:
                    80:34:a9:43:3f:79:82:c9:2b:6c:37:50:a1:fd:00:
                    52:58:ff:de:d5:2c:5c:c7:0a:59:2d:58:57:4f:73:
                    17:53:59:7b:9c:b8:1c:82:41:a4:55:fc:99:a4:02:
                    b7:fe:f3:22:7d:9b:38:81:df:09:b0:42:20:c7:0d:
                    4e:21:b3:bf:91:61:3f:e6:84:42:f0:56:e6:bf:1b:
                    c3:3f:f9:78:8c:48:3f:d5:bf:d1
                Exponent: 65537 (0x10001)
        X509v3 extensions:
            Authority Information Access: 
                CA Issuers - URI:http://client-ca.Teleco.com/client-ca.crt
                OCSP - URI:http://ocsp.client-ca.Teleco.com:9080

            X509v3 Authority Key Identifier: 
                keyid:74:91:20:66:C9:D8:96:15:36:55:EA:23:52:19:A5:C7:DE:8C:0B:1C

            X509v3 Basic Constraints: critical
                CA:FALSE
            X509v3 CRL Distribution Points: 

                Full Name:
                  URI:http://client-ca.Teleco.com/client-ca.crl

            X509v3 Extended Key Usage: 
                TLS Web Client Authentication
            X509v3 Key Usage: critical
                Digital Signature
            X509v3 Subject Key Identifier: 
                80:F8:D6:63:4B:03:9B:3B:53:0A:F9:1C:0E:8A:D5:D8:4F:27:72:AB
    Signature Algorithm: sha256WithRSAEncryption
         f0:10:39:85:32:ec:73:e3:b5:10:79:62:c6:83:22:98:cc:07:
         5c:07:f3:80:8a:21:1e:ac:d4:f8:5b:99:0d:bb:9d:ab:38:86:
         89:57:12:36:38:f7:a4:7f:df:00:f3:30:8c:7c:da:e8:8a:b5:
         d8:5b:2a:8b:99:1f:b7:f6:2a:13:e4:c8:f6:19:f1:5c:70:14:
         90:3d:99:a2:6b:29:33:e8:8e:64:3a:82:76:b6:d2:51:83:73:
         94:1a:6d:a8:0a:e5:f1:ae:f9:70:d3:ce:d5:79:90:c4:c5:b6:
         5f:41:56:af:b6:cf:c5:d6:d4:2d:d6:03:e0:fa:92:93:cf:84:
         73:d4:d1:ce:a5:0c:ba:b5:7e:0e:bf:39:55:24:d2:35:1d:c4:
         ee:5e:f3:af:f4:8b:83:de:52:de:45:46:b3:91:12:6c:9e:22:
         6f:2b:dd:41:80:eb:ed:bb:4f:65:93:b4:28:37:ae:ac:93:3c:
         96:04:33:19:9b:54:26:45:01:f2:74:60:e6:de:cd:42:a9:85:
         88:24:1c:ce:5c:7b:71:18:31:56:10:59:cd:cc:fe:f7:73:42:
         f6:b2:40:fe:ba:1b:0c:5e:4c:62:0f:bb:70:b0:ce:b2:a5:5d:
         0e:4e:e4:02:59:e5:78:2e:22:d5:16:26:2b:ed:a3:d4:37:a4:
         8d:db:96:0e:de:ff:37:71:6d:99:b3:e0:10:cd:88:67:74:70:
         43:fb:80:be:21:5e:96:ba:58:7f:e6:b5:a3:4a:06:e6:93:6b:
         7c:fa:8f:1b:2a:4c:03:bb:f4:ca:db:41:59:6f:22:96:03:34:
         48:e6:f1:15:0e:49:42:9a:33:5d:ec:d9:c0:13:88:49:66:86:
         1b:23:2f:d6:58:43:67:9f:5b:e3:d4:bc:84:03:f3:ee:01:a8:
         40:fc:a6:1e:ef:11:01:e3:2b:f8:cd:c1:cc:09:f7:26:b1:96:
         98:8d:fb:ef:86:71:f6:c8:c1:36:02:4d:29:aa:06:a1:a3:58:
         d2:03:fb:2a:40:d8:4f:9f:2e:1c:1c:67:2a:ff:6b:59:6a:b5:
         d5:d4:ee:ba:eb:82:b2:3e:03:cc:69:eb:41:a4:b3:19:ba:0c:
         b0:98:78:dd:71:f3:cb:9a:e9:dd:a9:91:50:bd:a3:44:38:5b:
         b1:91:0b:ba:94:ee:0a:e1:47:e2:63:f8:a6:8a:61:4b:12:64:
         14:b9:d7:e6:e0:9c:3b:a2:92:86:c8:ba:a4:72:5c:a0:2f:63:
         1f:66:90:52:39:99:93:40:d2:79:43:5f:4c:4e:69:d3:49:d6:
         36:77:63:74:39:b7:f4:3a:4a:ee:65:84:79:c2:36:f1:f1:35:
         41:ac:1a:69:26:34:aa:b5
-----BEGIN CERTIFICATE-----
MIIE2TCCAsGgAwIBAgIRAPYrA4LQm8EYGVDeptXJm3cwDQYJKoZIhvcNAQELBQAw
MjELMAkGA1UEBhMCRVMxDzANBgNVBAoMBlRlbGVjbzESMBAGA1UEAwwJQ2xpZW50
IENBMB4XDTIzMDQwNDExMDE1OFoXDTMzMDQwMTExMDE1OFowNDELMAkGA1UEBhMC
RVMxDzANBgNVBAoMBlRlbGVjbzEUMBIGA1UEAwwLY2xpZW50dGxzMTMwgdwwDQYJ
KoZIhvcNAQEBBQADgcoAMIHGAoG+AL1F4TThgjopS3OMoxuqZgHbtYSiLTdJFWwj
rV9EvWK+NQQJVIrwUAGxMAQ4/K7N57+TeIhwDkkGxTbe934NHr0S2KlOGZVPbUG+
bYKkU9PKlTSBQN0cER0J1+Ylh6e5Hjx9yo0a5MflgDSpQz95gskrbDdQof0AUlj/
3tUsXMcKWS1YV09zF1NZe5y4HIJBpFX8maQCt/7zIn2bOIHfCbBCIMcNTiGzv5Fh
P+aEQvBW5r8bwz/5eIxIP9W/0QIDAQABo4IBLTCCASkweAYIKwYBBQUHAQEEbDBq
MDUGCCsGAQUFBzAChilodHRwOi8vY2xpZW50LWNhLlRlbGVjby5jb20vY2xpZW50
LWNhLmNydDAxBggrBgEFBQcwAYYlaHR0cDovL29jc3AuY2xpZW50LWNhLlRlbGVj
by5jb206OTA4MDAfBgNVHSMEGDAWgBR0kSBmydiWFTZV6iNSGaXH3owLHDAMBgNV
HRMBAf8EAjAAMDoGA1UdHwQzMDEwL6AtoCuGKWh0dHA6Ly9jbGllbnQtY2EuVGVs
ZWNvLmNvbS9jbGllbnQtY2EuY3JsMBMGA1UdJQQMMAoGCCsGAQUFBwMCMA4GA1Ud
DwEB/wQEAwIHgDAdBgNVHQ4EFgQUgPjWY0sDmztTCvkcDorV2E8ncqswDQYJKoZI
hvcNAQELBQADggIBAPAQOYUy7HPjtRB5YsaDIpjMB1wH84CKIR6s1PhbmQ27nas4
holXEjY496R/3wDzMIx82uiKtdhbKouZH7f2KhPkyPYZ8VxwFJA9maJrKTPojmQ6
gna20lGDc5QabagK5fGu+XDTztV5kMTFtl9BVq+2z8XW1C3WA+D6kpPPhHPU0c6l
DLq1fg6/OVUk0jUdxO5e86/0i4PeUt5FRrOREmyeIm8r3UGA6+27T2WTtCg3rqyT
PJYEMxmbVCZFAfJ0YObezUKphYgkHM5ce3EYMVYQWc3M/vdzQvayQP66GwxeTGIP
u3CwzrKlXQ5O5AJZ5XguItUWJivto9Q3pI3blg7e/zdxbZmz4BDNiGd0cEP7gL4h
Xpa6WH/mtaNKBuaTa3z6jxsqTAO79MrbQVlvIpYDNEjm8RUOSUKaM13s2cATiElm
hhsjL9ZYQ2efW+PUvIQD8+4BqED8ph7vEQHjK/jNwcwJ9yaxlpiN+++GcfbIwTYC
TSmqBqGjWNID+ypA2E+fLhwcZyr/a1lqtdXU7rrrgrI+A8xp60Gksxm6DLCYeN1x
88ua6d2pkVC9o0Q4W7GRC7qU7grhR+Jj+KaKYUsSZBS51+bgnDuikobIuqRyXKAv
Yx9mkFI5mZNA0nlDX0xOadNJ1jZ3Y3Q5t/Q6Su5lhHnCNvHxNUGsGmkmNKq1
-----END CERTIFICATE-----
