Certificate:
    Data:
        Version: 3 (0x2)
        Serial Number:
            f6:2b:03:82:d0:9b:c1:18:19:50:de:a6:d5:c9:9b:75
        Signature Algorithm: sha256WithRSAEncryption
        Issuer: C=ES, O=Teleco, CN=Client CA
        Validity
            Not Before: Apr  3 22:13:38 2023 GMT
            Not After : Mar 31 22:13:38 2033 GMT
        Subject: C=ES, O=Teleco, CN=clienttls13
        Subject Public Key Info:
            Public Key Algorithm: rsaEncryption
                RSA Public-Key: (1512 bit)
                Modulus:
                    00:bd:45:e1:34:e1:82:3a:29:4b:73:8c:a3:1b:aa:
                    66:01:db:b5:84:a2:2d:37:49:15:6c:23:ad:5f:44:
                    bd:62:be:35:04:09:54:8a:f0:50:01:b1:30:04:38:
                    fc:ae:cd:e7:bf:93:78:88:70:0e:49:06:c5:36:de:
                    f7:7e:0d:1e:bd:12:d8:a9:4e:19:95:4f:6d:41:be:
                    6d:82:a4:53:d3:ca:95:34:81:40:dd:1c:11:1d:09:
                    d7:e6:25:87:a7:b9:1e:3c:7d:ca:8d:1a:e4:c7:e5:
                    80:34:a9:43:3f:79:82:c9:2b:6c:37:50:a1:fd:00:
                    52:58:ff:de:d5:2c:5c:c7:0a:59:2d:58:57:4f:73:
                    17:53:59:7b:9c:b8:1c:82:41:a4:55:fc:99:a4:02:
                    b7:fe:f3:22:7d:9b:38:81:df:09:b0:42:20:c7:0d:
                    4e:21:b3:bf:91:61:3f:e6:84:42:f0:56:e6:bf:1b:
                    c3:3f:f9:78:8c:48:3f:d5:bf:d1
                Exponent: 65537 (0x10001)
        X509v3 extensions:
            Authority Information Access: 
                CA Issuers - URI:http://client-ca.Teleco.com/client-ca.crt
                OCSP - URI:http://ocsp.client-ca.Teleco.com:9080

            X509v3 Authority Key Identifier: 
                keyid:FF:9B:44:64:29:EB:55:5D:A6:74:EB:1C:14:16:8A:BE:AC:B9:90:85

            X509v3 Basic Constraints: critical
                CA:FALSE
            X509v3 CRL Distribution Points: 

                Full Name:
                  URI:http://client-ca.Teleco.com/client-ca.crl

            X509v3 Extended Key Usage: 
                TLS Web Client Authentication
            X509v3 Key Usage: critical
                Digital Signature
            X509v3 Subject Key Identifier: 
                80:F8:D6:63:4B:03:9B:3B:53:0A:F9:1C:0E:8A:D5:D8:4F:27:72:AB
    Signature Algorithm: sha256WithRSAEncryption
         62:f3:9a:45:5a:53:80:bd:44:34:9d:d2:1d:e9:c9:7d:0e:6e:
         3b:63:51:17:69:0b:b5:d3:4c:e4:3f:42:52:37:af:a0:30:ae:
         0e:ec:c4:06:38:79:79:2e:ed:ac:1d:2a:77:d0:6d:d2:e9:54:
         e5:ba:9e:89:03:f8:10:85:9d:05:40:cd:23:89:92:43:38:f9:
         d3:bf:a4:d7:31:35:cc:b2:44:2d:58:0b:f8:35:fe:9e:a4:1b:
         b7:54:47:9b:fb:9d:fd:dd:91:6e:7a:80:48:95:ca:f5:aa:61:
         3d:81:d3:99:15:f3:5e:8d:2b:41:58:29:c8:3f:d4:e1:20:34:
         12:d6:1c:90:11:97:b7:56:72:d5:2d:fd:3b:38:99:4e:0b:59:
         87:b5:ad:8b:a9:5b:a7:06:de:91:a9:5e:aa:b2:db:e9:2c:5d:
         cf:9b:03:88:0c:01:a0:59:e4:7e:9c:10:32:eb:c8:03:30:8c:
         17:37:11:8c:0c:14:a5:a8:91:4b:55:1b:f0:68:83:5a:56:09:
         bb:e5:c6:3a:74:8a:d4:82:76:3e:44:42:50:df:18:0a:23:83:
         22:a0:43:fb:60:f5:91:a7:49:f6:2a:e8:0c:7d:09:1a:25:c3:
         31:3e:8a:52:9b:3b:aa:ae:77:2e:f3:ba:4e:1a:e8:ae:e2:21:
         9e:01:95:40:9f:c1:b8:01:b4:3f:e4:a4:d1:3f:ba:bc:57:01:
         7f:c3:38:60:93:a8:e1:18:de:6c:bf:aa:bd:48:9e:43:f5:ee:
         bb:f1:b2:ca:90:af:0c:d4:92:24:c2:42:28:bb:94:91:a8:9d:
         a5:e6:b4:44:28:11:b4:5f:02:3b:be:45:4a:7b:96:f2:9d:bd:
         08:0f:4c:bb:36:10:bc:da:b7:a2:b7:ca:e3:c0:fe:a6:6e:e9:
         f6:48:10:f9:45:7e:e9:2e:07:52:e8:b1:72:ff:ff:e0:3c:5e:
         db:00:34:33:8b:0d:ef:1a:3a:d9:f3:9c:81:56:d8:6b:1f:94:
         7b:93:38:8e:84:52:47:b4:b5:8b:99:e2:dc:87:27:0f:70:b7:
         ef:63:29:f0:9b:71:fe:96:37:13:d1:d8:e6:68:b9:6e:66:4c:
         90:ef:7a:c5:a2:5c:d6:a0:e2:da:9d:a2:de:47:d9:a1:33:8b:
         f8:6e:d1:d6:6f:db:8b:e1:db:fb:8b:46:b0:4b:91:a7:ca:67:
         8f:9c:04:64:ce:ea:3d:de:67:5d:17:b4:67:f8:9d:d8:59:fa:
         5d:51:24:46:a3:38:d2:1e:a5:ce:2e:56:f8:64:10:21:62:05:
         3f:34:0d:13:71:da:80:b4:a4:ed:3a:e0:2b:da:8f:c0:c1:38:
         63:1e:02:9e:0c:7c:35:31
-----BEGIN CERTIFICATE-----
MIIE2TCCAsGgAwIBAgIRAPYrA4LQm8EYGVDeptXJm3UwDQYJKoZIhvcNAQELBQAw
MjELMAkGA1UEBhMCRVMxDzANBgNVBAoMBlRlbGVjbzESMBAGA1UEAwwJQ2xpZW50
IENBMB4XDTIzMDQwMzIyMTMzOFoXDTMzMDMzMTIyMTMzOFowNDELMAkGA1UEBhMC
RVMxDzANBgNVBAoMBlRlbGVjbzEUMBIGA1UEAwwLY2xpZW50dGxzMTMwgdwwDQYJ
KoZIhvcNAQEBBQADgcoAMIHGAoG+AL1F4TThgjopS3OMoxuqZgHbtYSiLTdJFWwj
rV9EvWK+NQQJVIrwUAGxMAQ4/K7N57+TeIhwDkkGxTbe934NHr0S2KlOGZVPbUG+
bYKkU9PKlTSBQN0cER0J1+Ylh6e5Hjx9yo0a5MflgDSpQz95gskrbDdQof0AUlj/
3tUsXMcKWS1YV09zF1NZe5y4HIJBpFX8maQCt/7zIn2bOIHfCbBCIMcNTiGzv5Fh
P+aEQvBW5r8bwz/5eIxIP9W/0QIDAQABo4IBLTCCASkweAYIKwYBBQUHAQEEbDBq
MDUGCCsGAQUFBzAChilodHRwOi8vY2xpZW50LWNhLlRlbGVjby5jb20vY2xpZW50
LWNhLmNydDAxBggrBgEFBQcwAYYlaHR0cDovL29jc3AuY2xpZW50LWNhLlRlbGVj
by5jb206OTA4MDAfBgNVHSMEGDAWgBT/m0RkKetVXaZ06xwUFoq+rLmQhTAMBgNV
HRMBAf8EAjAAMDoGA1UdHwQzMDEwL6AtoCuGKWh0dHA6Ly9jbGllbnQtY2EuVGVs
ZWNvLmNvbS9jbGllbnQtY2EuY3JsMBMGA1UdJQQMMAoGCCsGAQUFBwMCMA4GA1Ud
DwEB/wQEAwIHgDAdBgNVHQ4EFgQUgPjWY0sDmztTCvkcDorV2E8ncqswDQYJKoZI
hvcNAQELBQADggIBAGLzmkVaU4C9RDSd0h3pyX0ObjtjURdpC7XTTOQ/QlI3r6Aw
rg7sxAY4eXku7awdKnfQbdLpVOW6nokD+BCFnQVAzSOJkkM4+dO/pNcxNcyyRC1Y
C/g1/p6kG7dUR5v7nf3dkW56gEiVyvWqYT2B05kV816NK0FYKcg/1OEgNBLWHJAR
l7dWctUt/Ts4mU4LWYe1rYupW6cG3pGpXqqy2+ksXc+bA4gMAaBZ5H6cEDLryAMw
jBc3EYwMFKWokUtVG/Bog1pWCbvlxjp0itSCdj5EQlDfGAojgyKgQ/tg9ZGnSfYq
6Ax9CRolwzE+ilKbO6qudy7zuk4a6K7iIZ4BlUCfwbgBtD/kpNE/urxXAX/DOGCT
qOEY3my/qr1InkP17rvxssqQrwzUkiTCQii7lJGonaXmtEQoEbRfAju+RUp7lvKd
vQgPTLs2ELzat6K3yuPA/qZu6fZIEPlFfukuB1LosXL//+A8XtsANDOLDe8aOtnz
nIFW2GsflHuTOI6EUke0tYuZ4tyHJw9wt+9jKfCbcf6WNxPR2OZouW5mTJDvesWi
XNag4tqdot5H2aEzi/hu0dZv24vh2/uLRrBLkafKZ4+cBGTO6j3eZ10XtGf4ndhZ
+l1RJEajONIepc4uVvhkECFiBT80DRNx2oC0pO064Cvaj8DBOGMeAp4MfDUx
-----END CERTIFICATE-----
