Certificate:
    Data:
        Version: 3 (0x2)
        Serial Number:
            f6:2b:03:82:d0:9b:c1:18:19:50:de:a6:d5:c9:9b:7e
        Signature Algorithm: sha256WithRSAEncryption
        Issuer: C=ES, O=Teleco, CN=Client CA
        Validity
            Not Before: Apr  5 09:44:08 2023 GMT
            Not After : Apr  2 09:44:08 2033 GMT
        Subject: C=ES, O=Teleco, CN=clienttls13
        Subject Public Key Info:
            Public Key Algorithm: rsaEncryption
                RSA Public-Key: (2048 bit)
                Modulus:
                    00:cb:55:cf:da:72:56:c7:c2:8f:fe:85:68:b7:e9:
                    26:ec:33:ed:b2:da:bb:5e:64:63:3a:10:f3:59:63:
                    ed:c6:62:7e:9b:35:c7:c6:6b:0c:d8:f4:ea:81:a9:
                    20:c0:2e:65:1f:f0:a7:67:94:8a:1d:61:b0:fa:e5:
                    71:ad:02:39:d9:ee:56:a4:fd:6d:a6:4a:f3:88:ce:
                    84:2b:47:2f:08:b1:8a:ac:3f:53:22:55:e1:6f:21:
                    c2:3c:01:1a:bc:93:79:72:d9:d5:eb:34:ee:50:5e:
                    49:14:86:a4:c8:27:62:69:18:6f:3c:4e:89:df:c9:
                    73:3d:3c:52:c0:76:47:43:ab:92:78:61:c0:d2:4a:
                    61:78:84:e6:50:72:43:f9:f4:7e:cd:67:50:5a:d3:
                    4d:77:23:61:80:4b:c2:d4:71:27:d0:fe:85:3b:b8:
                    ee:a7:e5:36:86:1b:a3:d1:53:41:cc:76:03:b7:6a:
                    d0:93:7d:f3:db:02:d3:ea:fe:b8:c1:98:86:63:53:
                    b2:31:af:eb:c8:f5:06:78:e7:28:ab:d3:c2:5e:59:
                    4a:14:c8:47:28:3d:19:6f:8a:84:1b:d2:a7:85:7f:
                    7d:85:c8:7e:f7:b8:f0:f9:1a:ba:5c:98:83:57:eb:
                    33:a2:db:5a:d8:0a:67:c8:08:93:4a:dd:10:41:22:
                    5a:bd
                Exponent: 65537 (0x10001)
        X509v3 extensions:
            Authority Information Access: 
                CA Issuers - URI:http://client-ca.Teleco.com/client-ca.crt
                OCSP - URI:http://ocsp.client-ca.Teleco.com:9080

            X509v3 Authority Key Identifier: 
                keyid:F2:6C:06:3E:0B:82:A2:58:20:F4:65:DE:2C:FD:C3:E5:E2:13:A1:58

            X509v3 Basic Constraints: critical
                CA:FALSE
            X509v3 CRL Distribution Points: 

                Full Name:
                  URI:http://client-ca.Teleco.com/client-ca.crl

            X509v3 Extended Key Usage: 
                TLS Web Client Authentication
            X509v3 Key Usage: critical
                Digital Signature
            X509v3 Subject Key Identifier: 
                57:35:3C:AC:E6:BE:D3:7F:30:58:35:28:33:2F:3C:B6:C4:65:09:DA
    Signature Algorithm: sha256WithRSAEncryption
         6a:53:79:4c:01:c7:44:71:1f:56:f7:6c:d8:07:17:ea:a9:2d:
         9b:9e:d8:33:b5:bc:2f:97:23:39:69:fa:91:2f:d5:dc:f2:34:
         54:7b:ad:f2:ed:4c:0d:06:7b:46:91:60:eb:16:0f:a0:aa:7a:
         db:53:20:44:bc:07:55:82:b4:59:df:4b:b8:0c:2a:98:d6:db:
         75:f9:e1:0a:5f:51:b8:b4:6e:26:0d:c4:e7:bc:ea:43:e2:8f:
         ae:9a:4f:8e:eb:50:e0:79:d3:33:8f:3e:cc:10:8b:1d:38:5e:
         e8:b8:d2:e0:f7:d7:e3:36:a1:a2:b3:d6:55:20:16:6e:0b:99:
         02:df:3d:61:8b:1f:12:83:68:a2:ac:0d:4a:d1:22:86:28:54:
         26:5a:1b:98:7c:08:67:e1:1d:6e:ec:34:6a:22:79:2a:da:8a:
         0e:55:61:fe:58:80:2c:c4:8a:6b:e3:84:a7:a8:b5:06:9b:d1:
         d3:53:65:5e:82:1e:74:51:a9:6a:ae:cc:6b:b5:4f:c1:be:bd:
         88:5d:64:eb:27:ec:38:be:47:15:c0:26:c0:16:9e:ed:da:dc:
         86:f3:d1:cb:09:17:60:b5:ee:b3:b1:1e:08:e6:e9:9e:14:80:
         e8:22:fe:e2:35:6f:04:7d:5b:db:88:48:f4:f6:35:45:cc:76:
         fc:20:55:d5:6e:d6:3b:18:0a:87:3f:0e:79:6a:4e:d1:42:bf:
         a8:90:c3:d3:85:07:70:e8:ac:8a:f0:00:78:8a:03:91:49:05:
         a0:f3:86:96:5a:90:98:f8:3a:9b:22:82:0d:e3:11:f4:88:f7:
         c2:71:30:00:cb:dd:37:e5:8d:40:de:a2:da:b1:f1:da:3b:75:
         b8:49:c5:90:c0:d1:13:d5:a1:cd:e3:05:37:fc:cc:74:ed:72:
         c9:e2:a1:7a:f4:30:46:c2:58:ca:db:76:b4:a3:9e:aa:71:cd:
         49:9e:30:f7:65:ac:85:2b:db:ca:d4:ab:63:d2:a7:c2:95:90:
         f7:a7:6a:d3:87:df:f3:1a:64:47:b5:43:d4:20:c9:03:d4:31:
         a0:21:ba:e9:04:0a:5e:89:54:bc:cd:03:c6:55:5b:c2:0f:d1:
         7d:0c:9d:b6:ea:c4:88:15:0b:07:74:9b:d7:23:b1:b1:0a:7d:
         d4:8c:7e:61:43:aa:6f:8f:39:d1:9b:20:b3:3a:6e:71:69:d0:
         65:54:fa:71:f4:76:c8:ef:b2:d8:67:54:3e:d0:b1:70:46:ca:
         17:1c:a2:41:ae:3c:20:75:b0:82:21:69:8d:dd:51:04:6a:4e:
         f2:6c:74:b1:2a:b6:5d:65:2d:aa:d1:8a:db:47:2f:d0:a1:ee:
         97:fb:bf:72:db:e0:8b:96
-----BEGIN CERTIFICATE-----
MIIFIDCCAwigAwIBAgIRAPYrA4LQm8EYGVDeptXJm34wDQYJKoZIhvcNAQELBQAw
MjELMAkGA1UEBhMCRVMxDzANBgNVBAoMBlRlbGVjbzESMBAGA1UEAwwJQ2xpZW50
IENBMB4XDTIzMDQwNTA5NDQwOFoXDTMzMDQwMjA5NDQwOFowNDELMAkGA1UEBhMC
RVMxDzANBgNVBAoMBlRlbGVjbzEUMBIGA1UEAwwLY2xpZW50dGxzMTMwggEiMA0G
CSqGSIb3DQEBAQUAA4IBDwAwggEKAoIBAQDLVc/aclbHwo/+hWi36SbsM+2y2rte
ZGM6EPNZY+3GYn6bNcfGawzY9OqBqSDALmUf8KdnlIodYbD65XGtAjnZ7lak/W2m
SvOIzoQrRy8IsYqsP1MiVeFvIcI8ARq8k3ly2dXrNO5QXkkUhqTIJ2JpGG88Tonf
yXM9PFLAdkdDq5J4YcDSSmF4hOZQckP59H7NZ1Ba0013I2GAS8LUcSfQ/oU7uO6n
5TaGG6PRU0HMdgO3atCTffPbAtPq/rjBmIZjU7Ixr+vI9QZ45yir08JeWUoUyEco
PRlvioQb0qeFf32FyH73uPD5GrpcmINX6zOi21rYCmfICJNK3RBBIlq9AgMBAAGj
ggEtMIIBKTB4BggrBgEFBQcBAQRsMGowNQYIKwYBBQUHMAKGKWh0dHA6Ly9jbGll
bnQtY2EuVGVsZWNvLmNvbS9jbGllbnQtY2EuY3J0MDEGCCsGAQUFBzABhiVodHRw
Oi8vb2NzcC5jbGllbnQtY2EuVGVsZWNvLmNvbTo5MDgwMB8GA1UdIwQYMBaAFPJs
Bj4LgqJYIPRl3iz9w+XiE6FYMAwGA1UdEwEB/wQCMAAwOgYDVR0fBDMwMTAvoC2g
K4YpaHR0cDovL2NsaWVudC1jYS5UZWxlY28uY29tL2NsaWVudC1jYS5jcmwwEwYD
VR0lBAwwCgYIKwYBBQUHAwIwDgYDVR0PAQH/BAQDAgeAMB0GA1UdDgQWBBRXNTys
5r7TfzBYNSgzLzy2xGUJ2jANBgkqhkiG9w0BAQsFAAOCAgEAalN5TAHHRHEfVvds
2AcX6qktm57YM7W8L5cjOWn6kS/V3PI0VHut8u1MDQZ7RpFg6xYPoKp621MgRLwH
VYK0Wd9LuAwqmNbbdfnhCl9RuLRuJg3E57zqQ+KPrppPjutQ4HnTM48+zBCLHThe
6LjS4PfX4zahorPWVSAWbguZAt89YYsfEoNooqwNStEihihUJlobmHwIZ+Edbuw0
aiJ5KtqKDlVh/liALMSKa+OEp6i1BpvR01NlXoIedFGpaq7Ma7VPwb69iF1k6yfs
OL5HFcAmwBae7drchvPRywkXYLXus7EeCObpnhSA6CL+4jVvBH1b24hI9PY1Rcx2
/CBV1W7WOxgKhz8OeWpO0UK/qJDD04UHcOisivAAeIoDkUkFoPOGllqQmPg6myKC
DeMR9Ij3wnEwAMvdN+WNQN6i2rHx2jt1uEnFkMDRE9WhzeMFN/zMdO1yyeKhevQw
RsJYytt2tKOeqnHNSZ4w92WshSvbytSrY9KnwpWQ96dq04ff8xpkR7VD1CDJA9Qx
oCG66QQKXolUvM0DxlVbwg/RfQydturEiBULB3Sb1yOxsQp91Ix+YUOqb4850Zsg
szpucWnQZVT6cfR2yO+y2GdUPtCxcEbKFxyiQa48IHWwgiFpjd1RBGpO8mx0sSq2
XWUtqtGK20cv0KHul/u/ctvgi5Y=
-----END CERTIFICATE-----
