Certificate:
    Data:
        Version: 3 (0x2)
        Serial Number:
            f6:2b:03:82:d0:9b:c1:18:19:50:de:a6:d5:c9:9b:6a
        Signature Algorithm: sha256WithRSAEncryption
        Issuer: C=ES, O=Teleco, CN=Client CA
        Validity
            Not Before: Jan 11 18:11:08 2023 GMT
            Not After : Feb 10 18:11:08 2023 GMT
        Subject: C=ES, O=Teleco, CN=ClientTLS13
        Subject Public Key Info:
            Public Key Algorithm: rsaEncryption
                RSA Public-Key: (2048 bit)
                Modulus:
                    00:ce:c9:5c:4d:23:e1:00:1a:ff:92:26:e9:38:04:
                    87:d4:97:48:e0:b0:b3:9c:2c:30:19:da:75:c3:6d:
                    c9:b5:11:45:71:ac:60:64:e5:50:d2:2d:a3:43:7d:
                    09:b6:9a:42:07:15:df:6d:6f:76:05:01:f8:c5:08:
                    1a:97:26:d7:3a:83:95:0f:ed:83:ac:10:34:18:d2:
                    76:0d:bd:21:e5:ab:8a:2f:a0:6e:0b:33:22:60:19:
                    ed:6a:1c:ab:9a:8c:d5:fa:1a:ac:35:af:3f:c8:86:
                    ac:f5:75:79:1f:2e:a5:a9:38:5d:af:8e:9b:ab:0e:
                    8f:73:f4:13:08:8c:bb:a1:97:c5:b7:f4:3f:8c:1f:
                    a9:ab:e5:ff:de:47:8b:f8:fd:48:16:99:1c:fc:6e:
                    a5:75:fb:a1:e6:72:f6:bb:2f:7f:87:91:be:76:a3:
                    cb:e6:81:89:53:16:76:6f:49:f9:db:0b:cb:24:ff:
                    03:51:0b:97:cd:bd:ae:d8:d0:e4:96:ce:e7:9a:b0:
                    c9:dc:b4:d4:ef:6b:af:66:83:66:a8:f1:55:99:44:
                    e9:55:bf:c7:7c:5b:32:c3:a1:2d:4b:7d:2c:d7:6d:
                    82:60:3e:ab:cc:f7:42:65:c7:78:94:40:09:25:22:
                    15:2d:00:c5:df:ab:bb:45:49:4e:b1:4b:b8:0e:73:
                    75:3f
                Exponent: 65537 (0x10001)
        X509v3 extensions:
            Authority Information Access: 
                CA Issuers - URI:http://client-ca.Teleco.com/client-ca.crt
                OCSP - URI:http://ocsp.client-ca.Teleco.com:9082

            X509v3 Authority Key Identifier: 
                keyid:B1:95:C8:1C:9F:36:2E:E6:4C:C1:44:EE:07:67:29:B9:27:FD:E3:C6

            X509v3 Basic Constraints: critical
                CA:FALSE
            X509v3 CRL Distribution Points: 

                Full Name:
                  URI:http://client-ca.Teleco.com/client-ca.crl

            X509v3 Extended Key Usage: 
                TLS Web Client Authentication
            X509v3 Key Usage: critical
                Digital Signature
            X509v3 Subject Key Identifier: 
                FD:AF:6C:25:89:01:6C:73:89:60:91:9F:97:BA:E7:B4:88:CE:09:1F
    Signature Algorithm: sha256WithRSAEncryption
         74:61:10:13:a5:cb:9e:7b:69:d5:a7:b8:d9:96:2b:d0:6b:89:
         ef:12:3e:e9:d7:27:0e:e6:3d:9b:11:70:2d:b5:5d:23:06:a6:
         76:70:a4:11:1d:98:46:8f:93:f9:66:aa:a0:d0:92:60:4d:36:
         2b:88:fd:9a:51:45:d7:1d:f5:0e:f9:67:de:ce:40:50:2e:c8:
         7b:1d:56:db:65:fa:c9:1f:f7:05:2a:25:ec:3d:11:c2:ed:5d:
         57:01:4b:ea:fe:42:01:0d:dd:a4:ed:09:9a:87:ef:86:26:07:
         04:d4:e6:f0:d4:7f:47:42:b5:7f:84:c5:db:94:02:d3:0a:2e:
         66:fb:89:e0:b3:08:ab:01:17:e5:7e:a4:a6:af:ea:48:17:ac:
         c3:b3:77:2c:87:ce:a6:4b:6a:88:36:d3:6f:aa:12:ca:6b:f7:
         fe:7d:af:2e:a3:ab:e4:4b:2c:cb:da:67:cb:45:e9:01:7e:cc:
         13:7c:a1:7c:7c:bf:39:42:81:5b:a6:12:03:83:42:d8:90:05:
         ed:cc:ee:df:c3:71:4d:c2:4b:0a:65:cc:11:8c:a2:1b:32:dd:
         6a:91:ea:a9:1f:57:83:32:83:4f:a8:3c:89:75:94:2a:cf:e0:
         87:0c:4e:70:e4:80:fc:bc:2e:69:6b:de:4e:1c:5e:9d:4c:40:
         1c:d6:26:01:54:11:c1:83:b4:80:f0:08:37:34:f3:db:38:32:
         fb:b8:5e:2f:31:e7:b2:fb:ad:56:e1:b8:0e:75:f6:bc:22:c7:
         96:cf:27:76:db:10:8e:3b:60:b7:9a:ae:21:7c:0a:fb:8a:ff:
         d9:9f:f6:0b:ba:cd:3e:24:be:6b:64:1a:1f:78:78:30:99:05:
         b2:c5:30:ef:05:5b:c1:03:5c:45:10:84:46:fb:66:e2:5a:49:
         a5:65:70:ec:53:e1:6d:17:23:1a:9b:4c:9a:8a:16:22:07:b1:
         f3:c0:c5:8b:d2:bd:2d:15:ec:61:09:4d:76:76:00:ef:f6:98:
         a0:09:35:29:54:f3:75:4a:e9:fe:d8:1a:8d:24:fb:a8:29:bb:
         47:54:e2:b6:87:7b:de:be:d1:8a:91:e1:f6:73:8e:34:d8:51:
         23:0f:4a:bf:76:41:77:e0:d3:e9:2e:88:ba:83:c8:37:4a:32:
         96:f2:e8:21:e7:4c:99:70:46:e4:a9:02:7e:42:8e:3f:a7:53:
         3e:22:d0:60:5b:06:6c:af:db:17:de:c7:23:c5:8c:e2:0d:be:
         61:52:09:a2:18:60:e3:eb:c1:8a:e5:20:c8:f1:f0:6d:bd:d1:
         9f:df:a2:a5:4a:c1:c3:12:c8:3d:c7:cc:88:60:fa:d2:a8:18:
         71:68:e6:1d:1c:e6:ff:9d
-----BEGIN CERTIFICATE-----
MIIFIDCCAwigAwIBAgIRAPYrA4LQm8EYGVDeptXJm2owDQYJKoZIhvcNAQELBQAw
MjELMAkGA1UEBhMCRVMxDzANBgNVBAoMBlRlbGVjbzESMBAGA1UEAwwJQ2xpZW50
IENBMB4XDTIzMDExMTE4MTEwOFoXDTIzMDIxMDE4MTEwOFowNDELMAkGA1UEBhMC
RVMxDzANBgNVBAoMBlRlbGVjbzEUMBIGA1UEAwwLQ2xpZW50VExTMTMwggEiMA0G
CSqGSIb3DQEBAQUAA4IBDwAwggEKAoIBAQDOyVxNI+EAGv+SJuk4BIfUl0jgsLOc
LDAZ2nXDbcm1EUVxrGBk5VDSLaNDfQm2mkIHFd9tb3YFAfjFCBqXJtc6g5UP7YOs
EDQY0nYNvSHlq4ovoG4LMyJgGe1qHKuajNX6Gqw1rz/Ihqz1dXkfLqWpOF2vjpur
Do9z9BMIjLuhl8W39D+MH6mr5f/eR4v4/UgWmRz8bqV1+6Hmcva7L3+Hkb52o8vm
gYlTFnZvSfnbC8sk/wNRC5fNva7Y0OSWzueasMnctNTva69mg2ao8VWZROlVv8d8
WzLDoS1LfSzXbYJgPqvM90Jlx3iUQAklIhUtAMXfq7tFSU6xS7gOc3U/AgMBAAGj
ggEtMIIBKTB4BggrBgEFBQcBAQRsMGowNQYIKwYBBQUHMAKGKWh0dHA6Ly9jbGll
bnQtY2EuVGVsZWNvLmNvbS9jbGllbnQtY2EuY3J0MDEGCCsGAQUFBzABhiVodHRw
Oi8vb2NzcC5jbGllbnQtY2EuVGVsZWNvLmNvbTo5MDgyMB8GA1UdIwQYMBaAFLGV
yByfNi7mTMFE7gdnKbkn/ePGMAwGA1UdEwEB/wQCMAAwOgYDVR0fBDMwMTAvoC2g
K4YpaHR0cDovL2NsaWVudC1jYS5UZWxlY28uY29tL2NsaWVudC1jYS5jcmwwEwYD
VR0lBAwwCgYIKwYBBQUHAwIwDgYDVR0PAQH/BAQDAgeAMB0GA1UdDgQWBBT9r2wl
iQFsc4lgkZ+Xuue0iM4JHzANBgkqhkiG9w0BAQsFAAOCAgEAdGEQE6XLnntp1ae4
2ZYr0GuJ7xI+6dcnDuY9mxFwLbVdIwamdnCkER2YRo+T+WaqoNCSYE02K4j9mlFF
1x31Dvln3s5AUC7Iex1W22X6yR/3BSol7D0Rwu1dVwFL6v5CAQ3dpO0JmofvhiYH
BNTm8NR/R0K1f4TF25QC0wouZvuJ4LMIqwEX5X6kpq/qSBesw7N3LIfOpktqiDbT
b6oSymv3/n2vLqOr5Essy9pny0XpAX7ME3yhfHy/OUKBW6YSA4NC2JAF7czu38Nx
TcJLCmXMEYyiGzLdapHqqR9XgzKDT6g8iXWUKs/ghwxOcOSA/LwuaWveThxenUxA
HNYmAVQRwYO0gPAINzTz2zgy+7heLzHnsvutVuG4DnX2vCLHls8ndtsQjjtgt5qu
IXwK+4r/2Z/2C7rNPiS+a2QaH3h4MJkFssUw7wVbwQNcRRCERvtm4lpJpWVw7FPh
bRcjGptMmooWIgex88DFi9K9LRXsYQlNdnYA7/aYoAk1KVTzdUrp/tgajST7qCm7
R1Titod73r7RipHh9nOONNhRIw9Kv3ZBd+DT6S6IuoPIN0oylvLoIedMmXBG5KkC
fkKOP6dTPiLQYFsGbK/bF97HI8WM4g2+YVIJohhg4+vBiuUgyPHwbb3Rn9+ipUrB
wxLIPcfMiGD60qgYcWjmHRzm/50=
-----END CERTIFICATE-----
