Certificate:
    Data:
        Version: 3 (0x2)
        Serial Number:
            f6:2b:03:82:d0:9b:c1:18:19:50:de:a6:d5:c9:9b:7d
        Signature Algorithm: sha256WithRSAEncryption
        Issuer: C=ES, O=Teleco, CN=Client CA
        Validity
            Not Before: Apr  4 22:04:17 2023 GMT
            Not After : Apr  1 22:04:17 2033 GMT
        Subject: C=ES, O=Teleco, CN=clienttls13
        Subject Public Key Info:
            Public Key Algorithm: rsaEncryption
                RSA Public-Key: (2048 bit)
                Modulus:
                    00:cb:55:cf:da:72:56:c7:c2:8f:fe:85:68:b7:e9:
                    26:ec:33:ed:b2:da:bb:5e:64:63:3a:10:f3:59:63:
                    ed:c6:62:7e:9b:35:c7:c6:6b:0c:d8:f4:ea:81:a9:
                    20:c0:2e:65:1f:f0:a7:67:94:8a:1d:61:b0:fa:e5:
                    71:ad:02:39:d9:ee:56:a4:fd:6d:a6:4a:f3:88:ce:
                    84:2b:47:2f:08:b1:8a:ac:3f:53:22:55:e1:6f:21:
                    c2:3c:01:1a:bc:93:79:72:d9:d5:eb:34:ee:50:5e:
                    49:14:86:a4:c8:27:62:69:18:6f:3c:4e:89:df:c9:
                    73:3d:3c:52:c0:76:47:43:ab:92:78:61:c0:d2:4a:
                    61:78:84:e6:50:72:43:f9:f4:7e:cd:67:50:5a:d3:
                    4d:77:23:61:80:4b:c2:d4:71:27:d0:fe:85:3b:b8:
                    ee:a7:e5:36:86:1b:a3:d1:53:41:cc:76:03:b7:6a:
                    d0:93:7d:f3:db:02:d3:ea:fe:b8:c1:98:86:63:53:
                    b2:31:af:eb:c8:f5:06:78:e7:28:ab:d3:c2:5e:59:
                    4a:14:c8:47:28:3d:19:6f:8a:84:1b:d2:a7:85:7f:
                    7d:85:c8:7e:f7:b8:f0:f9:1a:ba:5c:98:83:57:eb:
                    33:a2:db:5a:d8:0a:67:c8:08:93:4a:dd:10:41:22:
                    5a:bd
                Exponent: 65537 (0x10001)
        X509v3 extensions:
            Authority Information Access: 
                CA Issuers - URI:http://client-ca.Teleco.com/client-ca.crt
                OCSP - URI:http://ocsp.client-ca.Teleco.com:9080

            X509v3 Authority Key Identifier: 
                keyid:EE:2A:3D:FD:93:CA:A2:9F:58:48:6A:57:2B:3F:28:D5:BD:6D:C6:26

            X509v3 Basic Constraints: critical
                CA:FALSE
            X509v3 CRL Distribution Points: 

                Full Name:
                  URI:http://client-ca.Teleco.com/client-ca.crl

            X509v3 Extended Key Usage: 
                TLS Web Client Authentication
            X509v3 Key Usage: critical
                Digital Signature
            X509v3 Subject Key Identifier: 
                57:35:3C:AC:E6:BE:D3:7F:30:58:35:28:33:2F:3C:B6:C4:65:09:DA
    Signature Algorithm: sha256WithRSAEncryption
         05:bd:b3:3b:15:aa:94:4f:10:e4:51:d3:8e:04:0e:c3:3b:6a:
         99:4b:fc:e2:52:1c:fd:f7:56:4d:46:eb:57:97:c6:3c:f0:cb:
         8a:69:31:94:5a:01:f9:4f:8f:e4:f1:d5:04:2b:bf:dc:aa:90:
         c2:ac:45:63:60:c5:e1:76:21:b8:bf:8a:5a:45:c2:30:20:0f:
         91:6c:8a:08:8d:b7:25:6b:ed:18:7b:70:cb:31:0e:1c:94:5a:
         50:5c:d9:85:25:39:26:dd:75:6b:d2:9a:80:e4:b4:39:58:0c:
         62:0e:71:56:27:57:f3:30:e8:c3:3e:f9:34:34:0e:6d:bf:56:
         33:68:7d:aa:cc:9a:19:20:69:28:9e:0f:e1:52:75:59:cc:c9:
         aa:9a:fc:d1:ca:cb:8a:9b:23:d4:a5:6d:72:79:c4:48:1d:07:
         0b:67:6b:20:60:fb:45:8d:5a:7d:f6:f9:b9:9b:49:68:2f:3c:
         bf:33:3b:c9:40:97:a0:be:29:04:b3:c1:81:1f:c3:12:4a:3c:
         4f:a3:b6:86:90:83:01:9e:62:01:11:10:5a:1d:99:12:d0:57:
         a1:52:9b:42:10:bf:61:5f:58:40:df:2c:22:ed:a7:36:74:84:
         c0:74:b8:ad:d3:5b:e9:d9:6e:47:61:04:a9:96:bf:80:75:5a:
         40:97:a4:06:98:90:eb:16:ce:ca:9f:2e:3d:39:22:76:98:3b:
         75:61:55:c9:34:f0:36:de:98:13:2b:ec:d2:da:fd:61:4b:26:
         a2:09:b8:a3:c8:f3:49:32:e8:64:a0:b9:ee:f2:5e:12:7f:ec:
         c8:12:e3:a0:cc:6a:33:55:71:5f:d7:3a:d7:cc:80:be:31:d0:
         15:b3:ff:f1:fb:0e:e6:4e:9e:ef:be:38:48:e5:c7:35:f7:d3:
         a2:66:aa:6f:bd:55:da:51:5c:2b:5d:08:fc:fa:db:93:8d:c0:
         7e:57:31:87:79:e6:f8:9a:22:7b:62:7c:59:9a:22:b5:9e:a9:
         ec:46:9c:de:c7:31:ca:d7:5c:ff:8e:03:fc:fa:24:f4:53:a2:
         c5:de:98:57:08:1b:44:08:20:71:ec:ea:ba:17:13:3c:23:1e:
         4f:ed:28:56:e2:1d:e9:58:a0:3d:88:49:1b:10:1d:37:fb:32:
         7e:9e:53:fc:7f:d6:59:16:4b:06:35:f9:d7:7b:95:96:d8:ca:
         5d:9c:4f:84:20:ba:38:01:3a:84:02:01:69:fa:96:f4:55:cb:
         02:28:80:cc:60:66:35:f9:1a:c4:2a:b9:8e:db:92:d9:43:d0:
         f1:ce:d0:1f:b3:14:52:75:c7:09:23:00:af:9e:4c:a3:55:c2:
         8a:b6:fa:bc:96:be:1c:6e
-----BEGIN CERTIFICATE-----
MIIFIDCCAwigAwIBAgIRAPYrA4LQm8EYGVDeptXJm30wDQYJKoZIhvcNAQELBQAw
MjELMAkGA1UEBhMCRVMxDzANBgNVBAoMBlRlbGVjbzESMBAGA1UEAwwJQ2xpZW50
IENBMB4XDTIzMDQwNDIyMDQxN1oXDTMzMDQwMTIyMDQxN1owNDELMAkGA1UEBhMC
RVMxDzANBgNVBAoMBlRlbGVjbzEUMBIGA1UEAwwLY2xpZW50dGxzMTMwggEiMA0G
CSqGSIb3DQEBAQUAA4IBDwAwggEKAoIBAQDLVc/aclbHwo/+hWi36SbsM+2y2rte
ZGM6EPNZY+3GYn6bNcfGawzY9OqBqSDALmUf8KdnlIodYbD65XGtAjnZ7lak/W2m
SvOIzoQrRy8IsYqsP1MiVeFvIcI8ARq8k3ly2dXrNO5QXkkUhqTIJ2JpGG88Tonf
yXM9PFLAdkdDq5J4YcDSSmF4hOZQckP59H7NZ1Ba0013I2GAS8LUcSfQ/oU7uO6n
5TaGG6PRU0HMdgO3atCTffPbAtPq/rjBmIZjU7Ixr+vI9QZ45yir08JeWUoUyEco
PRlvioQb0qeFf32FyH73uPD5GrpcmINX6zOi21rYCmfICJNK3RBBIlq9AgMBAAGj
ggEtMIIBKTB4BggrBgEFBQcBAQRsMGowNQYIKwYBBQUHMAKGKWh0dHA6Ly9jbGll
bnQtY2EuVGVsZWNvLmNvbS9jbGllbnQtY2EuY3J0MDEGCCsGAQUFBzABhiVodHRw
Oi8vb2NzcC5jbGllbnQtY2EuVGVsZWNvLmNvbTo5MDgwMB8GA1UdIwQYMBaAFO4q
Pf2TyqKfWEhqVys/KNW9bcYmMAwGA1UdEwEB/wQCMAAwOgYDVR0fBDMwMTAvoC2g
K4YpaHR0cDovL2NsaWVudC1jYS5UZWxlY28uY29tL2NsaWVudC1jYS5jcmwwEwYD
VR0lBAwwCgYIKwYBBQUHAwIwDgYDVR0PAQH/BAQDAgeAMB0GA1UdDgQWBBRXNTys
5r7TfzBYNSgzLzy2xGUJ2jANBgkqhkiG9w0BAQsFAAOCAgEABb2zOxWqlE8Q5FHT
jgQOwztqmUv84lIc/fdWTUbrV5fGPPDLimkxlFoB+U+P5PHVBCu/3KqQwqxFY2DF
4XYhuL+KWkXCMCAPkWyKCI23JWvtGHtwyzEOHJRaUFzZhSU5Jt11a9KagOS0OVgM
Yg5xVidX8zDowz75NDQObb9WM2h9qsyaGSBpKJ4P4VJ1WczJqpr80crLipsj1KVt
cnnESB0HC2drIGD7RY1affb5uZtJaC88vzM7yUCXoL4pBLPBgR/DEko8T6O2hpCD
AZ5iAREQWh2ZEtBXoVKbQhC/YV9YQN8sIu2nNnSEwHS4rdNb6dluR2EEqZa/gHVa
QJekBpiQ6xbOyp8uPTkidpg7dWFVyTTwNt6YEyvs0tr9YUsmogm4o8jzSTLoZKC5
7vJeEn/syBLjoMxqM1VxX9c618yAvjHQFbP/8fsO5k6e7744SOXHNffTomaqb71V
2lFcK10I/Prbk43Aflcxh3nm+Joie2J8WZoitZ6p7Eac3scxytdc/44D/Pok9FOi
xd6YVwgbRAggcezquhcTPCMeT+0oVuId6VigPYhJGxAdN/syfp5T/H/WWRZLBjX5
13uVltjKXZxPhCC6OAE6hAIBafqW9FXLAiiAzGBmNfkaxCq5jtuS2UPQ8c7QH7MU
UnXHCSMAr55Mo1XCirb6vJa+HG4=
-----END CERTIFICATE-----
