Certificate:
    Data:
        Version: 3 (0x2)
        Serial Number:
            f6:2b:03:82:d0:9b:c1:18:19:50:de:a6:d5:c9:9b:80
        Signature Algorithm: sha256WithRSAEncryption
        Issuer: C=ES, O=Teleco, CN=Client CA
        Validity
            Not Before: Apr  5 22:12:17 2023 GMT
            Not After : Apr  2 22:12:17 2033 GMT
        Subject: C=ES, O=Teleco, CN=clienttls13
        Subject Public Key Info:
            Public Key Algorithm: rsaEncryption
                RSA Public-Key: (1512 bit)
                Modulus:
                    00:bd:45:e1:34:e1:82:3a:29:4b:73:8c:a3:1b:aa:
                    66:01:db:b5:84:a2:2d:37:49:15:6c:23:ad:5f:44:
                    bd:62:be:35:04:09:54:8a:f0:50:01:b1:30:04:38:
                    fc:ae:cd:e7:bf:93:78:88:70:0e:49:06:c5:36:de:
                    f7:7e:0d:1e:bd:12:d8:a9:4e:19:95:4f:6d:41:be:
                    6d:82:a4:53:d3:ca:95:34:81:40:dd:1c:11:1d:09:
                    d7:e6:25:87:a7:b9:1e:3c:7d:ca:8d:1a:e4:c7:e5:
                    80:34:a9:43:3f:79:82:c9:2b:6c:37:50:a1:fd:00:
                    52:58:ff:de:d5:2c:5c:c7:0a:59:2d:58:57:4f:73:
                    17:53:59:7b:9c:b8:1c:82:41:a4:55:fc:99:a4:02:
                    b7:fe:f3:22:7d:9b:38:81:df:09:b0:42:20:c7:0d:
                    4e:21:b3:bf:91:61:3f:e6:84:42:f0:56:e6:bf:1b:
                    c3:3f:f9:78:8c:48:3f:d5:bf:d1
                Exponent: 65537 (0x10001)
        X509v3 extensions:
            Authority Information Access: 
                CA Issuers - URI:http://client-ca.Teleco.com/client-ca.crt
                OCSP - URI:http://ocsp.client-ca.Teleco.com:9080

            X509v3 Authority Key Identifier: 
                keyid:F2:6C:06:3E:0B:82:A2:58:20:F4:65:DE:2C:FD:C3:E5:E2:13:A1:58

            X509v3 Basic Constraints: critical
                CA:FALSE
            X509v3 CRL Distribution Points: 

                Full Name:
                  URI:http://client-ca.Teleco.com/client-ca.crl

            X509v3 Extended Key Usage: 
                TLS Web Client Authentication
            X509v3 Key Usage: critical
                Digital Signature
            X509v3 Subject Key Identifier: 
                80:F8:D6:63:4B:03:9B:3B:53:0A:F9:1C:0E:8A:D5:D8:4F:27:72:AB
    Signature Algorithm: sha256WithRSAEncryption
         be:fe:4d:c9:fa:a3:2c:e9:5f:47:fc:ee:f3:73:c1:08:5a:6f:
         7f:dc:16:40:70:89:86:5f:e8:74:98:05:c8:5b:64:37:5e:03:
         94:2a:48:35:f4:f5:82:2e:69:95:7c:30:f9:fc:bc:54:4d:4f:
         36:bf:e2:62:ef:cd:64:d4:68:8c:3f:c0:52:31:33:58:09:62:
         e6:30:35:6c:a1:f2:0b:af:91:dc:14:67:5f:54:c1:b4:db:6c:
         d5:6c:d4:e0:77:f5:6d:d0:50:f5:3a:35:1f:c1:e5:54:82:d3:
         2b:8b:88:d9:62:ee:ae:7d:0d:ed:54:d6:4f:f4:af:7d:78:4a:
         63:74:65:bf:a7:d2:9c:03:18:29:78:a2:0b:78:76:f1:b2:f2:
         31:ca:fa:ff:32:a7:bd:f3:f7:c4:d3:ba:be:3c:c0:e3:b3:63:
         61:bf:7c:c5:49:d2:49:2a:a4:69:05:3b:a7:ab:bc:1c:bd:f1:
         7f:3e:fc:db:6b:b9:9a:2c:fe:29:4d:55:6d:9c:cb:57:ec:fd:
         25:d7:da:78:d9:26:d8:a7:b0:60:ef:b5:7e:98:25:e6:07:b5:
         64:5d:1a:d1:ec:17:cc:6a:8c:fd:aa:b9:cf:55:67:e4:39:6d:
         0b:0e:9b:a9:64:6a:f2:f7:61:e6:2f:96:f2:f3:c7:8b:28:c3:
         cc:32:3c:2e:bb:78:4f:74:e7:65:8d:ba:4b:e8:6e:16:4e:85:
         67:e7:0f:6c:6d:5f:39:2a:4b:db:70:94:ab:1f:be:60:8a:e9:
         ac:bf:c9:aa:62:15:1d:ea:5b:9b:53:ee:3e:3a:24:53:c4:d3:
         9f:8b:69:c2:9e:ed:5d:84:3b:57:f4:f5:93:db:d0:38:79:e0:
         75:bf:99:57:4b:53:3a:d5:f7:b3:f5:e0:3c:f1:a3:ec:dd:59:
         96:42:4d:14:c2:f2:03:35:80:e7:a0:44:49:04:b3:1f:ee:aa:
         29:c6:f3:84:56:19:35:55:a2:a2:8f:fd:f0:3b:9f:56:55:ab:
         1f:8e:d4:35:f2:55:1f:be:52:cd:f9:2a:c9:79:94:2c:cf:34:
         19:bd:b6:d8:83:33:d2:11:84:8e:dd:db:5b:3b:96:48:62:6b:
         7b:5f:66:ff:fb:c6:76:d0:3f:fe:d7:00:fe:18:50:fb:c2:83:
         53:e3:89:c1:fd:2c:ea:67:e2:fe:d0:e7:f0:16:13:70:d3:f7:
         0d:d0:d1:95:42:d4:ae:35:bf:c7:5b:c6:ea:94:cf:7a:bf:ea:
         d7:60:b5:e8:e1:ab:32:4e:9f:51:63:bc:25:8e:1e:76:4c:8d:
         a2:46:1b:ac:8d:7f:52:86:f8:34:cc:e1:f1:f4:6e:7e:72:ea:
         77:71:87:b9:09:74:b4:fd
-----BEGIN CERTIFICATE-----
MIIE2TCCAsGgAwIBAgIRAPYrA4LQm8EYGVDeptXJm4AwDQYJKoZIhvcNAQELBQAw
MjELMAkGA1UEBhMCRVMxDzANBgNVBAoMBlRlbGVjbzESMBAGA1UEAwwJQ2xpZW50
IENBMB4XDTIzMDQwNTIyMTIxN1oXDTMzMDQwMjIyMTIxN1owNDELMAkGA1UEBhMC
RVMxDzANBgNVBAoMBlRlbGVjbzEUMBIGA1UEAwwLY2xpZW50dGxzMTMwgdwwDQYJ
KoZIhvcNAQEBBQADgcoAMIHGAoG+AL1F4TThgjopS3OMoxuqZgHbtYSiLTdJFWwj
rV9EvWK+NQQJVIrwUAGxMAQ4/K7N57+TeIhwDkkGxTbe934NHr0S2KlOGZVPbUG+
bYKkU9PKlTSBQN0cER0J1+Ylh6e5Hjx9yo0a5MflgDSpQz95gskrbDdQof0AUlj/
3tUsXMcKWS1YV09zF1NZe5y4HIJBpFX8maQCt/7zIn2bOIHfCbBCIMcNTiGzv5Fh
P+aEQvBW5r8bwz/5eIxIP9W/0QIDAQABo4IBLTCCASkweAYIKwYBBQUHAQEEbDBq
MDUGCCsGAQUFBzAChilodHRwOi8vY2xpZW50LWNhLlRlbGVjby5jb20vY2xpZW50
LWNhLmNydDAxBggrBgEFBQcwAYYlaHR0cDovL29jc3AuY2xpZW50LWNhLlRlbGVj
by5jb206OTA4MDAfBgNVHSMEGDAWgBTybAY+C4KiWCD0Zd4s/cPl4hOhWDAMBgNV
HRMBAf8EAjAAMDoGA1UdHwQzMDEwL6AtoCuGKWh0dHA6Ly9jbGllbnQtY2EuVGVs
ZWNvLmNvbS9jbGllbnQtY2EuY3JsMBMGA1UdJQQMMAoGCCsGAQUFBwMCMA4GA1Ud
DwEB/wQEAwIHgDAdBgNVHQ4EFgQUgPjWY0sDmztTCvkcDorV2E8ncqswDQYJKoZI
hvcNAQELBQADggIBAL7+Tcn6oyzpX0f87vNzwQhab3/cFkBwiYZf6HSYBchbZDde
A5QqSDX09YIuaZV8MPn8vFRNTza/4mLvzWTUaIw/wFIxM1gJYuYwNWyh8guvkdwU
Z19UwbTbbNVs1OB39W3QUPU6NR/B5VSC0yuLiNli7q59De1U1k/0r314SmN0Zb+n
0pwDGCl4ogt4dvGy8jHK+v8yp73z98TTur48wOOzY2G/fMVJ0kkqpGkFO6ervBy9
8X8+/NtruZos/ilNVW2cy1fs/SXX2njZJtinsGDvtX6YJeYHtWRdGtHsF8xqjP2q
uc9VZ+Q5bQsOm6lkavL3YeYvlvLzx4sow8wyPC67eE9052WNukvobhZOhWfnD2xt
XzkqS9twlKsfvmCK6ay/yapiFR3qW5tT7j46JFPE05+LacKe7V2EO1f09ZPb0Dh5
4HW/mVdLUzrV97P14Dzxo+zdWZZCTRTC8gM1gOegREkEsx/uqinG84RWGTVVoqKP
/fA7n1ZVqx+O1DXyVR++Us35Ksl5lCzPNBm9ttiDM9IRhI7d21s7lkhia3tfZv/7
xnbQP/7XAP4YUPvCg1PjicH9LOpn4v7Q5/AWE3DT9w3Q0ZVC1K41v8dbxuqUz3q/
6tdgtejhqzJOn1FjvCWOHnZMjaJGG6yNf1KG+DTM4fH0bn5y6ndxh7kJdLT9
-----END CERTIFICATE-----
