Certificate:
    Data:
        Version: 3 (0x2)
        Serial Number:
            f6:2b:03:82:d0:9b:c1:18:19:50:de:a6:d5:c9:9b:74
        Signature Algorithm: sha256WithRSAEncryption
        Issuer: C=ES, O=Teleco, CN=Client CA
        Validity
            Not Before: Apr  3 22:13:15 2023 GMT
            Not After : Mar 31 22:13:15 2033 GMT
        Subject: C=ES, O=Teleco, CN=clienttls13
        Subject Public Key Info:
            Public Key Algorithm: rsaEncryption
                RSA Public-Key: (2048 bit)
                Modulus:
                    00:cb:55:cf:da:72:56:c7:c2:8f:fe:85:68:b7:e9:
                    26:ec:33:ed:b2:da:bb:5e:64:63:3a:10:f3:59:63:
                    ed:c6:62:7e:9b:35:c7:c6:6b:0c:d8:f4:ea:81:a9:
                    20:c0:2e:65:1f:f0:a7:67:94:8a:1d:61:b0:fa:e5:
                    71:ad:02:39:d9:ee:56:a4:fd:6d:a6:4a:f3:88:ce:
                    84:2b:47:2f:08:b1:8a:ac:3f:53:22:55:e1:6f:21:
                    c2:3c:01:1a:bc:93:79:72:d9:d5:eb:34:ee:50:5e:
                    49:14:86:a4:c8:27:62:69:18:6f:3c:4e:89:df:c9:
                    73:3d:3c:52:c0:76:47:43:ab:92:78:61:c0:d2:4a:
                    61:78:84:e6:50:72:43:f9:f4:7e:cd:67:50:5a:d3:
                    4d:77:23:61:80:4b:c2:d4:71:27:d0:fe:85:3b:b8:
                    ee:a7:e5:36:86:1b:a3:d1:53:41:cc:76:03:b7:6a:
                    d0:93:7d:f3:db:02:d3:ea:fe:b8:c1:98:86:63:53:
                    b2:31:af:eb:c8:f5:06:78:e7:28:ab:d3:c2:5e:59:
                    4a:14:c8:47:28:3d:19:6f:8a:84:1b:d2:a7:85:7f:
                    7d:85:c8:7e:f7:b8:f0:f9:1a:ba:5c:98:83:57:eb:
                    33:a2:db:5a:d8:0a:67:c8:08:93:4a:dd:10:41:22:
                    5a:bd
                Exponent: 65537 (0x10001)
        X509v3 extensions:
            Authority Information Access: 
                CA Issuers - URI:http://client-ca.Teleco.com/client-ca.crt
                OCSP - URI:http://ocsp.client-ca.Teleco.com:9080

            X509v3 Authority Key Identifier: 
                keyid:FF:9B:44:64:29:EB:55:5D:A6:74:EB:1C:14:16:8A:BE:AC:B9:90:85

            X509v3 Basic Constraints: critical
                CA:FALSE
            X509v3 CRL Distribution Points: 

                Full Name:
                  URI:http://client-ca.Teleco.com/client-ca.crl

            X509v3 Extended Key Usage: 
                TLS Web Client Authentication
            X509v3 Key Usage: critical
                Digital Signature
            X509v3 Subject Key Identifier: 
                57:35:3C:AC:E6:BE:D3:7F:30:58:35:28:33:2F:3C:B6:C4:65:09:DA
    Signature Algorithm: sha256WithRSAEncryption
         77:85:c5:b0:0e:8f:b6:b0:e8:c6:1f:a9:c5:a8:fe:af:66:0b:
         c7:aa:c4:ae:f5:0d:26:d8:3f:10:27:24:56:ee:f7:f3:e7:33:
         7d:a5:d7:b0:8c:1a:74:6f:ed:d6:1b:75:c6:bf:41:6c:ae:bf:
         69:7c:35:10:e4:90:60:c3:92:34:7a:1b:55:e2:5d:34:9a:ec:
         b9:93:1c:70:2b:62:8e:a2:4b:d5:df:fc:87:a4:e2:49:c9:58:
         50:16:5a:96:4b:ff:7d:f8:7c:5e:85:13:db:00:79:cf:ce:63:
         2a:0b:01:ce:01:09:fd:e2:40:33:63:2b:b1:e4:bd:ac:71:be:
         b9:dc:1e:7e:6b:c1:da:88:c6:4a:f3:f7:4b:be:8a:8c:b2:fa:
         ed:35:78:a1:aa:43:01:87:62:7e:78:52:37:54:81:f7:37:5a:
         18:49:ee:7e:06:79:41:a4:e6:7a:0f:64:12:99:1d:43:07:c0:
         a6:35:bb:90:57:d2:e0:ac:2d:ee:1f:df:75:f9:1e:6b:82:ef:
         7a:89:c5:6c:9d:e5:55:a0:aa:26:56:4d:50:4e:c9:11:66:63:
         bd:36:cf:d0:a5:32:ce:ad:f1:34:30:c9:b4:60:65:25:68:53:
         3e:23:46:17:89:a2:bb:d2:58:ec:ca:a7:50:be:73:d5:55:35:
         0e:cd:a1:db:a6:f7:89:20:54:8f:98:69:77:3e:e2:21:3c:91:
         14:9d:a9:82:1b:cc:f4:f2:d2:f4:f7:9c:5d:1a:71:92:b7:62:
         84:1b:48:5b:b9:fb:dc:ca:80:66:95:86:cf:85:67:6d:be:13:
         28:e7:eb:3f:50:90:15:25:ea:62:c9:a5:e0:ee:3a:90:1b:d4:
         6c:ea:25:73:fc:75:60:56:78:5c:e9:38:75:af:a2:55:37:6e:
         b7:05:57:c9:ad:2c:4a:73:6f:9b:f3:b8:3b:01:49:d8:35:55:
         a4:12:05:c2:d2:57:93:a0:05:7f:87:fb:5e:b8:2e:df:a5:21:
         b6:4b:da:47:55:b7:66:5d:25:e1:3d:cc:b6:44:6b:66:de:97:
         a2:17:31:93:d4:8f:eb:ee:2d:9a:82:a6:6b:85:e2:91:a3:10:
         06:aa:5d:33:84:f2:7c:34:2f:18:73:3a:b1:42:af:1c:fa:b9:
         5d:12:7b:a8:7f:83:82:2f:aa:9d:8d:51:0d:92:68:17:6f:4e:
         d1:91:ed:31:94:76:80:1e:6d:4c:38:d2:4a:2d:08:25:52:4d:
         d8:12:5a:ab:5b:6d:2b:f9:57:20:43:29:55:f8:b1:46:7e:96:
         fc:20:e5:9f:bc:31:8d:98:a5:80:d5:e3:ac:bd:90:e7:b9:9d:
         98:8a:4a:49:92:62:88:c5
-----BEGIN CERTIFICATE-----
MIIFIDCCAwigAwIBAgIRAPYrA4LQm8EYGVDeptXJm3QwDQYJKoZIhvcNAQELBQAw
MjELMAkGA1UEBhMCRVMxDzANBgNVBAoMBlRlbGVjbzESMBAGA1UEAwwJQ2xpZW50
IENBMB4XDTIzMDQwMzIyMTMxNVoXDTMzMDMzMTIyMTMxNVowNDELMAkGA1UEBhMC
RVMxDzANBgNVBAoMBlRlbGVjbzEUMBIGA1UEAwwLY2xpZW50dGxzMTMwggEiMA0G
CSqGSIb3DQEBAQUAA4IBDwAwggEKAoIBAQDLVc/aclbHwo/+hWi36SbsM+2y2rte
ZGM6EPNZY+3GYn6bNcfGawzY9OqBqSDALmUf8KdnlIodYbD65XGtAjnZ7lak/W2m
SvOIzoQrRy8IsYqsP1MiVeFvIcI8ARq8k3ly2dXrNO5QXkkUhqTIJ2JpGG88Tonf
yXM9PFLAdkdDq5J4YcDSSmF4hOZQckP59H7NZ1Ba0013I2GAS8LUcSfQ/oU7uO6n
5TaGG6PRU0HMdgO3atCTffPbAtPq/rjBmIZjU7Ixr+vI9QZ45yir08JeWUoUyEco
PRlvioQb0qeFf32FyH73uPD5GrpcmINX6zOi21rYCmfICJNK3RBBIlq9AgMBAAGj
ggEtMIIBKTB4BggrBgEFBQcBAQRsMGowNQYIKwYBBQUHMAKGKWh0dHA6Ly9jbGll
bnQtY2EuVGVsZWNvLmNvbS9jbGllbnQtY2EuY3J0MDEGCCsGAQUFBzABhiVodHRw
Oi8vb2NzcC5jbGllbnQtY2EuVGVsZWNvLmNvbTo5MDgwMB8GA1UdIwQYMBaAFP+b
RGQp61VdpnTrHBQWir6suZCFMAwGA1UdEwEB/wQCMAAwOgYDVR0fBDMwMTAvoC2g
K4YpaHR0cDovL2NsaWVudC1jYS5UZWxlY28uY29tL2NsaWVudC1jYS5jcmwwEwYD
VR0lBAwwCgYIKwYBBQUHAwIwDgYDVR0PAQH/BAQDAgeAMB0GA1UdDgQWBBRXNTys
5r7TfzBYNSgzLzy2xGUJ2jANBgkqhkiG9w0BAQsFAAOCAgEAd4XFsA6PtrDoxh+p
xaj+r2YLx6rErvUNJtg/ECckVu738+czfaXXsIwadG/t1ht1xr9BbK6/aXw1EOSQ
YMOSNHobVeJdNJrsuZMccCtijqJL1d/8h6TiSclYUBZalkv/ffh8XoUT2wB5z85j
KgsBzgEJ/eJAM2MrseS9rHG+udwefmvB2ojGSvP3S76KjLL67TV4oapDAYdifnhS
N1SB9zdaGEnufgZ5QaTmeg9kEpkdQwfApjW7kFfS4Kwt7h/fdfkea4LveonFbJ3l
VaCqJlZNUE7JEWZjvTbP0KUyzq3xNDDJtGBlJWhTPiNGF4miu9JY7MqnUL5z1VU1
Ds2h26b3iSBUj5hpdz7iITyRFJ2pghvM9PLS9PecXRpxkrdihBtIW7n73MqAZpWG
z4Vnbb4TKOfrP1CQFSXqYsml4O46kBvUbOolc/x1YFZ4XOk4da+iVTdutwVXya0s
SnNvm/O4OwFJ2DVVpBIFwtJXk6AFf4f7Xrgu36UhtkvaR1W3Zl0l4T3MtkRrZt6X
ohcxk9SP6+4tmoKma4XikaMQBqpdM4TyfDQvGHM6sUKvHPq5XRJ7qH+Dgi+qnY1R
DZJoF29O0ZHtMZR2gB5tTDjSSi0IJVJN2BJaq1ttK/lXIEMpVfixRn6W/CDln7wx
jZilgNXjrL2Q57mdmIpKSZJiiMU=
-----END CERTIFICATE-----
