Certificate:
    Data:
        Version: 3 (0x2)
        Serial Number:
            f6:2b:03:82:d0:9b:c1:18:19:50:de:a6:d5:c9:9b:7c
        Signature Algorithm: sha256WithRSAEncryption
        Issuer: C=ES, O=Teleco, CN=Client CA
        Validity
            Not Before: Apr  4 22:04:00 2023 GMT
            Not After : Apr  1 22:04:00 2033 GMT
        Subject: C=ES, O=Teleco, CN=clienttls13
        Subject Public Key Info:
            Public Key Algorithm: rsaEncryption
                RSA Public-Key: (1512 bit)
                Modulus:
                    00:bd:45:e1:34:e1:82:3a:29:4b:73:8c:a3:1b:aa:
                    66:01:db:b5:84:a2:2d:37:49:15:6c:23:ad:5f:44:
                    bd:62:be:35:04:09:54:8a:f0:50:01:b1:30:04:38:
                    fc:ae:cd:e7:bf:93:78:88:70:0e:49:06:c5:36:de:
                    f7:7e:0d:1e:bd:12:d8:a9:4e:19:95:4f:6d:41:be:
                    6d:82:a4:53:d3:ca:95:34:81:40:dd:1c:11:1d:09:
                    d7:e6:25:87:a7:b9:1e:3c:7d:ca:8d:1a:e4:c7:e5:
                    80:34:a9:43:3f:79:82:c9:2b:6c:37:50:a1:fd:00:
                    52:58:ff:de:d5:2c:5c:c7:0a:59:2d:58:57:4f:73:
                    17:53:59:7b:9c:b8:1c:82:41:a4:55:fc:99:a4:02:
                    b7:fe:f3:22:7d:9b:38:81:df:09:b0:42:20:c7:0d:
                    4e:21:b3:bf:91:61:3f:e6:84:42:f0:56:e6:bf:1b:
                    c3:3f:f9:78:8c:48:3f:d5:bf:d1
                Exponent: 65537 (0x10001)
        X509v3 extensions:
            Authority Information Access: 
                CA Issuers - URI:http://client-ca.Teleco.com/client-ca.crt
                OCSP - URI:http://ocsp.client-ca.Teleco.com:9080

            X509v3 Authority Key Identifier: 
                keyid:EE:2A:3D:FD:93:CA:A2:9F:58:48:6A:57:2B:3F:28:D5:BD:6D:C6:26

            X509v3 Basic Constraints: critical
                CA:FALSE
            X509v3 CRL Distribution Points: 

                Full Name:
                  URI:http://client-ca.Teleco.com/client-ca.crl

            X509v3 Extended Key Usage: 
                TLS Web Client Authentication
            X509v3 Key Usage: critical
                Digital Signature
            X509v3 Subject Key Identifier: 
                80:F8:D6:63:4B:03:9B:3B:53:0A:F9:1C:0E:8A:D5:D8:4F:27:72:AB
    Signature Algorithm: sha256WithRSAEncryption
         70:2b:e8:c6:60:32:b5:e6:fb:35:1c:fe:87:02:b4:95:ef:f2:
         b3:a9:71:9d:8e:95:90:23:2a:a7:42:12:73:cc:89:ee:2c:d4:
         6a:5c:42:02:a5:da:11:c3:7c:d4:5d:0f:7b:df:4d:20:f4:38:
         e8:2d:33:57:94:89:0d:93:a4:2f:d6:a6:4e:9e:be:6d:47:b1:
         bf:97:c9:c5:5a:ce:51:26:6b:c2:db:36:69:55:d3:31:0d:76:
         66:98:1a:0a:ed:41:d9:7c:18:35:79:08:cb:77:14:8c:6c:bd:
         9a:a2:15:b7:5f:e4:c3:32:af:ed:9c:cc:a4:b7:59:34:fa:be:
         96:39:f3:ec:96:dc:d3:f9:1f:03:e3:5a:81:f5:ef:f1:9f:97:
         c4:75:52:46:10:5e:23:1c:e4:2e:01:10:bc:03:9d:c0:3d:6b:
         56:c6:8c:77:1a:be:56:51:8a:86:ef:db:b2:41:13:14:fa:db:
         df:d9:4d:80:84:13:e0:a1:96:e6:75:18:0c:f6:70:76:10:75:
         f7:4a:3b:2c:ab:7a:f7:0b:39:2a:cd:3d:a4:63:0c:7c:d1:21:
         3c:48:1e:1d:f1:b7:20:05:9a:38:de:ba:d0:e7:49:bd:c6:99:
         e6:ab:aa:03:84:d1:d5:fb:80:f9:f5:95:03:2b:da:92:8e:97:
         54:b3:ca:6b:f0:d6:89:8e:86:5d:4c:ba:be:fb:2e:4e:de:ab:
         0b:b1:94:c4:d4:08:c6:29:a2:79:6b:80:3b:bc:b7:00:7b:c8:
         45:5c:b8:54:fd:2a:a9:ce:eb:c0:c4:4d:84:3f:de:34:0c:8a:
         74:12:79:c4:51:e2:9b:f5:88:3b:15:c3:24:67:f3:a7:ea:f8:
         6a:1f:b6:0e:54:92:d0:f9:01:d8:29:d0:4b:55:7c:80:e2:49:
         55:7d:12:a1:0b:55:af:d7:43:95:4d:6e:92:5d:b3:85:44:0b:
         5d:b5:1a:0e:26:84:ff:48:68:37:57:f8:e9:ce:1a:d2:24:f4:
         e1:15:18:66:6b:8f:ec:df:e4:89:5e:90:d2:ee:4a:f0:6e:03:
         ea:7d:9b:be:46:6a:3f:4a:26:2b:42:7c:98:78:0e:97:69:2c:
         a2:56:8a:17:48:c6:a1:c9:a8:c9:bf:ab:b6:2b:64:5a:b5:bb:
         b8:63:bc:95:b9:31:c7:47:a6:4d:5a:f1:01:22:5e:ae:e8:c7:
         41:db:0f:2f:8d:af:53:f8:a7:40:c3:bf:1b:44:d7:53:70:8e:
         47:32:d1:a8:7c:03:87:7f:05:e9:e1:d6:01:c6:c1:9e:57:dc:
         08:15:3c:db:00:7d:95:a6:5c:08:e0:e9:f1:2e:73:a3:1e:b5:
         c2:5e:cf:43:0e:a6:79:84
-----BEGIN CERTIFICATE-----
MIIE2TCCAsGgAwIBAgIRAPYrA4LQm8EYGVDeptXJm3wwDQYJKoZIhvcNAQELBQAw
MjELMAkGA1UEBhMCRVMxDzANBgNVBAoMBlRlbGVjbzESMBAGA1UEAwwJQ2xpZW50
IENBMB4XDTIzMDQwNDIyMDQwMFoXDTMzMDQwMTIyMDQwMFowNDELMAkGA1UEBhMC
RVMxDzANBgNVBAoMBlRlbGVjbzEUMBIGA1UEAwwLY2xpZW50dGxzMTMwgdwwDQYJ
KoZIhvcNAQEBBQADgcoAMIHGAoG+AL1F4TThgjopS3OMoxuqZgHbtYSiLTdJFWwj
rV9EvWK+NQQJVIrwUAGxMAQ4/K7N57+TeIhwDkkGxTbe934NHr0S2KlOGZVPbUG+
bYKkU9PKlTSBQN0cER0J1+Ylh6e5Hjx9yo0a5MflgDSpQz95gskrbDdQof0AUlj/
3tUsXMcKWS1YV09zF1NZe5y4HIJBpFX8maQCt/7zIn2bOIHfCbBCIMcNTiGzv5Fh
P+aEQvBW5r8bwz/5eIxIP9W/0QIDAQABo4IBLTCCASkweAYIKwYBBQUHAQEEbDBq
MDUGCCsGAQUFBzAChilodHRwOi8vY2xpZW50LWNhLlRlbGVjby5jb20vY2xpZW50
LWNhLmNydDAxBggrBgEFBQcwAYYlaHR0cDovL29jc3AuY2xpZW50LWNhLlRlbGVj
by5jb206OTA4MDAfBgNVHSMEGDAWgBTuKj39k8qin1hIalcrPyjVvW3GJjAMBgNV
HRMBAf8EAjAAMDoGA1UdHwQzMDEwL6AtoCuGKWh0dHA6Ly9jbGllbnQtY2EuVGVs
ZWNvLmNvbS9jbGllbnQtY2EuY3JsMBMGA1UdJQQMMAoGCCsGAQUFBwMCMA4GA1Ud
DwEB/wQEAwIHgDAdBgNVHQ4EFgQUgPjWY0sDmztTCvkcDorV2E8ncqswDQYJKoZI
hvcNAQELBQADggIBAHAr6MZgMrXm+zUc/ocCtJXv8rOpcZ2OlZAjKqdCEnPMie4s
1GpcQgKl2hHDfNRdD3vfTSD0OOgtM1eUiQ2TpC/Wpk6evm1Hsb+XycVazlEma8Lb
NmlV0zENdmaYGgrtQdl8GDV5CMt3FIxsvZqiFbdf5MMyr+2czKS3WTT6vpY58+yW
3NP5HwPjWoH17/Gfl8R1UkYQXiMc5C4BELwDncA9a1bGjHcavlZRiobv27JBExT6
29/ZTYCEE+ChluZ1GAz2cHYQdfdKOyyrevcLOSrNPaRjDHzRITxIHh3xtyAFmjje
utDnSb3GmearqgOE0dX7gPn1lQMr2pKOl1Szymvw1omOhl1Mur77Lk7eqwuxlMTU
CMYponlrgDu8twB7yEVcuFT9KqnO68DETYQ/3jQMinQSecRR4pv1iDsVwyRn86fq
+Goftg5UktD5Adgp0EtVfIDiSVV9EqELVa/XQ5VNbpJds4VEC121Gg4mhP9IaDdX
+OnOGtIk9OEVGGZrj+zf5IlekNLuSvBuA+p9m75Gaj9KJitCfJh4DpdpLKJWihdI
xqHJqMm/q7YrZFq1u7hjvJW5McdHpk1a8QEiXq7ox0HbDy+Nr1P4p0DDvxtE11Nw
jkcy0ah8A4d/Benh1gHGwZ5X3AgVPNsAfZWmXAjg6fEuc6MetcJez0MOpnmE
-----END CERTIFICATE-----
