Certificate:
    Data:
        Version: 3 (0x2)
        Serial Number:
            f6:2b:03:82:d0:9b:c1:18:19:50:de:a6:d5:c9:9b:78
        Signature Algorithm: sha256WithRSAEncryption
        Issuer: C=ES, O=Teleco, CN=Client CA
        Validity
            Not Before: Apr  4 15:06:40 2023 GMT
            Not After : Apr  1 15:06:40 2033 GMT
        Subject: C=ES, O=Teleco, CN=clienttls13
        Subject Public Key Info:
            Public Key Algorithm: rsaEncryption
                RSA Public-Key: (2048 bit)
                Modulus:
                    00:cb:55:cf:da:72:56:c7:c2:8f:fe:85:68:b7:e9:
                    26:ec:33:ed:b2:da:bb:5e:64:63:3a:10:f3:59:63:
                    ed:c6:62:7e:9b:35:c7:c6:6b:0c:d8:f4:ea:81:a9:
                    20:c0:2e:65:1f:f0:a7:67:94:8a:1d:61:b0:fa:e5:
                    71:ad:02:39:d9:ee:56:a4:fd:6d:a6:4a:f3:88:ce:
                    84:2b:47:2f:08:b1:8a:ac:3f:53:22:55:e1:6f:21:
                    c2:3c:01:1a:bc:93:79:72:d9:d5:eb:34:ee:50:5e:
                    49:14:86:a4:c8:27:62:69:18:6f:3c:4e:89:df:c9:
                    73:3d:3c:52:c0:76:47:43:ab:92:78:61:c0:d2:4a:
                    61:78:84:e6:50:72:43:f9:f4:7e:cd:67:50:5a:d3:
                    4d:77:23:61:80:4b:c2:d4:71:27:d0:fe:85:3b:b8:
                    ee:a7:e5:36:86:1b:a3:d1:53:41:cc:76:03:b7:6a:
                    d0:93:7d:f3:db:02:d3:ea:fe:b8:c1:98:86:63:53:
                    b2:31:af:eb:c8:f5:06:78:e7:28:ab:d3:c2:5e:59:
                    4a:14:c8:47:28:3d:19:6f:8a:84:1b:d2:a7:85:7f:
                    7d:85:c8:7e:f7:b8:f0:f9:1a:ba:5c:98:83:57:eb:
                    33:a2:db:5a:d8:0a:67:c8:08:93:4a:dd:10:41:22:
                    5a:bd
                Exponent: 65537 (0x10001)
        X509v3 extensions:
            Authority Information Access: 
                CA Issuers - URI:http://client-ca.Teleco.com/client-ca.crt
                OCSP - URI:http://ocsp.client-ca.Teleco.com:9080

            X509v3 Authority Key Identifier: 
                keyid:AF:F9:FE:86:F6:4B:37:FA:61:5A:78:C0:6B:00:62:E8:54:11:C8:23

            X509v3 Basic Constraints: critical
                CA:FALSE
            X509v3 CRL Distribution Points: 

                Full Name:
                  URI:http://client-ca.Teleco.com/client-ca.crl

            X509v3 Extended Key Usage: 
                TLS Web Client Authentication
            X509v3 Key Usage: critical
                Digital Signature
            X509v3 Subject Key Identifier: 
                57:35:3C:AC:E6:BE:D3:7F:30:58:35:28:33:2F:3C:B6:C4:65:09:DA
    Signature Algorithm: sha256WithRSAEncryption
         56:0b:50:ae:10:f7:45:86:fd:45:e6:3b:e6:c8:0e:a2:12:14:
         a6:8c:1a:97:8d:f2:06:54:72:6d:cb:55:48:f5:16:99:b5:02:
         96:83:77:59:e9:f9:56:a5:9c:8c:8a:94:66:81:71:bb:01:9f:
         8c:36:90:66:e4:63:ee:93:4c:f6:46:15:84:4d:44:84:b0:31:
         48:e2:4b:2e:29:f2:24:a0:ec:e3:38:59:41:12:ab:1e:2f:e4:
         52:23:33:e6:35:91:03:f1:bf:60:1e:05:ec:8a:fb:fc:5c:6c:
         35:1a:89:e3:dc:72:88:9e:75:1a:0c:36:98:bb:2b:53:4d:b2:
         b8:9e:0f:c0:f3:c7:8f:06:3d:4b:f2:50:8d:4c:fa:1f:e1:95:
         07:6e:f6:bf:63:87:03:8c:ea:23:ee:5b:16:8a:56:57:a4:d0:
         3c:60:32:8e:a4:c2:c8:bf:50:08:ba:0a:c0:25:17:f7:36:de:
         fd:89:a9:16:91:6a:5a:07:5a:77:2e:cc:ee:f5:ed:69:d1:1e:
         7b:2e:07:8b:7f:0d:49:ca:4d:96:14:7f:36:29:2a:0e:1d:1e:
         10:d0:be:da:45:a4:7b:2e:a7:c9:37:f2:7f:74:df:40:76:03:
         c9:eb:f9:0f:d3:06:05:ff:82:53:f5:7f:6a:25:b4:b3:c8:93:
         b3:da:ce:7d:2f:94:e6:53:b1:a8:c8:af:24:a2:1c:90:3e:05:
         37:7b:66:02:6b:44:d1:94:0d:35:e2:c5:5b:3a:44:d7:27:3f:
         39:3d:d3:79:f2:49:97:35:2d:13:4d:8e:3f:d7:69:db:85:0d:
         60:fa:20:ec:83:0e:83:79:27:71:00:27:4f:e7:6e:c1:49:d7:
         85:7d:44:2c:13:16:09:bb:e2:30:5f:7b:79:8f:7f:26:05:c1:
         42:7b:bd:86:19:aa:46:46:87:af:a2:a6:6e:4a:70:57:35:c4:
         6e:b0:42:ec:80:2c:4a:70:66:80:69:89:7e:4c:f4:04:23:c8:
         51:02:ba:34:13:5a:f2:4f:af:bf:7d:17:a7:32:b0:71:0c:4f:
         ed:0b:7f:bb:19:78:b5:5f:7a:f2:16:85:1b:63:72:65:e2:bd:
         79:e7:a4:00:65:68:7f:fb:5c:5f:b8:76:ed:03:63:36:f9:ed:
         bd:e7:e6:dc:f9:83:97:91:26:1f:91:2c:c1:b6:ac:6c:52:68:
         59:c7:db:69:5e:e5:9f:22:79:4a:6c:23:aa:96:54:f7:f0:ea:
         68:90:19:53:e9:2a:2b:10:88:ed:61:11:40:da:1a:50:82:a8:
         8c:da:2a:cd:6a:d7:63:1b:a1:c6:99:39:9e:19:f0:46:c9:61:
         23:9d:40:e8:dc:58:05:17
-----BEGIN CERTIFICATE-----
MIIFIDCCAwigAwIBAgIRAPYrA4LQm8EYGVDeptXJm3gwDQYJKoZIhvcNAQELBQAw
MjELMAkGA1UEBhMCRVMxDzANBgNVBAoMBlRlbGVjbzESMBAGA1UEAwwJQ2xpZW50
IENBMB4XDTIzMDQwNDE1MDY0MFoXDTMzMDQwMTE1MDY0MFowNDELMAkGA1UEBhMC
RVMxDzANBgNVBAoMBlRlbGVjbzEUMBIGA1UEAwwLY2xpZW50dGxzMTMwggEiMA0G
CSqGSIb3DQEBAQUAA4IBDwAwggEKAoIBAQDLVc/aclbHwo/+hWi36SbsM+2y2rte
ZGM6EPNZY+3GYn6bNcfGawzY9OqBqSDALmUf8KdnlIodYbD65XGtAjnZ7lak/W2m
SvOIzoQrRy8IsYqsP1MiVeFvIcI8ARq8k3ly2dXrNO5QXkkUhqTIJ2JpGG88Tonf
yXM9PFLAdkdDq5J4YcDSSmF4hOZQckP59H7NZ1Ba0013I2GAS8LUcSfQ/oU7uO6n
5TaGG6PRU0HMdgO3atCTffPbAtPq/rjBmIZjU7Ixr+vI9QZ45yir08JeWUoUyEco
PRlvioQb0qeFf32FyH73uPD5GrpcmINX6zOi21rYCmfICJNK3RBBIlq9AgMBAAGj
ggEtMIIBKTB4BggrBgEFBQcBAQRsMGowNQYIKwYBBQUHMAKGKWh0dHA6Ly9jbGll
bnQtY2EuVGVsZWNvLmNvbS9jbGllbnQtY2EuY3J0MDEGCCsGAQUFBzABhiVodHRw
Oi8vb2NzcC5jbGllbnQtY2EuVGVsZWNvLmNvbTo5MDgwMB8GA1UdIwQYMBaAFK/5
/ob2Szf6YVp4wGsAYuhUEcgjMAwGA1UdEwEB/wQCMAAwOgYDVR0fBDMwMTAvoC2g
K4YpaHR0cDovL2NsaWVudC1jYS5UZWxlY28uY29tL2NsaWVudC1jYS5jcmwwEwYD
VR0lBAwwCgYIKwYBBQUHAwIwDgYDVR0PAQH/BAQDAgeAMB0GA1UdDgQWBBRXNTys
5r7TfzBYNSgzLzy2xGUJ2jANBgkqhkiG9w0BAQsFAAOCAgEAVgtQrhD3RYb9ReY7
5sgOohIUpowal43yBlRybctVSPUWmbUCloN3Wen5VqWcjIqUZoFxuwGfjDaQZuRj
7pNM9kYVhE1EhLAxSOJLLinyJKDs4zhZQRKrHi/kUiMz5jWRA/G/YB4F7Ir7/Fxs
NRqJ49xyiJ51Ggw2mLsrU02yuJ4PwPPHjwY9S/JQjUz6H+GVB272v2OHA4zqI+5b
FopWV6TQPGAyjqTCyL9QCLoKwCUX9zbe/YmpFpFqWgdady7M7vXtadEeey4Hi38N
ScpNlhR/NikqDh0eENC+2kWkey6nyTfyf3TfQHYDyev5D9MGBf+CU/V/aiW0s8iT
s9rOfS+U5lOxqMivJKIckD4FN3tmAmtE0ZQNNeLFWzpE1yc/OT3TefJJlzUtE02O
P9dp24UNYPog7IMOg3kncQAnT+duwUnXhX1ELBMWCbviMF97eY9/JgXBQnu9hhmq
RkaHr6KmbkpwVzXEbrBC7IAsSnBmgGmJfkz0BCPIUQK6NBNa8k+vv30XpzKwcQxP
7Qt/uxl4tV968haFG2NyZeK9eeekAGVof/tcX7h27QNjNvntvefm3PmDl5EmH5Es
wbasbFJoWcfbaV7lnyJ5SmwjqpZU9/DqaJAZU+kqKxCI7WERQNoaUIKojNoqzWrX
Yxuhxpk5nhnwRslhI51A6NxYBRc=
-----END CERTIFICATE-----
