Certificate:
    Data:
        Version: 3 (0x2)
        Serial Number:
            f6:2b:03:82:d0:9b:c1:18:19:50:de:a6:d5:c9:9b:7f
        Signature Algorithm: sha256WithRSAEncryption
        Issuer: C=ES, O=Teleco, CN=Client CA
        Validity
            Not Before: Apr  5 09:44:18 2023 GMT
            Not After : Apr  2 09:44:18 2033 GMT
        Subject: C=ES, O=Teleco, CN=clienttls13
        Subject Public Key Info:
            Public Key Algorithm: rsaEncryption
                RSA Public-Key: (1512 bit)
                Modulus:
                    00:bd:45:e1:34:e1:82:3a:29:4b:73:8c:a3:1b:aa:
                    66:01:db:b5:84:a2:2d:37:49:15:6c:23:ad:5f:44:
                    bd:62:be:35:04:09:54:8a:f0:50:01:b1:30:04:38:
                    fc:ae:cd:e7:bf:93:78:88:70:0e:49:06:c5:36:de:
                    f7:7e:0d:1e:bd:12:d8:a9:4e:19:95:4f:6d:41:be:
                    6d:82:a4:53:d3:ca:95:34:81:40:dd:1c:11:1d:09:
                    d7:e6:25:87:a7:b9:1e:3c:7d:ca:8d:1a:e4:c7:e5:
                    80:34:a9:43:3f:79:82:c9:2b:6c:37:50:a1:fd:00:
                    52:58:ff:de:d5:2c:5c:c7:0a:59:2d:58:57:4f:73:
                    17:53:59:7b:9c:b8:1c:82:41:a4:55:fc:99:a4:02:
                    b7:fe:f3:22:7d:9b:38:81:df:09:b0:42:20:c7:0d:
                    4e:21:b3:bf:91:61:3f:e6:84:42:f0:56:e6:bf:1b:
                    c3:3f:f9:78:8c:48:3f:d5:bf:d1
                Exponent: 65537 (0x10001)
        X509v3 extensions:
            Authority Information Access: 
                CA Issuers - URI:http://client-ca.Teleco.com/client-ca.crt
                OCSP - URI:http://ocsp.client-ca.Teleco.com:9080

            X509v3 Authority Key Identifier: 
                keyid:F2:6C:06:3E:0B:82:A2:58:20:F4:65:DE:2C:FD:C3:E5:E2:13:A1:58

            X509v3 Basic Constraints: critical
                CA:FALSE
            X509v3 CRL Distribution Points: 

                Full Name:
                  URI:http://client-ca.Teleco.com/client-ca.crl

            X509v3 Extended Key Usage: 
                TLS Web Client Authentication
            X509v3 Key Usage: critical
                Digital Signature
            X509v3 Subject Key Identifier: 
                80:F8:D6:63:4B:03:9B:3B:53:0A:F9:1C:0E:8A:D5:D8:4F:27:72:AB
    Signature Algorithm: sha256WithRSAEncryption
         4f:6b:d5:45:d4:51:9f:6c:f9:c9:b2:36:5d:38:65:1d:fe:42:
         2d:e1:d5:d4:28:e7:74:88:e1:f1:68:88:99:e6:03:0c:cd:0d:
         94:31:25:35:0f:8b:a4:27:25:05:14:ec:d6:09:6c:1e:50:8b:
         89:a1:d0:d5:09:1f:59:d3:89:65:92:04:3c:65:33:4b:4c:03:
         2f:4b:c4:5b:53:a7:a9:25:78:f6:4d:27:34:06:9f:b2:15:9d:
         51:75:3e:83:9b:ec:76:f0:07:e9:72:aa:f5:48:34:f4:9a:0c:
         28:22:33:1f:63:bd:67:0f:a7:22:e5:2d:aa:a6:f8:23:30:77:
         b8:84:b0:71:8a:af:43:4e:f1:e2:fe:18:fe:d2:53:fe:9a:02:
         d9:bd:5e:7a:74:cb:cd:5a:a2:71:fc:9b:be:f8:96:a4:3d:57:
         05:48:07:4f:52:7a:f0:b7:5e:e2:4c:f6:1f:e4:c5:38:6f:dd:
         9b:ab:af:85:a2:07:a0:85:23:de:43:9d:41:a1:f7:a2:14:ce:
         4b:f6:26:3e:d1:bf:22:53:8f:1f:5d:20:65:55:26:b0:37:1d:
         dd:67:2e:29:be:6a:dc:7a:72:fe:8a:f6:28:82:9d:ea:66:3b:
         85:08:46:6b:4d:84:40:8a:8d:ec:10:a0:c9:68:ca:5e:35:83:
         92:5b:68:49:02:18:bf:da:76:28:e2:21:4d:8d:cc:cc:3c:4d:
         ff:8c:86:ce:1f:d5:48:83:20:35:43:44:6c:51:ab:c5:42:3e:
         68:09:39:97:5a:8b:98:bf:57:a4:d7:a4:a5:41:5d:50:b3:36:
         c4:15:1f:61:5c:32:33:51:18:c1:f1:2c:31:b6:11:b8:d9:a3:
         a7:6a:71:d3:69:b2:73:57:b7:e2:27:3c:4c:18:9f:55:45:8d:
         5a:68:37:a8:f9:8f:fb:80:e4:3d:0b:3d:75:27:e4:1a:89:08:
         35:1b:2d:eb:2e:dd:32:61:aa:16:eb:23:c1:db:ad:18:04:97:
         cf:27:8a:8f:71:4d:37:4f:98:6d:81:eb:44:d7:2f:4b:aa:55:
         b1:fb:2f:b3:d3:46:24:0d:91:a9:87:ea:66:d4:60:3c:28:71:
         7d:44:9c:81:13:dd:85:4c:1c:04:f5:5b:0c:e8:ac:ae:a2:72:
         42:b7:03:58:b4:e7:0b:75:be:51:77:06:74:d2:30:a0:2d:3d:
         e4:0f:96:b3:3e:be:bf:85:f6:89:f3:65:15:f3:63:44:3f:29:
         65:ea:10:2c:88:0c:ff:5f:77:35:5c:b4:46:bb:16:75:ac:3f:
         19:b5:3e:d1:3d:27:39:cc:15:ba:15:4a:13:6a:0e:d4:eb:1b:
         dc:17:89:7f:df:03:75:86
-----BEGIN CERTIFICATE-----
MIIE2TCCAsGgAwIBAgIRAPYrA4LQm8EYGVDeptXJm38wDQYJKoZIhvcNAQELBQAw
MjELMAkGA1UEBhMCRVMxDzANBgNVBAoMBlRlbGVjbzESMBAGA1UEAwwJQ2xpZW50
IENBMB4XDTIzMDQwNTA5NDQxOFoXDTMzMDQwMjA5NDQxOFowNDELMAkGA1UEBhMC
RVMxDzANBgNVBAoMBlRlbGVjbzEUMBIGA1UEAwwLY2xpZW50dGxzMTMwgdwwDQYJ
KoZIhvcNAQEBBQADgcoAMIHGAoG+AL1F4TThgjopS3OMoxuqZgHbtYSiLTdJFWwj
rV9EvWK+NQQJVIrwUAGxMAQ4/K7N57+TeIhwDkkGxTbe934NHr0S2KlOGZVPbUG+
bYKkU9PKlTSBQN0cER0J1+Ylh6e5Hjx9yo0a5MflgDSpQz95gskrbDdQof0AUlj/
3tUsXMcKWS1YV09zF1NZe5y4HIJBpFX8maQCt/7zIn2bOIHfCbBCIMcNTiGzv5Fh
P+aEQvBW5r8bwz/5eIxIP9W/0QIDAQABo4IBLTCCASkweAYIKwYBBQUHAQEEbDBq
MDUGCCsGAQUFBzAChilodHRwOi8vY2xpZW50LWNhLlRlbGVjby5jb20vY2xpZW50
LWNhLmNydDAxBggrBgEFBQcwAYYlaHR0cDovL29jc3AuY2xpZW50LWNhLlRlbGVj
by5jb206OTA4MDAfBgNVHSMEGDAWgBTybAY+C4KiWCD0Zd4s/cPl4hOhWDAMBgNV
HRMBAf8EAjAAMDoGA1UdHwQzMDEwL6AtoCuGKWh0dHA6Ly9jbGllbnQtY2EuVGVs
ZWNvLmNvbS9jbGllbnQtY2EuY3JsMBMGA1UdJQQMMAoGCCsGAQUFBwMCMA4GA1Ud
DwEB/wQEAwIHgDAdBgNVHQ4EFgQUgPjWY0sDmztTCvkcDorV2E8ncqswDQYJKoZI
hvcNAQELBQADggIBAE9r1UXUUZ9s+cmyNl04ZR3+Qi3h1dQo53SI4fFoiJnmAwzN
DZQxJTUPi6QnJQUU7NYJbB5Qi4mh0NUJH1nTiWWSBDxlM0tMAy9LxFtTp6klePZN
JzQGn7IVnVF1PoOb7HbwB+lyqvVINPSaDCgiMx9jvWcPpyLlLaqm+CMwd7iEsHGK
r0NO8eL+GP7SU/6aAtm9Xnp0y81aonH8m774lqQ9VwVIB09SevC3XuJM9h/kxThv
3Zurr4WiB6CFI95DnUGh96IUzkv2Jj7RvyJTjx9dIGVVJrA3Hd1nLim+atx6cv6K
9iiCnepmO4UIRmtNhECKjewQoMloyl41g5JbaEkCGL/adijiIU2NzMw8Tf+Mhs4f
1UiDIDVDRGxRq8VCPmgJOZdai5i/V6TXpKVBXVCzNsQVH2FcMjNRGMHxLDG2EbjZ
o6dqcdNpsnNXt+InPEwYn1VFjVpoN6j5j/uA5D0LPXUn5BqJCDUbLesu3TJhqhbr
I8HbrRgEl88nio9xTTdPmG2B60TXL0uqVbH7L7PTRiQNkamH6mbUYDwocX1EnIET
3YVMHAT1WwzorK6ickK3A1i05wt1vlF3BnTSMKAtPeQPlrM+vr+F9onzZRXzY0Q/
KWXqECyIDP9fdzVctEa7FnWsPxm1PtE9JznMFboVShNqDtTrG9wXiX/fA3WG
-----END CERTIFICATE-----
