Certificate:
    Data:
        Version: 3 (0x2)
        Serial Number:
            f6:2b:03:82:d0:9b:c1:18:19:50:de:a6:d5:c9:9b:6c
        Signature Algorithm: sha256WithRSAEncryption
        Issuer: C=ES, O=Teleco, CN=Client CA
        Validity
            Not Before: Feb 26 11:58:44 2023 GMT
            Not After : Feb 26 11:58:44 2024 GMT
        Subject: C=ES, O=Teleco, CN=clienttls13
        Subject Public Key Info:
            Public Key Algorithm: rsaEncryption
                RSA Public-Key: (2048 bit)
                Modulus:
                    00:a9:82:91:14:ec:dc:51:ab:96:eb:60:58:d6:97:
                    ae:a0:4a:bf:e3:9b:92:40:6e:17:de:14:ba:09:6c:
                    ba:75:9c:a7:03:b2:f1:4e:3d:8b:91:0d:41:66:dd:
                    13:d3:76:ad:33:0b:e3:af:22:aa:24:50:c2:a4:be:
                    03:0e:b2:a3:79:01:d8:4d:5e:fc:2b:22:f8:f5:eb:
                    4d:a0:fe:2a:70:40:b5:d2:10:78:f4:b7:1d:e4:e1:
                    83:9b:5d:6b:18:14:4f:91:04:3b:f3:65:78:57:17:
                    45:b4:de:eb:7c:f8:31:dd:d0:31:89:50:69:fc:a4:
                    9c:13:04:5e:d0:31:09:7f:18:ac:63:0a:19:79:f0:
                    fc:45:17:5f:9d:f6:0d:11:b7:66:be:f7:ba:8e:44:
                    2b:f8:d5:8f:1c:5e:8f:79:11:09:b8:b5:d0:29:23:
                    1b:e9:d6:b9:56:67:fa:82:09:d8:bd:b6:85:76:7a:
                    5a:cd:f5:5f:46:1e:86:c8:1c:45:6c:c7:78:df:14:
                    34:97:e1:de:d6:b0:8d:21:68:67:17:ce:b0:b8:da:
                    36:79:8f:df:66:21:d1:37:b4:08:80:56:1f:4a:74:
                    d9:3e:65:58:8e:38:61:64:2d:27:92:e5:94:5b:cc:
                    74:4c:4e:42:dd:77:bd:cf:a2:59:37:14:4a:38:35:
                    8d:71
                Exponent: 65537 (0x10001)
        X509v3 extensions:
            Authority Information Access: 
                CA Issuers - URI:http://client-ca.Teleco.com/client-ca.crt
                OCSP - URI:http://ocsp.client-ca.Teleco.com:9082

            X509v3 Authority Key Identifier: 
                keyid:B1:95:C8:1C:9F:36:2E:E6:4C:C1:44:EE:07:67:29:B9:27:FD:E3:C6

            X509v3 Basic Constraints: critical
                CA:FALSE
            X509v3 CRL Distribution Points: 

                Full Name:
                  URI:http://client-ca.Teleco.com/client-ca.crl

            X509v3 Extended Key Usage: 
                TLS Web Client Authentication
            X509v3 Key Usage: critical
                Digital Signature
            X509v3 Subject Key Identifier: 
                7E:24:4D:86:C9:21:7E:8C:AB:53:F9:99:7A:E7:F7:BF:CB:28:30:88
    Signature Algorithm: sha256WithRSAEncryption
         24:32:a7:63:d7:59:72:26:06:e6:04:16:c9:85:6b:33:30:d7:
         86:3a:be:67:7b:da:a3:27:c0:be:26:93:e8:77:98:11:aa:f1:
         15:0e:08:88:e3:f2:0b:05:c6:f6:64:6f:d0:89:61:cb:7c:95:
         e5:29:2d:ec:7a:62:09:65:38:ec:b1:d8:6d:22:1e:12:7e:db:
         43:75:d2:5f:4e:14:68:d4:b3:61:10:74:71:00:00:29:09:c5:
         d6:b7:90:d5:e1:d8:30:b1:e7:56:c1:84:00:00:01:7b:f6:6d:
         da:f1:e3:c2:f9:36:2b:0a:dc:82:d1:67:c8:ca:22:82:4f:b4:
         2e:5e:79:06:ae:c5:5d:28:a8:6a:bf:74:e4:51:32:38:97:c0:
         a5:4d:26:b3:39:00:1e:d2:49:7e:29:28:92:8e:34:ea:04:02:
         95:3e:1d:29:6d:0b:11:70:1b:1e:cc:f7:7c:4c:ce:cf:58:11:
         a5:f1:13:30:4c:07:73:80:c6:80:7e:ee:6e:ac:b5:ea:06:12:
         d2:ba:2e:22:56:7c:9c:4a:70:b2:22:aa:fa:5b:82:55:8d:45:
         db:3b:aa:58:9e:e3:08:22:c1:cf:69:49:98:a4:98:90:dc:2c:
         f8:2e:50:7a:40:9a:02:0c:13:f4:ae:bf:c6:37:5a:89:37:3b:
         f7:89:1a:9f:9d:bd:4a:b2:89:a2:c7:e1:a5:3d:1f:62:ac:e8:
         23:0b:e1:59:eb:05:0c:f5:86:8e:65:36:6d:48:bf:7b:97:28:
         bc:91:0d:53:a0:9a:ad:63:b8:e7:f2:63:61:90:c5:77:02:3c:
         6f:8d:a1:36:f2:10:75:53:50:91:23:70:2d:9a:c7:f0:ad:91:
         a4:d7:86:e1:79:59:af:e2:cc:dc:61:df:b9:66:39:ac:9d:64:
         21:5f:ca:14:83:7c:65:d1:5f:f4:43:b2:68:0a:2d:c1:80:f6:
         b9:38:48:7f:65:10:a2:af:b3:05:53:1f:11:ef:eb:d5:35:56:
         a5:e2:a5:72:88:87:0c:3c:4f:23:88:0a:9d:a7:a2:ce:9b:94:
         98:6f:1e:cf:2e:ba:2a:ab:3d:bb:1e:a2:c6:dd:b6:a7:f7:0b:
         62:16:6c:55:5a:9d:ae:21:3d:d7:61:ff:b3:78:4b:50:25:2c:
         8d:dd:9c:f9:a6:27:24:c4:d1:a2:5c:70:dc:bc:7e:ab:ab:a5:
         d6:78:6f:f7:a4:9e:0a:b6:80:2c:59:42:06:00:34:20:b5:81:
         dc:a1:64:59:5a:bc:e5:5f:fc:68:6e:4a:08:40:7b:c3:11:d4:
         e0:b5:7d:05:10:c1:15:28:33:f5:d3:8f:79:82:97:1c:2a:f4:
         22:98:2a:0b:cb:4d:40:1b
-----BEGIN CERTIFICATE-----
MIIFIDCCAwigAwIBAgIRAPYrA4LQm8EYGVDeptXJm2wwDQYJKoZIhvcNAQELBQAw
MjELMAkGA1UEBhMCRVMxDzANBgNVBAoMBlRlbGVjbzESMBAGA1UEAwwJQ2xpZW50
IENBMB4XDTIzMDIyNjExNTg0NFoXDTI0MDIyNjExNTg0NFowNDELMAkGA1UEBhMC
RVMxDzANBgNVBAoMBlRlbGVjbzEUMBIGA1UEAwwLY2xpZW50dGxzMTMwggEiMA0G
CSqGSIb3DQEBAQUAA4IBDwAwggEKAoIBAQCpgpEU7NxRq5brYFjWl66gSr/jm5JA
bhfeFLoJbLp1nKcDsvFOPYuRDUFm3RPTdq0zC+OvIqokUMKkvgMOsqN5AdhNXvwr
Ivj1602g/ipwQLXSEHj0tx3k4YObXWsYFE+RBDvzZXhXF0W03ut8+DHd0DGJUGn8
pJwTBF7QMQl/GKxjChl58PxFF1+d9g0Rt2a+97qORCv41Y8cXo95EQm4tdApIxvp
1rlWZ/qCCdi9toV2elrN9V9GHobIHEVsx3jfFDSX4d7WsI0haGcXzrC42jZ5j99m
IdE3tAiAVh9KdNk+ZViOOGFkLSeS5ZRbzHRMTkLdd73Polk3FEo4NY1xAgMBAAGj
ggEtMIIBKTB4BggrBgEFBQcBAQRsMGowNQYIKwYBBQUHMAKGKWh0dHA6Ly9jbGll
bnQtY2EuVGVsZWNvLmNvbS9jbGllbnQtY2EuY3J0MDEGCCsGAQUFBzABhiVodHRw
Oi8vb2NzcC5jbGllbnQtY2EuVGVsZWNvLmNvbTo5MDgyMB8GA1UdIwQYMBaAFLGV
yByfNi7mTMFE7gdnKbkn/ePGMAwGA1UdEwEB/wQCMAAwOgYDVR0fBDMwMTAvoC2g
K4YpaHR0cDovL2NsaWVudC1jYS5UZWxlY28uY29tL2NsaWVudC1jYS5jcmwwEwYD
VR0lBAwwCgYIKwYBBQUHAwIwDgYDVR0PAQH/BAQDAgeAMB0GA1UdDgQWBBR+JE2G
ySF+jKtT+Zl65/e/yygwiDANBgkqhkiG9w0BAQsFAAOCAgEAJDKnY9dZciYG5gQW
yYVrMzDXhjq+Z3vaoyfAviaT6HeYEarxFQ4IiOPyCwXG9mRv0Ilhy3yV5Skt7Hpi
CWU47LHYbSIeEn7bQ3XSX04UaNSzYRB0cQAAKQnF1reQ1eHYMLHnVsGEAAABe/Zt
2vHjwvk2KwrcgtFnyMoigk+0Ll55Bq7FXSioar905FEyOJfApU0mszkAHtJJfiko
ko406gQClT4dKW0LEXAbHsz3fEzOz1gRpfETMEwHc4DGgH7ubqy16gYS0rouIlZ8
nEpwsiKq+luCVY1F2zuqWJ7jCCLBz2lJmKSYkNws+C5QekCaAgwT9K6/xjdaiTc7
94kan529SrKJosfhpT0fYqzoIwvhWesFDPWGjmU2bUi/e5covJENU6CarWO45/Jj
YZDFdwI8b42hNvIQdVNQkSNwLZrH8K2RpNeG4XlZr+LM3GHfuWY5rJ1kIV/KFIN8
ZdFf9EOyaAotwYD2uThIf2UQoq+zBVMfEe/r1TVWpeKlcoiHDDxPI4gKnaeizpuU
mG8ezy66Kqs9ux6ixt22p/cLYhZsVVqdriE912H/s3hLUCUsjd2c+aYnJMTRolxw
3Lx+q6ul1nhv96SeCraALFlCBgA0ILWB3KFkWVq85V/8aG5KCEB7wxHU4LV9BRDB
FSgz9dOPeYKXHCr0IpgqC8tNQBs=
-----END CERTIFICATE-----
