Certificate:
    Data:
        Version: 3 (0x2)
        Serial Number:
            f6:2b:03:82:d0:9b:c1:18:19:50:de:a6:d5:c9:9b:7b
        Signature Algorithm: sha256WithRSAEncryption
        Issuer: C=ES, O=Teleco, CN=Client CA
        Validity
            Not Before: Apr  4 15:51:34 2023 GMT
            Not After : Apr  1 15:51:34 2033 GMT
        Subject: C=ES, O=Teleco, CN=clienttls13
        Subject Public Key Info:
            Public Key Algorithm: rsaEncryption
                RSA Public-Key: (2048 bit)
                Modulus:
                    00:cb:55:cf:da:72:56:c7:c2:8f:fe:85:68:b7:e9:
                    26:ec:33:ed:b2:da:bb:5e:64:63:3a:10:f3:59:63:
                    ed:c6:62:7e:9b:35:c7:c6:6b:0c:d8:f4:ea:81:a9:
                    20:c0:2e:65:1f:f0:a7:67:94:8a:1d:61:b0:fa:e5:
                    71:ad:02:39:d9:ee:56:a4:fd:6d:a6:4a:f3:88:ce:
                    84:2b:47:2f:08:b1:8a:ac:3f:53:22:55:e1:6f:21:
                    c2:3c:01:1a:bc:93:79:72:d9:d5:eb:34:ee:50:5e:
                    49:14:86:a4:c8:27:62:69:18:6f:3c:4e:89:df:c9:
                    73:3d:3c:52:c0:76:47:43:ab:92:78:61:c0:d2:4a:
                    61:78:84:e6:50:72:43:f9:f4:7e:cd:67:50:5a:d3:
                    4d:77:23:61:80:4b:c2:d4:71:27:d0:fe:85:3b:b8:
                    ee:a7:e5:36:86:1b:a3:d1:53:41:cc:76:03:b7:6a:
                    d0:93:7d:f3:db:02:d3:ea:fe:b8:c1:98:86:63:53:
                    b2:31:af:eb:c8:f5:06:78:e7:28:ab:d3:c2:5e:59:
                    4a:14:c8:47:28:3d:19:6f:8a:84:1b:d2:a7:85:7f:
                    7d:85:c8:7e:f7:b8:f0:f9:1a:ba:5c:98:83:57:eb:
                    33:a2:db:5a:d8:0a:67:c8:08:93:4a:dd:10:41:22:
                    5a:bd
                Exponent: 65537 (0x10001)
        X509v3 extensions:
            Authority Information Access: 
                OCSP - URI:http://localhost:9080/

            X509v3 Authority Key Identifier: 
                keyid:AF:F9:FE:86:F6:4B:37:FA:61:5A:78:C0:6B:00:62:E8:54:11:C8:23

            X509v3 Basic Constraints: critical
                CA:FALSE
            X509v3 CRL Distribution Points: 

                Full Name:
                  URI:http://client-ca.Teleco.com/client-ca.crl

            X509v3 Extended Key Usage: 
                TLS Web Client Authentication
            X509v3 Key Usage: critical
                Digital Signature
            X509v3 Subject Key Identifier: 
                57:35:3C:AC:E6:BE:D3:7F:30:58:35:28:33:2F:3C:B6:C4:65:09:DA
    Signature Algorithm: sha256WithRSAEncryption
         5f:db:40:dc:0d:72:bf:15:72:4a:68:85:7b:46:b1:aa:fd:b2:
         e2:85:82:7f:2a:1f:5e:d9:f7:5e:8e:f5:de:9f:cf:db:84:42:
         80:29:4a:69:4b:87:3b:39:1d:d7:b9:7d:e6:7c:55:29:58:e3:
         4d:0a:c0:01:87:1e:69:d4:7e:09:94:86:ee:86:9f:4e:f2:bb:
         21:a5:f3:4e:4e:ac:8a:58:34:fc:fc:f1:24:80:80:a6:84:f1:
         64:8b:cb:da:a4:5a:88:7b:63:74:71:bb:7e:89:9f:bf:6c:95:
         fe:6d:b2:62:35:df:cf:02:21:3c:27:3f:fe:04:06:36:c0:3b:
         04:3e:14:cd:07:25:8f:33:c1:68:d0:08:34:19:39:cc:b8:d2:
         0e:f2:d3:16:15:99:dd:e0:ac:42:71:32:b5:50:64:af:c1:dc:
         3e:a1:4c:ed:26:9f:15:d0:87:84:4f:91:29:4a:77:09:e8:02:
         3f:0f:e1:8c:d5:01:b1:c5:67:09:78:7c:3d:4e:97:db:38:d1:
         b6:2c:ab:b6:8d:7b:5c:d3:bd:18:57:9f:31:a9:a5:9b:c3:c8:
         ef:a7:17:d6:37:c6:c9:7a:8c:c7:e4:6d:cf:b9:92:b1:93:d3:
         eb:5b:d7:d5:6f:4b:6e:2c:83:21:02:41:dd:ca:b5:1c:8d:9d:
         6a:03:b9:85:4b:2a:2b:47:3a:c5:ab:41:3b:cd:48:89:6f:dd:
         89:f2:13:f2:6e:89:80:37:a7:0d:a2:e4:97:b6:70:a9:0f:0d:
         f2:36:84:c6:b4:ac:ba:3e:aa:a4:b4:7e:15:16:a9:56:08:a2:
         e4:d5:1a:be:15:fc:19:63:19:30:0b:40:93:5c:ca:9e:74:bc:
         2a:79:35:a1:59:05:94:94:07:b1:b6:71:c7:79:d1:92:66:a2:
         59:1d:86:b1:17:02:da:46:b1:ff:ca:fd:e8:b3:1c:2a:06:13:
         78:78:41:61:66:5c:4b:24:40:c6:92:63:0e:86:ac:72:75:21:
         8f:2e:b3:21:d3:ff:9f:ef:b9:95:25:13:f2:86:15:8b:14:c4:
         47:ff:71:6c:45:a2:a1:be:45:3f:b7:68:96:c8:17:e5:03:83:
         69:ac:c0:25:99:60:3b:1c:83:9f:85:72:d6:a4:b7:fe:eb:c4:
         0c:91:6f:69:af:a1:ad:6f:ce:71:df:3b:e8:ae:af:d8:af:18:
         55:83:bd:d9:bb:24:d9:22:ea:35:7e:42:77:98:e3:c4:0a:66:
         e4:cf:55:31:46:9c:8d:52:dc:ad:ea:99:18:65:1c:c8:41:fe:
         4e:87:76:79:52:7e:91:8b:58:41:69:ef:6a:d6:10:0e:99:ec:
         cd:73:73:05:71:e1:da:ff
-----BEGIN CERTIFICATE-----
MIIE2DCCAsCgAwIBAgIRAPYrA4LQm8EYGVDeptXJm3swDQYJKoZIhvcNAQELBQAw
MjELMAkGA1UEBhMCRVMxDzANBgNVBAoMBlRlbGVjbzESMBAGA1UEAwwJQ2xpZW50
IENBMB4XDTIzMDQwNDE1NTEzNFoXDTMzMDQwMTE1NTEzNFowNDELMAkGA1UEBhMC
RVMxDzANBgNVBAoMBlRlbGVjbzEUMBIGA1UEAwwLY2xpZW50dGxzMTMwggEiMA0G
CSqGSIb3DQEBAQUAA4IBDwAwggEKAoIBAQDLVc/aclbHwo/+hWi36SbsM+2y2rte
ZGM6EPNZY+3GYn6bNcfGawzY9OqBqSDALmUf8KdnlIodYbD65XGtAjnZ7lak/W2m
SvOIzoQrRy8IsYqsP1MiVeFvIcI8ARq8k3ly2dXrNO5QXkkUhqTIJ2JpGG88Tonf
yXM9PFLAdkdDq5J4YcDSSmF4hOZQckP59H7NZ1Ba0013I2GAS8LUcSfQ/oU7uO6n
5TaGG6PRU0HMdgO3atCTffPbAtPq/rjBmIZjU7Ixr+vI9QZ45yir08JeWUoUyEco
PRlvioQb0qeFf32FyH73uPD5GrpcmINX6zOi21rYCmfICJNK3RBBIlq9AgMBAAGj
geYwgeMwMgYIKwYBBQUHAQEEJjAkMCIGCCsGAQUFBzABhhZodHRwOi8vbG9jYWxo
b3N0OjkwODAvMB8GA1UdIwQYMBaAFK/5/ob2Szf6YVp4wGsAYuhUEcgjMAwGA1Ud
EwEB/wQCMAAwOgYDVR0fBDMwMTAvoC2gK4YpaHR0cDovL2NsaWVudC1jYS5UZWxl
Y28uY29tL2NsaWVudC1jYS5jcmwwEwYDVR0lBAwwCgYIKwYBBQUHAwIwDgYDVR0P
AQH/BAQDAgeAMB0GA1UdDgQWBBRXNTys5r7TfzBYNSgzLzy2xGUJ2jANBgkqhkiG
9w0BAQsFAAOCAgEAX9tA3A1yvxVySmiFe0axqv2y4oWCfyofXtn3Xo713p/P24RC
gClKaUuHOzkd17l95nxVKVjjTQrAAYceadR+CZSG7oafTvK7IaXzTk6silg0/Pzx
JICApoTxZIvL2qRaiHtjdHG7fomfv2yV/m2yYjXfzwIhPCc//gQGNsA7BD4UzQcl
jzPBaNAINBk5zLjSDvLTFhWZ3eCsQnEytVBkr8HcPqFM7SafFdCHhE+RKUp3CegC
Pw/hjNUBscVnCXh8PU6X2zjRtiyrto17XNO9GFefMamlm8PI76cX1jfGyXqMx+Rt
z7mSsZPT61vX1W9LbiyDIQJB3cq1HI2dagO5hUsqK0c6xatBO81IiW/difIT8m6J
gDenDaLkl7ZwqQ8N8jaExrSsuj6qpLR+FRapVgii5NUavhX8GWMZMAtAk1zKnnS8
Knk1oVkFlJQHsbZxx3nRkmaiWR2GsRcC2kax/8r96LMcKgYTeHhBYWZcSyRAxpJj
DoascnUhjy6zIdP/n++5lSUT8oYVixTER/9xbEWiob5FP7dolsgX5QODaazAJZlg
OxyDn4Vy1qS3/uvEDJFvaa+hrW/Ocd876K6v2K8YVYO92bsk2SLqNX5Cd5jjxApm
5M9VMUacjVLcreqZGGUcyEH+Tod2eVJ+kYtYQWnvatYQDpnszXNzBXHh2v8=
-----END CERTIFICATE-----
