Certificate:
    Data:
        Version: 3 (0x2)
        Serial Number:
            f6:2b:03:82:d0:9b:c1:18:19:50:de:a6:d5:c9:9b:70
        Signature Algorithm: sha256WithRSAEncryption
        Issuer: C=ES, O=Teleco, CN=Client CA
        Validity
            Not Before: Apr  3 13:56:35 2023 GMT
            Not After : Apr  2 13:56:35 2024 GMT
        Subject: C=ES, O=Teleco, CN=clienttls13
        Subject Public Key Info:
            Public Key Algorithm: rsaEncryption
                RSA Public-Key: (2048 bit)
                Modulus:
                    00:cb:55:cf:da:72:56:c7:c2:8f:fe:85:68:b7:e9:
                    26:ec:33:ed:b2:da:bb:5e:64:63:3a:10:f3:59:63:
                    ed:c6:62:7e:9b:35:c7:c6:6b:0c:d8:f4:ea:81:a9:
                    20:c0:2e:65:1f:f0:a7:67:94:8a:1d:61:b0:fa:e5:
                    71:ad:02:39:d9:ee:56:a4:fd:6d:a6:4a:f3:88:ce:
                    84:2b:47:2f:08:b1:8a:ac:3f:53:22:55:e1:6f:21:
                    c2:3c:01:1a:bc:93:79:72:d9:d5:eb:34:ee:50:5e:
                    49:14:86:a4:c8:27:62:69:18:6f:3c:4e:89:df:c9:
                    73:3d:3c:52:c0:76:47:43:ab:92:78:61:c0:d2:4a:
                    61:78:84:e6:50:72:43:f9:f4:7e:cd:67:50:5a:d3:
                    4d:77:23:61:80:4b:c2:d4:71:27:d0:fe:85:3b:b8:
                    ee:a7:e5:36:86:1b:a3:d1:53:41:cc:76:03:b7:6a:
                    d0:93:7d:f3:db:02:d3:ea:fe:b8:c1:98:86:63:53:
                    b2:31:af:eb:c8:f5:06:78:e7:28:ab:d3:c2:5e:59:
                    4a:14:c8:47:28:3d:19:6f:8a:84:1b:d2:a7:85:7f:
                    7d:85:c8:7e:f7:b8:f0:f9:1a:ba:5c:98:83:57:eb:
                    33:a2:db:5a:d8:0a:67:c8:08:93:4a:dd:10:41:22:
                    5a:bd
                Exponent: 65537 (0x10001)
        X509v3 extensions:
            Authority Information Access: 
                CA Issuers - URI:http://client-ca.Teleco.com/client-ca.crt
                OCSP - URI:http://ocsp.client-ca.Teleco.com:9082

            X509v3 Authority Key Identifier: 
                keyid:A8:1E:B0:08:FA:78:16:58:07:66:6F:98:0B:8E:00:06:D1:7D:07:0D

            X509v3 Basic Constraints: critical
                CA:FALSE
            X509v3 CRL Distribution Points: 

                Full Name:
                  URI:http://client-ca.Teleco.com/client-ca.crl

            X509v3 Extended Key Usage: 
                TLS Web Client Authentication
            X509v3 Key Usage: critical
                Digital Signature
            X509v3 Subject Key Identifier: 
                57:35:3C:AC:E6:BE:D3:7F:30:58:35:28:33:2F:3C:B6:C4:65:09:DA
    Signature Algorithm: sha256WithRSAEncryption
         50:07:ad:7c:be:b9:8b:74:13:45:87:b6:0d:1b:03:e1:fa:1d:
         97:05:b0:3d:80:c0:0c:2e:85:ec:9e:8d:85:ee:8b:53:d9:f6:
         05:e6:6d:0c:d1:d5:b9:cd:47:1d:78:22:63:3e:8b:cc:50:02:
         ec:b5:46:7a:f0:bb:08:44:b8:06:e1:9f:81:e1:2f:68:3e:dc:
         3a:60:d4:c6:14:a7:d7:f1:c3:eb:0b:33:bf:7d:60:8e:7e:86:
         31:38:e2:e1:95:2c:a0:41:97:0e:2c:cc:93:7f:50:74:41:cd:
         ba:94:41:6c:5e:66:73:2f:46:78:ed:6b:6f:8b:1d:c4:ef:7b:
         90:6b:79:08:61:ae:ab:83:2a:c7:28:f9:39:0e:7c:3a:27:cd:
         e2:f1:54:7b:45:75:b9:fe:32:4f:78:cc:cf:3f:0d:be:90:e3:
         a5:0d:35:59:ef:35:9e:6d:4c:95:b7:e7:c9:61:a3:5b:fb:59:
         cd:f3:7c:0b:76:63:fc:41:b5:f4:9b:5f:62:92:e1:a5:16:61:
         81:7b:b3:14:91:ae:99:f6:d0:57:24:fb:0c:74:bf:71:9f:58:
         a0:01:72:db:22:d7:16:d8:a1:86:31:0a:ba:12:96:93:65:4c:
         fe:b3:a4:65:27:9b:9c:ce:37:4a:30:15:de:33:a3:5e:bc:bd:
         81:ae:04:5f:11:3b:9f:95:67:f2:2a:00:99:8f:5f:cf:2a:66:
         b4:72:ac:97:eb:12:b7:d1:af:78:ca:c1:18:5e:12:53:d6:f5:
         de:93:87:91:26:09:f8:f9:74:01:43:dd:e3:1b:d5:ef:bf:40:
         24:b0:de:c6:94:af:30:6d:e6:8b:dc:1f:72:84:46:cc:44:40:
         42:c1:22:dc:a9:00:af:2d:52:0e:1d:09:3f:71:0e:17:43:3f:
         c8:90:2c:20:e9:d5:7b:40:04:39:ec:4c:81:b2:db:a8:a8:6a:
         3c:2e:6a:ce:9b:4b:97:67:23:66:0d:da:ab:14:07:4d:6a:42:
         c0:7c:76:a2:3c:9b:86:90:72:d9:32:0b:56:1a:b0:d9:7c:be:
         aa:f6:4e:43:71:0c:89:55:8d:e6:f7:b6:05:6a:81:18:7f:0c:
         95:ea:61:7b:30:fb:c7:ea:e8:4b:3f:4f:09:a4:0c:8d:86:43:
         f1:b8:70:ae:f6:95:73:71:92:ca:f2:fc:9f:50:ca:5b:3d:d9:
         e8:b1:fa:26:6a:6b:46:cb:e3:a8:51:4d:b2:a0:0e:66:90:68:
         d0:a9:d8:50:b0:2b:fd:64:80:1b:c8:0c:fd:07:5f:69:52:c6:
         82:ea:07:27:22:06:02:f6:3c:22:42:35:d4:f0:9c:4c:0e:19:
         3b:b5:88:05:32:42:f4:9f
-----BEGIN CERTIFICATE-----
MIIFIDCCAwigAwIBAgIRAPYrA4LQm8EYGVDeptXJm3AwDQYJKoZIhvcNAQELBQAw
MjELMAkGA1UEBhMCRVMxDzANBgNVBAoMBlRlbGVjbzESMBAGA1UEAwwJQ2xpZW50
IENBMB4XDTIzMDQwMzEzNTYzNVoXDTI0MDQwMjEzNTYzNVowNDELMAkGA1UEBhMC
RVMxDzANBgNVBAoMBlRlbGVjbzEUMBIGA1UEAwwLY2xpZW50dGxzMTMwggEiMA0G
CSqGSIb3DQEBAQUAA4IBDwAwggEKAoIBAQDLVc/aclbHwo/+hWi36SbsM+2y2rte
ZGM6EPNZY+3GYn6bNcfGawzY9OqBqSDALmUf8KdnlIodYbD65XGtAjnZ7lak/W2m
SvOIzoQrRy8IsYqsP1MiVeFvIcI8ARq8k3ly2dXrNO5QXkkUhqTIJ2JpGG88Tonf
yXM9PFLAdkdDq5J4YcDSSmF4hOZQckP59H7NZ1Ba0013I2GAS8LUcSfQ/oU7uO6n
5TaGG6PRU0HMdgO3atCTffPbAtPq/rjBmIZjU7Ixr+vI9QZ45yir08JeWUoUyEco
PRlvioQb0qeFf32FyH73uPD5GrpcmINX6zOi21rYCmfICJNK3RBBIlq9AgMBAAGj
ggEtMIIBKTB4BggrBgEFBQcBAQRsMGowNQYIKwYBBQUHMAKGKWh0dHA6Ly9jbGll
bnQtY2EuVGVsZWNvLmNvbS9jbGllbnQtY2EuY3J0MDEGCCsGAQUFBzABhiVodHRw
Oi8vb2NzcC5jbGllbnQtY2EuVGVsZWNvLmNvbTo5MDgyMB8GA1UdIwQYMBaAFKge
sAj6eBZYB2ZvmAuOAAbRfQcNMAwGA1UdEwEB/wQCMAAwOgYDVR0fBDMwMTAvoC2g
K4YpaHR0cDovL2NsaWVudC1jYS5UZWxlY28uY29tL2NsaWVudC1jYS5jcmwwEwYD
VR0lBAwwCgYIKwYBBQUHAwIwDgYDVR0PAQH/BAQDAgeAMB0GA1UdDgQWBBRXNTys
5r7TfzBYNSgzLzy2xGUJ2jANBgkqhkiG9w0BAQsFAAOCAgEAUAetfL65i3QTRYe2
DRsD4fodlwWwPYDADC6F7J6Nhe6LU9n2BeZtDNHVuc1HHXgiYz6LzFAC7LVGevC7
CES4BuGfgeEvaD7cOmDUxhSn1/HD6wszv31gjn6GMTji4ZUsoEGXDizMk39QdEHN
upRBbF5mcy9GeO1rb4sdxO97kGt5CGGuq4Mqxyj5OQ58OifN4vFUe0V1uf4yT3jM
zz8NvpDjpQ01We81nm1MlbfnyWGjW/tZzfN8C3Zj/EG19JtfYpLhpRZhgXuzFJGu
mfbQVyT7DHS/cZ9YoAFy2yLXFtihhjEKuhKWk2VM/rOkZSebnM43SjAV3jOjXry9
ga4EXxE7n5Vn8ioAmY9fzypmtHKsl+sSt9GveMrBGF4SU9b13pOHkSYJ+Pl0AUPd
4xvV779AJLDexpSvMG3mi9wfcoRGzERAQsEi3KkAry1SDh0JP3EOF0M/yJAsIOnV
e0AEOexMgbLbqKhqPC5qzptLl2cjZg3aqxQHTWpCwHx2ojybhpBy2TILVhqw2Xy+
qvZOQ3EMiVWN5ve2BWqBGH8MlephezD7x+roSz9PCaQMjYZD8bhwrvaVc3GSyvL8
n1DKWz3Z6LH6JmprRsvjqFFNsqAOZpBo0KnYULAr/WSAG8gM/QdfaVLGguoHJyIG
AvY8IkI11PCcTA4ZO7WIBTJC9J8=
-----END CERTIFICATE-----
