Certificate:
    Data:
        Version: 3 (0x2)
        Serial Number:
            f6:2b:03:82:d0:9b:c1:18:19:50:de:a6:d5:c9:9b:6f
        Signature Algorithm: sha256WithRSAEncryption
        Issuer: C=ES, O=Teleco, CN=Client CA
        Validity
            Not Before: Apr  2 22:05:38 2023 GMT
            Not After : Apr  1 22:05:38 2024 GMT
        Subject: C=ES, O=Teleco, CN=clienttls13
        Subject Public Key Info:
            Public Key Algorithm: rsaEncryption
                RSA Public-Key: (2048 bit)
                Modulus:
                    00:cb:55:cf:da:72:56:c7:c2:8f:fe:85:68:b7:e9:
                    26:ec:33:ed:b2:da:bb:5e:64:63:3a:10:f3:59:63:
                    ed:c6:62:7e:9b:35:c7:c6:6b:0c:d8:f4:ea:81:a9:
                    20:c0:2e:65:1f:f0:a7:67:94:8a:1d:61:b0:fa:e5:
                    71:ad:02:39:d9:ee:56:a4:fd:6d:a6:4a:f3:88:ce:
                    84:2b:47:2f:08:b1:8a:ac:3f:53:22:55:e1:6f:21:
                    c2:3c:01:1a:bc:93:79:72:d9:d5:eb:34:ee:50:5e:
                    49:14:86:a4:c8:27:62:69:18:6f:3c:4e:89:df:c9:
                    73:3d:3c:52:c0:76:47:43:ab:92:78:61:c0:d2:4a:
                    61:78:84:e6:50:72:43:f9:f4:7e:cd:67:50:5a:d3:
                    4d:77:23:61:80:4b:c2:d4:71:27:d0:fe:85:3b:b8:
                    ee:a7:e5:36:86:1b:a3:d1:53:41:cc:76:03:b7:6a:
                    d0:93:7d:f3:db:02:d3:ea:fe:b8:c1:98:86:63:53:
                    b2:31:af:eb:c8:f5:06:78:e7:28:ab:d3:c2:5e:59:
                    4a:14:c8:47:28:3d:19:6f:8a:84:1b:d2:a7:85:7f:
                    7d:85:c8:7e:f7:b8:f0:f9:1a:ba:5c:98:83:57:eb:
                    33:a2:db:5a:d8:0a:67:c8:08:93:4a:dd:10:41:22:
                    5a:bd
                Exponent: 65537 (0x10001)
        X509v3 extensions:
            Authority Information Access: 
                OCSP - URI:http://localhost:9080/

            X509v3 Authority Key Identifier: 
                keyid:21:1A:9A:58:C6:3A:D4:5C:48:0C:43:21:96:DD:5B:D4:10:31:8F:00

            X509v3 Basic Constraints: critical
                CA:FALSE
            X509v3 CRL Distribution Points: 

                Full Name:
                  URI:http://client-ca.Teleco.com/client-ca.crl

            X509v3 Extended Key Usage: 
                TLS Web Client Authentication
            X509v3 Key Usage: critical
                Digital Signature
            X509v3 Subject Key Identifier: 
                57:35:3C:AC:E6:BE:D3:7F:30:58:35:28:33:2F:3C:B6:C4:65:09:DA
    Signature Algorithm: sha256WithRSAEncryption
         42:25:5b:52:69:b9:f7:a9:72:fd:cd:d4:73:03:2d:b3:7b:2b:
         2c:b5:e3:00:65:f5:95:7e:5c:b5:fa:5e:14:9f:60:30:e6:0a:
         c2:fd:29:85:32:7b:fb:14:21:88:c8:09:89:f1:ac:4f:39:f9:
         64:85:e1:60:e8:68:4e:bd:65:35:7b:91:fb:9b:f1:2b:ef:06:
         16:7e:66:14:34:71:f4:ad:47:05:0c:4d:5b:92:88:f8:5a:8e:
         c4:ad:8e:03:d8:1a:aa:be:d8:b4:e3:9a:f5:d8:07:ea:72:7e:
         b7:d7:6a:3e:11:16:71:4a:ec:a1:84:ee:4c:30:1b:a4:61:d2:
         4d:a1:2f:53:71:00:fe:80:f5:f6:f6:2c:50:f6:3e:25:a7:f0:
         a2:1e:77:2d:97:04:c3:bc:c5:e5:c0:1c:64:6a:68:2e:56:8d:
         d6:ed:ba:27:21:00:86:7d:29:cf:b0:a0:9e:da:05:8e:12:9d:
         b2:36:a9:12:e3:fc:75:69:1e:86:65:46:ee:2a:c1:56:6e:b1:
         00:d2:62:07:d5:1c:10:0d:bb:a3:01:68:98:15:ad:25:8a:be:
         ca:3d:11:4c:c2:a4:ca:5e:ac:7c:68:06:cc:2f:ba:ec:9d:ae:
         1a:94:d9:e3:23:20:3e:07:ea:60:03:31:15:3b:f1:45:12:75:
         47:24:5a:3d:d7:0e:73:c1:2f:ac:62:90:6d:5c:87:38:9f:8b:
         76:b3:ce:00:54:b0:ce:98:ae:bd:8a:f2:9d:4c:1e:74:14:37:
         41:6c:65:68:d8:46:fd:26:ae:98:4c:81:9c:0e:91:e1:2e:29:
         09:ab:7f:f0:ea:c0:3c:d8:7a:fa:95:64:34:de:a7:f6:4b:b9:
         0b:a1:3e:3a:60:dc:73:69:19:f6:f8:09:a5:5f:49:43:0b:1e:
         90:9f:7d:d7:25:56:86:63:d3:6a:eb:1e:84:6a:08:11:ca:7f:
         8a:91:ba:8a:13:59:23:4a:5c:dd:43:12:c0:27:85:5e:6d:7e:
         cb:af:4b:03:5b:eb:40:87:5a:0d:fa:ba:77:4c:19:41:53:c9:
         3f:a5:09:66:03:f6:38:c3:ca:76:0c:98:0d:ea:4b:4a:5f:4b:
         e0:38:91:29:47:49:98:99:1a:18:4e:a6:ad:fb:ce:14:4d:a2:
         65:d1:96:67:c0:be:6f:42:8c:db:05:19:77:0b:62:18:89:96:
         dd:c6:a5:66:9f:fc:5f:1a:bb:cd:b8:00:f0:23:44:a6:31:32:
         72:95:83:92:e4:08:a5:a8:a5:ff:78:42:cb:da:33:06:0b:5b:
         50:ba:cf:e3:d2:e2:e4:fc:ae:96:aa:42:36:ea:fe:7f:c8:41:
         69:c6:ff:20:74:e9:28:50
-----BEGIN CERTIFICATE-----
MIIE2DCCAsCgAwIBAgIRAPYrA4LQm8EYGVDeptXJm28wDQYJKoZIhvcNAQELBQAw
MjELMAkGA1UEBhMCRVMxDzANBgNVBAoMBlRlbGVjbzESMBAGA1UEAwwJQ2xpZW50
IENBMB4XDTIzMDQwMjIyMDUzOFoXDTI0MDQwMTIyMDUzOFowNDELMAkGA1UEBhMC
RVMxDzANBgNVBAoMBlRlbGVjbzEUMBIGA1UEAwwLY2xpZW50dGxzMTMwggEiMA0G
CSqGSIb3DQEBAQUAA4IBDwAwggEKAoIBAQDLVc/aclbHwo/+hWi36SbsM+2y2rte
ZGM6EPNZY+3GYn6bNcfGawzY9OqBqSDALmUf8KdnlIodYbD65XGtAjnZ7lak/W2m
SvOIzoQrRy8IsYqsP1MiVeFvIcI8ARq8k3ly2dXrNO5QXkkUhqTIJ2JpGG88Tonf
yXM9PFLAdkdDq5J4YcDSSmF4hOZQckP59H7NZ1Ba0013I2GAS8LUcSfQ/oU7uO6n
5TaGG6PRU0HMdgO3atCTffPbAtPq/rjBmIZjU7Ixr+vI9QZ45yir08JeWUoUyEco
PRlvioQb0qeFf32FyH73uPD5GrpcmINX6zOi21rYCmfICJNK3RBBIlq9AgMBAAGj
geYwgeMwMgYIKwYBBQUHAQEEJjAkMCIGCCsGAQUFBzABhhZodHRwOi8vbG9jYWxo
b3N0OjkwODAvMB8GA1UdIwQYMBaAFCEamljGOtRcSAxDIZbdW9QQMY8AMAwGA1Ud
EwEB/wQCMAAwOgYDVR0fBDMwMTAvoC2gK4YpaHR0cDovL2NsaWVudC1jYS5UZWxl
Y28uY29tL2NsaWVudC1jYS5jcmwwEwYDVR0lBAwwCgYIKwYBBQUHAwIwDgYDVR0P
AQH/BAQDAgeAMB0GA1UdDgQWBBRXNTys5r7TfzBYNSgzLzy2xGUJ2jANBgkqhkiG
9w0BAQsFAAOCAgEAQiVbUmm596ly/c3UcwMts3srLLXjAGX1lX5ctfpeFJ9gMOYK
wv0phTJ7+xQhiMgJifGsTzn5ZIXhYOhoTr1lNXuR+5vxK+8GFn5mFDRx9K1HBQxN
W5KI+FqOxK2OA9gaqr7YtOOa9dgH6nJ+t9dqPhEWcUrsoYTuTDAbpGHSTaEvU3EA
/oD19vYsUPY+Jafwoh53LZcEw7zF5cAcZGpoLlaN1u26JyEAhn0pz7CgntoFjhKd
sjapEuP8dWkehmVG7irBVm6xANJiB9UcEA27owFomBWtJYq+yj0RTMKkyl6sfGgG
zC+67J2uGpTZ4yMgPgfqYAMxFTvxRRJ1RyRaPdcOc8EvrGKQbVyHOJ+LdrPOAFSw
zpiuvYrynUwedBQ3QWxlaNhG/SaumEyBnA6R4S4pCat/8OrAPNh6+pVkNN6n9ku5
C6E+OmDcc2kZ9vgJpV9JQwsekJ991yVWhmPTausehGoIEcp/ipG6ihNZI0pc3UMS
wCeFXm1+y69LA1vrQIdaDfq6d0wZQVPJP6UJZgP2OMPKdgyYDepLSl9L4DiRKUdJ
mJkaGE6mrfvOFE2iZdGWZ8C+b0KM2wUZdwtiGImW3calZp/8Xxq7zbgA8CNEpjEy
cpWDkuQIpail/3hCy9ozBgtbULrP49Li5PyulqpCNur+f8hBacb/IHTpKFA=
-----END CERTIFICATE-----
