Certificate:
    Data:
        Version: 3 (0x2)
        Serial Number:
            f6:2b:03:82:d0:9b:c1:18:19:50:de:a6:d5:c9:9b:71
        Signature Algorithm: sha256WithRSAEncryption
        Issuer: C=ES, O=Teleco, CN=Client CA
        Validity
            Not Before: Apr  3 13:57:14 2023 GMT
            Not After : Apr  2 13:57:14 2024 GMT
        Subject: C=ES, O=Teleco, CN=clienttls13
        Subject Public Key Info:
            Public Key Algorithm: rsaEncryption
                RSA Public-Key: (1512 bit)
                Modulus:
                    00:bd:45:e1:34:e1:82:3a:29:4b:73:8c:a3:1b:aa:
                    66:01:db:b5:84:a2:2d:37:49:15:6c:23:ad:5f:44:
                    bd:62:be:35:04:09:54:8a:f0:50:01:b1:30:04:38:
                    fc:ae:cd:e7:bf:93:78:88:70:0e:49:06:c5:36:de:
                    f7:7e:0d:1e:bd:12:d8:a9:4e:19:95:4f:6d:41:be:
                    6d:82:a4:53:d3:ca:95:34:81:40:dd:1c:11:1d:09:
                    d7:e6:25:87:a7:b9:1e:3c:7d:ca:8d:1a:e4:c7:e5:
                    80:34:a9:43:3f:79:82:c9:2b:6c:37:50:a1:fd:00:
                    52:58:ff:de:d5:2c:5c:c7:0a:59:2d:58:57:4f:73:
                    17:53:59:7b:9c:b8:1c:82:41:a4:55:fc:99:a4:02:
                    b7:fe:f3:22:7d:9b:38:81:df:09:b0:42:20:c7:0d:
                    4e:21:b3:bf:91:61:3f:e6:84:42:f0:56:e6:bf:1b:
                    c3:3f:f9:78:8c:48:3f:d5:bf:d1
                Exponent: 65537 (0x10001)
        X509v3 extensions:
            Authority Information Access: 
                CA Issuers - URI:http://client-ca.Teleco.com/client-ca.crt
                OCSP - URI:http://ocsp.client-ca.Teleco.com:9082

            X509v3 Authority Key Identifier: 
                keyid:A8:1E:B0:08:FA:78:16:58:07:66:6F:98:0B:8E:00:06:D1:7D:07:0D

            X509v3 Basic Constraints: critical
                CA:FALSE
            X509v3 CRL Distribution Points: 

                Full Name:
                  URI:http://client-ca.Teleco.com/client-ca.crl

            X509v3 Extended Key Usage: 
                TLS Web Client Authentication
            X509v3 Key Usage: critical
                Digital Signature
            X509v3 Subject Key Identifier: 
                80:F8:D6:63:4B:03:9B:3B:53:0A:F9:1C:0E:8A:D5:D8:4F:27:72:AB
    Signature Algorithm: sha256WithRSAEncryption
         02:c2:67:af:c4:08:d2:36:3e:ee:6d:8b:45:ac:61:9d:fc:8a:
         f3:08:c3:34:0f:16:0f:7f:82:81:df:3c:21:75:07:1c:3e:c3:
         81:8b:ee:6d:1a:72:a5:b9:f9:b3:46:b1:a9:43:51:14:7f:8f:
         f7:3d:bc:f4:18:c9:e8:bc:96:96:76:4c:ed:9e:3a:c0:dc:df:
         3b:8b:a8:35:88:16:13:19:4e:c0:b1:35:2a:c3:4d:03:f7:e2:
         87:aa:1e:71:94:19:d8:a8:84:e4:8b:d5:f7:fc:15:a6:46:66:
         fe:86:72:47:53:0b:43:88:9d:ad:c3:1e:19:f8:b2:70:79:69:
         eb:67:e9:aa:f3:37:aa:89:e7:f9:e1:cc:fc:2e:30:b9:b7:fb:
         2b:d7:ed:95:7f:4e:08:14:c2:15:fe:47:e5:ce:75:f2:be:0e:
         e3:00:35:87:b3:dc:b7:3f:aa:9c:6f:6b:8d:d2:9b:0d:01:95:
         f1:a5:5f:fb:bb:5f:85:52:ad:09:ac:48:eb:0f:d8:bf:5e:45:
         90:92:fd:08:7f:23:ab:26:c0:20:92:de:85:a0:99:83:ca:79:
         b3:16:10:3c:52:0f:96:0a:91:aa:26:64:87:99:70:18:70:26:
         07:36:ae:ee:fe:04:91:a5:73:4c:62:f7:c5:e7:f1:33:ad:e5:
         25:ab:3e:53:c7:3c:52:c2:31:b4:48:19:b4:98:fa:0b:87:df:
         7a:77:54:bf:38:fc:4f:f0:bf:bf:40:53:77:f0:74:bb:a1:90:
         90:af:d2:c5:f3:db:22:98:93:01:5c:90:a9:c3:d5:77:86:fe:
         a0:1c:b7:44:30:24:62:5c:77:92:e3:92:2d:0d:51:37:f8:58:
         20:25:30:54:51:6e:ae:66:eb:89:29:2d:99:57:7b:f4:3b:98:
         d4:9f:57:65:2b:af:c4:6b:72:ab:c6:97:c9:43:25:5c:43:29:
         96:f1:42:d9:72:1a:57:96:50:6f:d8:79:96:da:d4:f2:26:62:
         4c:0b:7d:c5:b9:00:62:61:cf:d7:ad:29:77:fc:2d:78:49:f5:
         c8:44:07:f9:47:4b:5a:c9:ee:61:1e:7b:62:5b:83:4e:50:2c:
         10:97:2b:ea:89:5c:11:de:f7:2b:db:9a:9b:34:9b:a6:aa:42:
         4c:e6:6f:72:7f:6e:ea:32:5a:ae:a1:35:6b:d5:7d:fc:d6:3d:
         c8:5a:7f:12:c7:f1:11:35:49:51:6e:52:1f:38:92:af:f4:00:
         20:cb:a5:f1:5f:a9:4b:3d:c0:b7:94:06:98:e2:dc:c0:fe:c9:
         06:66:ee:76:9f:ca:8b:55:fe:4a:2a:24:e4:db:7d:1c:fc:17:
         3a:a6:8a:60:97:0e:25:cc
-----BEGIN CERTIFICATE-----
MIIE2TCCAsGgAwIBAgIRAPYrA4LQm8EYGVDeptXJm3EwDQYJKoZIhvcNAQELBQAw
MjELMAkGA1UEBhMCRVMxDzANBgNVBAoMBlRlbGVjbzESMBAGA1UEAwwJQ2xpZW50
IENBMB4XDTIzMDQwMzEzNTcxNFoXDTI0MDQwMjEzNTcxNFowNDELMAkGA1UEBhMC
RVMxDzANBgNVBAoMBlRlbGVjbzEUMBIGA1UEAwwLY2xpZW50dGxzMTMwgdwwDQYJ
KoZIhvcNAQEBBQADgcoAMIHGAoG+AL1F4TThgjopS3OMoxuqZgHbtYSiLTdJFWwj
rV9EvWK+NQQJVIrwUAGxMAQ4/K7N57+TeIhwDkkGxTbe934NHr0S2KlOGZVPbUG+
bYKkU9PKlTSBQN0cER0J1+Ylh6e5Hjx9yo0a5MflgDSpQz95gskrbDdQof0AUlj/
3tUsXMcKWS1YV09zF1NZe5y4HIJBpFX8maQCt/7zIn2bOIHfCbBCIMcNTiGzv5Fh
P+aEQvBW5r8bwz/5eIxIP9W/0QIDAQABo4IBLTCCASkweAYIKwYBBQUHAQEEbDBq
MDUGCCsGAQUFBzAChilodHRwOi8vY2xpZW50LWNhLlRlbGVjby5jb20vY2xpZW50
LWNhLmNydDAxBggrBgEFBQcwAYYlaHR0cDovL29jc3AuY2xpZW50LWNhLlRlbGVj
by5jb206OTA4MjAfBgNVHSMEGDAWgBSoHrAI+ngWWAdmb5gLjgAG0X0HDTAMBgNV
HRMBAf8EAjAAMDoGA1UdHwQzMDEwL6AtoCuGKWh0dHA6Ly9jbGllbnQtY2EuVGVs
ZWNvLmNvbS9jbGllbnQtY2EuY3JsMBMGA1UdJQQMMAoGCCsGAQUFBwMCMA4GA1Ud
DwEB/wQEAwIHgDAdBgNVHQ4EFgQUgPjWY0sDmztTCvkcDorV2E8ncqswDQYJKoZI
hvcNAQELBQADggIBAALCZ6/ECNI2Pu5ti0WsYZ38ivMIwzQPFg9/goHfPCF1Bxw+
w4GL7m0acqW5+bNGsalDURR/j/c9vPQYyei8lpZ2TO2eOsDc3zuLqDWIFhMZTsCx
NSrDTQP34oeqHnGUGdiohOSL1ff8FaZGZv6GckdTC0OIna3DHhn4snB5aetn6arz
N6qJ5/nhzPwuMLm3+yvX7ZV/TggUwhX+R+XOdfK+DuMANYez3Lc/qpxva43Smw0B
lfGlX/u7X4VSrQmsSOsP2L9eRZCS/Qh/I6smwCCS3oWgmYPKebMWEDxSD5YKkaom
ZIeZcBhwJgc2ru7+BJGlc0xi98Xn8TOt5SWrPlPHPFLCMbRIGbSY+guH33p3VL84
/E/wv79AU3fwdLuhkJCv0sXz2yKYkwFckKnD1XeG/qAct0QwJGJcd5Ljki0NUTf4
WCAlMFRRbq5m64kpLZlXe/Q7mNSfV2Urr8RrcqvGl8lDJVxDKZbxQtlyGleWUG/Y
eZba1PImYkwLfcW5AGJhz9etKXf8LXhJ9chEB/lHS1rJ7mEee2Jbg05QLBCXK+qJ
XBHe9yvbmps0m6aqQkzmb3J/buoyWq6hNWvVffzWPchafxLH8RE1SVFuUh84kq/0
ACDLpfFfqUs9wLeUBpji3MD+yQZm7nafyotV/koqJOTbfRz8FzqmimCXDiXM
-----END CERTIFICATE-----
