Certificate:
    Data:
        Version: 3 (0x2)
        Serial Number:
            f6:2b:03:82:d0:9b:c1:18:19:50:de:a6:d5:c9:9b:79
        Signature Algorithm: sha256WithRSAEncryption
        Issuer: C=ES, O=Teleco, CN=Client CA
        Validity
            Not Before: Apr  4 15:06:52 2023 GMT
            Not After : Apr  1 15:06:52 2033 GMT
        Subject: C=ES, O=Teleco, CN=clienttls13
        Subject Public Key Info:
            Public Key Algorithm: rsaEncryption
                RSA Public-Key: (1512 bit)
                Modulus:
                    00:bd:45:e1:34:e1:82:3a:29:4b:73:8c:a3:1b:aa:
                    66:01:db:b5:84:a2:2d:37:49:15:6c:23:ad:5f:44:
                    bd:62:be:35:04:09:54:8a:f0:50:01:b1:30:04:38:
                    fc:ae:cd:e7:bf:93:78:88:70:0e:49:06:c5:36:de:
                    f7:7e:0d:1e:bd:12:d8:a9:4e:19:95:4f:6d:41:be:
                    6d:82:a4:53:d3:ca:95:34:81:40:dd:1c:11:1d:09:
                    d7:e6:25:87:a7:b9:1e:3c:7d:ca:8d:1a:e4:c7:e5:
                    80:34:a9:43:3f:79:82:c9:2b:6c:37:50:a1:fd:00:
                    52:58:ff:de:d5:2c:5c:c7:0a:59:2d:58:57:4f:73:
                    17:53:59:7b:9c:b8:1c:82:41:a4:55:fc:99:a4:02:
                    b7:fe:f3:22:7d:9b:38:81:df:09:b0:42:20:c7:0d:
                    4e:21:b3:bf:91:61:3f:e6:84:42:f0:56:e6:bf:1b:
                    c3:3f:f9:78:8c:48:3f:d5:bf:d1
                Exponent: 65537 (0x10001)
        X509v3 extensions:
            Authority Information Access: 
                CA Issuers - URI:http://client-ca.Teleco.com/client-ca.crt
                OCSP - URI:http://ocsp.client-ca.Teleco.com:9080

            X509v3 Authority Key Identifier: 
                keyid:AF:F9:FE:86:F6:4B:37:FA:61:5A:78:C0:6B:00:62:E8:54:11:C8:23

            X509v3 Basic Constraints: critical
                CA:FALSE
            X509v3 CRL Distribution Points: 

                Full Name:
                  URI:http://client-ca.Teleco.com/client-ca.crl

            X509v3 Extended Key Usage: 
                TLS Web Client Authentication
            X509v3 Key Usage: critical
                Digital Signature
            X509v3 Subject Key Identifier: 
                80:F8:D6:63:4B:03:9B:3B:53:0A:F9:1C:0E:8A:D5:D8:4F:27:72:AB
    Signature Algorithm: sha256WithRSAEncryption
         8f:9c:87:18:e8:d8:6f:75:00:23:43:70:ea:b3:f7:8c:9f:c1:
         75:d1:55:0b:a2:01:e7:41:f6:bd:cd:28:ae:16:fb:06:2b:dc:
         6b:53:84:10:72:62:6f:57:d5:c7:5b:fa:0a:5c:7b:21:71:63:
         7d:d5:62:7f:11:a5:a7:5d:46:3b:e1:cf:86:c4:74:93:06:58:
         af:e0:63:b0:84:95:e8:a4:3d:2f:6c:8c:d9:50:1e:da:66:57:
         5a:47:f7:23:59:7f:88:fb:ee:cf:5b:5d:41:94:32:f8:42:b5:
         ad:c3:c3:a2:bf:d6:a2:83:bd:29:65:11:5c:76:be:d1:3e:1e:
         d6:15:96:be:8a:2e:82:17:67:5c:be:2f:a2:bd:6e:5d:b9:87:
         9b:51:ae:d1:16:12:30:ca:48:c5:d6:dd:74:a0:2f:b6:5a:57:
         c4:51:bf:dc:18:ac:56:e6:03:bc:33:05:e1:34:6b:cc:07:69:
         3e:5a:74:16:c6:81:00:76:72:06:19:f9:c5:8a:dd:56:dd:46:
         48:c9:e5:ea:f6:c2:82:50:5b:73:3d:cb:45:0d:1b:a7:02:23:
         97:4c:4d:a6:f5:24:6e:0b:e9:95:4a:00:f7:bf:db:2f:e1:de:
         cd:7b:59:5a:71:ae:fb:9e:86:c1:82:f3:c2:f8:d5:0c:d6:65:
         56:74:a4:26:f5:38:64:0f:e8:65:51:30:47:11:f4:8c:d1:18:
         80:35:1d:be:ea:90:f9:f4:2c:22:0c:2d:0f:f4:e0:42:d6:2f:
         0b:0b:a6:f6:87:af:52:77:04:25:b7:46:65:f0:41:b6:5a:f0:
         4d:e2:77:b1:92:aa:d8:cf:61:6d:99:6b:b3:27:c3:fc:4d:24:
         54:76:c1:8f:99:c1:d2:a9:f3:84:54:01:6e:3f:51:c4:46:21:
         d8:b7:6c:56:90:41:2c:8d:f7:06:e0:6c:39:ef:bb:2a:23:c7:
         72:ae:6b:71:b2:6e:a3:3e:3d:f6:4d:91:6d:9c:b9:a4:e6:b9:
         78:ff:1a:77:a5:3f:d1:3f:f4:79:43:dd:f7:72:2f:97:51:94:
         73:b6:1f:2c:cc:a6:e0:b0:e9:a6:35:22:d4:b3:80:b1:09:ae:
         dd:ac:ab:f4:c8:c2:76:f5:50:d0:ec:22:ef:f1:33:a9:b3:68:
         25:b5:4d:e5:b9:fe:40:29:9d:0f:83:74:7e:3c:c1:6c:2d:91:
         96:a2:22:fa:47:6c:56:a0:0a:f8:71:5b:39:29:bc:12:22:1e:
         6d:8d:f3:ef:5c:c4:6d:89:ff:06:84:ff:37:c4:b2:91:68:a0:
         7c:c4:47:aa:36:5c:41:61:20:f2:4b:67:02:f1:a5:27:1a:7f:
         84:36:a2:b3:39:a6:10:1e
-----BEGIN CERTIFICATE-----
MIIE2TCCAsGgAwIBAgIRAPYrA4LQm8EYGVDeptXJm3kwDQYJKoZIhvcNAQELBQAw
MjELMAkGA1UEBhMCRVMxDzANBgNVBAoMBlRlbGVjbzESMBAGA1UEAwwJQ2xpZW50
IENBMB4XDTIzMDQwNDE1MDY1MloXDTMzMDQwMTE1MDY1MlowNDELMAkGA1UEBhMC
RVMxDzANBgNVBAoMBlRlbGVjbzEUMBIGA1UEAwwLY2xpZW50dGxzMTMwgdwwDQYJ
KoZIhvcNAQEBBQADgcoAMIHGAoG+AL1F4TThgjopS3OMoxuqZgHbtYSiLTdJFWwj
rV9EvWK+NQQJVIrwUAGxMAQ4/K7N57+TeIhwDkkGxTbe934NHr0S2KlOGZVPbUG+
bYKkU9PKlTSBQN0cER0J1+Ylh6e5Hjx9yo0a5MflgDSpQz95gskrbDdQof0AUlj/
3tUsXMcKWS1YV09zF1NZe5y4HIJBpFX8maQCt/7zIn2bOIHfCbBCIMcNTiGzv5Fh
P+aEQvBW5r8bwz/5eIxIP9W/0QIDAQABo4IBLTCCASkweAYIKwYBBQUHAQEEbDBq
MDUGCCsGAQUFBzAChilodHRwOi8vY2xpZW50LWNhLlRlbGVjby5jb20vY2xpZW50
LWNhLmNydDAxBggrBgEFBQcwAYYlaHR0cDovL29jc3AuY2xpZW50LWNhLlRlbGVj
by5jb206OTA4MDAfBgNVHSMEGDAWgBSv+f6G9ks3+mFaeMBrAGLoVBHIIzAMBgNV
HRMBAf8EAjAAMDoGA1UdHwQzMDEwL6AtoCuGKWh0dHA6Ly9jbGllbnQtY2EuVGVs
ZWNvLmNvbS9jbGllbnQtY2EuY3JsMBMGA1UdJQQMMAoGCCsGAQUFBwMCMA4GA1Ud
DwEB/wQEAwIHgDAdBgNVHQ4EFgQUgPjWY0sDmztTCvkcDorV2E8ncqswDQYJKoZI
hvcNAQELBQADggIBAI+chxjo2G91ACNDcOqz94yfwXXRVQuiAedB9r3NKK4W+wYr
3GtThBByYm9X1cdb+gpceyFxY33VYn8RpaddRjvhz4bEdJMGWK/gY7CEleikPS9s
jNlQHtpmV1pH9yNZf4j77s9bXUGUMvhCta3Dw6K/1qKDvSllEVx2vtE+HtYVlr6K
LoIXZ1y+L6K9bl25h5tRrtEWEjDKSMXW3XSgL7ZaV8RRv9wYrFbmA7wzBeE0a8wH
aT5adBbGgQB2cgYZ+cWK3VbdRkjJ5er2woJQW3M9y0UNG6cCI5dMTab1JG4L6ZVK
APe/2y/h3s17WVpxrvuehsGC88L41QzWZVZ0pCb1OGQP6GVRMEcR9IzRGIA1Hb7q
kPn0LCIMLQ/04ELWLwsLpvaHr1J3BCW3RmXwQbZa8E3id7GSqtjPYW2Za7Mnw/xN
JFR2wY+ZwdKp84RUAW4/UcRGIdi3bFaQQSyN9wbgbDnvuyojx3Kua3GybqM+PfZN
kW2cuaTmuXj/GnelP9E/9HlD3fdyL5dRlHO2HyzMpuCw6aY1ItSzgLEJrt2sq/TI
wnb1UNDsIu/xM6mzaCW1TeW5/kApnQ+DdH48wWwtkZaiIvpHbFagCvhxWzkpvBIi
Hm2N8+9cxG2J/waE/zfEspFooHzER6o2XEFhIPJLZwLxpScaf4Q2orM5phAe
-----END CERTIFICATE-----
