Certificate:
    Data:
        Version: 3 (0x2)
        Serial Number:
            f6:2b:03:82:d0:9b:c1:18:19:50:de:a6:d5:c9:9b:6e
        Signature Algorithm: sha256WithRSAEncryption
        Issuer: C=ES, O=Teleco, CN=Client CA
        Validity
            Not Before: Mar 26 14:58:03 2023 GMT
            Not After : Mar 25 14:58:03 2024 GMT
        Subject: C=ES, O=Teleco, CN=clienttls13
        Subject Public Key Info:
            Public Key Algorithm: rsaEncryption
                RSA Public-Key: (2048 bit)
                Modulus:
                    00:cb:55:cf:da:72:56:c7:c2:8f:fe:85:68:b7:e9:
                    26:ec:33:ed:b2:da:bb:5e:64:63:3a:10:f3:59:63:
                    ed:c6:62:7e:9b:35:c7:c6:6b:0c:d8:f4:ea:81:a9:
                    20:c0:2e:65:1f:f0:a7:67:94:8a:1d:61:b0:fa:e5:
                    71:ad:02:39:d9:ee:56:a4:fd:6d:a6:4a:f3:88:ce:
                    84:2b:47:2f:08:b1:8a:ac:3f:53:22:55:e1:6f:21:
                    c2:3c:01:1a:bc:93:79:72:d9:d5:eb:34:ee:50:5e:
                    49:14:86:a4:c8:27:62:69:18:6f:3c:4e:89:df:c9:
                    73:3d:3c:52:c0:76:47:43:ab:92:78:61:c0:d2:4a:
                    61:78:84:e6:50:72:43:f9:f4:7e:cd:67:50:5a:d3:
                    4d:77:23:61:80:4b:c2:d4:71:27:d0:fe:85:3b:b8:
                    ee:a7:e5:36:86:1b:a3:d1:53:41:cc:76:03:b7:6a:
                    d0:93:7d:f3:db:02:d3:ea:fe:b8:c1:98:86:63:53:
                    b2:31:af:eb:c8:f5:06:78:e7:28:ab:d3:c2:5e:59:
                    4a:14:c8:47:28:3d:19:6f:8a:84:1b:d2:a7:85:7f:
                    7d:85:c8:7e:f7:b8:f0:f9:1a:ba:5c:98:83:57:eb:
                    33:a2:db:5a:d8:0a:67:c8:08:93:4a:dd:10:41:22:
                    5a:bd
                Exponent: 65537 (0x10001)
        X509v3 extensions:
            Authority Information Access: 
                CA Issuers - URI:http://client-ca.Teleco.com/client-ca.crt
                OCSP - URI:http://ocsp.client-ca.Teleco.com:9082

            X509v3 Authority Key Identifier: 
                keyid:57:BD:7F:54:FA:7A:0F:B7:47:90:3B:66:09:82:62:B5:B6:F7:67:7A

            X509v3 Basic Constraints: critical
                CA:FALSE
            X509v3 CRL Distribution Points: 

                Full Name:
                  URI:http://client-ca.Teleco.com/client-ca.crl

            X509v3 Extended Key Usage: 
                TLS Web Client Authentication
            X509v3 Key Usage: critical
                Digital Signature
            X509v3 Subject Key Identifier: 
                57:35:3C:AC:E6:BE:D3:7F:30:58:35:28:33:2F:3C:B6:C4:65:09:DA
    Signature Algorithm: sha256WithRSAEncryption
         b2:29:80:a0:e4:86:9a:6a:20:7d:5c:80:44:05:dd:52:f4:fd:
         05:a7:9f:fa:45:69:c9:9f:9d:60:c1:bc:b7:2b:f6:12:35:d9:
         84:d4:ad:e2:97:dc:4f:69:af:c9:2a:a4:b6:4f:af:51:d5:fa:
         06:29:6c:48:5e:ab:83:63:ea:9a:d6:75:fd:8a:84:41:53:b6:
         ed:29:c5:1a:bc:12:5a:71:0c:b0:3d:dd:4a:8c:71:97:8d:66:
         cb:52:a5:16:32:17:f5:21:8b:20:da:94:d3:a9:20:ae:95:8a:
         f7:04:28:60:e1:1c:52:fc:03:32:91:cf:dc:1f:13:7a:9d:89:
         30:d5:36:15:22:da:34:77:b1:6d:0f:05:78:fd:ff:ba:0c:af:
         16:25:c6:21:93:2e:a9:68:02:4e:24:5e:7e:3a:76:bc:99:79:
         64:df:b1:3c:9d:34:c4:72:53:7d:b8:5e:45:7c:a6:d3:ee:37:
         ab:43:44:48:7f:cc:be:45:dc:66:ab:7c:3d:75:50:af:9c:89:
         68:27:a6:80:6a:48:bf:32:ca:29:0b:bb:07:07:48:37:db:d4:
         de:c5:54:b0:18:06:3a:77:45:6a:b0:b9:f8:7f:73:d9:3e:e7:
         89:21:fa:a8:91:77:26:ff:09:f1:ab:a3:d9:19:f7:e1:96:33:
         26:56:38:ba:13:75:a8:a6:5f:7b:d5:05:c3:08:a3:8a:e9:ac:
         8b:b2:f5:c6:49:01:0e:f3:07:80:4b:58:0e:20:ad:af:a5:96:
         ad:67:46:df:26:b6:95:1d:0e:97:12:40:cb:3a:e9:5e:5c:18:
         b3:07:89:0d:f0:49:9d:53:bb:58:7e:6e:ff:04:4b:9d:1b:29:
         d0:a2:5e:16:a2:6f:38:38:24:a2:db:13:57:ca:0e:d1:ed:9f:
         e0:e1:2e:f0:1e:b2:5e:f0:f4:75:51:f4:de:ae:3d:da:7c:88:
         d0:a5:b5:fd:38:a7:03:ae:1d:98:b8:82:98:79:f7:aa:9d:45:
         41:b2:59:e8:9f:80:af:db:78:7c:30:e6:5e:13:5a:7b:c5:7f:
         17:33:bb:f7:b6:02:c7:9a:7d:db:c0:75:ec:73:22:67:07:c7:
         10:b8:ec:51:22:38:e2:d8:c3:09:10:89:38:2d:86:85:20:86:
         ff:33:43:5a:9e:2b:9e:47:96:63:73:64:67:2a:fa:ac:5d:06:
         b4:5a:9a:c0:82:c9:fc:57:0e:df:9d:6b:00:a4:6d:d4:0f:7e:
         7a:d6:00:cb:80:73:ef:f8:46:9c:e1:e4:3e:6e:78:79:4e:23:
         f9:32:0c:58:e3:54:0f:ef:0d:e3:1b:a1:17:03:16:db:2a:fa:
         c7:45:6b:22:61:57:c6:c0
-----BEGIN CERTIFICATE-----
MIIFIDCCAwigAwIBAgIRAPYrA4LQm8EYGVDeptXJm24wDQYJKoZIhvcNAQELBQAw
MjELMAkGA1UEBhMCRVMxDzANBgNVBAoMBlRlbGVjbzESMBAGA1UEAwwJQ2xpZW50
IENBMB4XDTIzMDMyNjE0NTgwM1oXDTI0MDMyNTE0NTgwM1owNDELMAkGA1UEBhMC
RVMxDzANBgNVBAoMBlRlbGVjbzEUMBIGA1UEAwwLY2xpZW50dGxzMTMwggEiMA0G
CSqGSIb3DQEBAQUAA4IBDwAwggEKAoIBAQDLVc/aclbHwo/+hWi36SbsM+2y2rte
ZGM6EPNZY+3GYn6bNcfGawzY9OqBqSDALmUf8KdnlIodYbD65XGtAjnZ7lak/W2m
SvOIzoQrRy8IsYqsP1MiVeFvIcI8ARq8k3ly2dXrNO5QXkkUhqTIJ2JpGG88Tonf
yXM9PFLAdkdDq5J4YcDSSmF4hOZQckP59H7NZ1Ba0013I2GAS8LUcSfQ/oU7uO6n
5TaGG6PRU0HMdgO3atCTffPbAtPq/rjBmIZjU7Ixr+vI9QZ45yir08JeWUoUyEco
PRlvioQb0qeFf32FyH73uPD5GrpcmINX6zOi21rYCmfICJNK3RBBIlq9AgMBAAGj
ggEtMIIBKTB4BggrBgEFBQcBAQRsMGowNQYIKwYBBQUHMAKGKWh0dHA6Ly9jbGll
bnQtY2EuVGVsZWNvLmNvbS9jbGllbnQtY2EuY3J0MDEGCCsGAQUFBzABhiVodHRw
Oi8vb2NzcC5jbGllbnQtY2EuVGVsZWNvLmNvbTo5MDgyMB8GA1UdIwQYMBaAFFe9
f1T6eg+3R5A7ZgmCYrW292d6MAwGA1UdEwEB/wQCMAAwOgYDVR0fBDMwMTAvoC2g
K4YpaHR0cDovL2NsaWVudC1jYS5UZWxlY28uY29tL2NsaWVudC1jYS5jcmwwEwYD
VR0lBAwwCgYIKwYBBQUHAwIwDgYDVR0PAQH/BAQDAgeAMB0GA1UdDgQWBBRXNTys
5r7TfzBYNSgzLzy2xGUJ2jANBgkqhkiG9w0BAQsFAAOCAgEAsimAoOSGmmogfVyA
RAXdUvT9Baef+kVpyZ+dYMG8tyv2EjXZhNSt4pfcT2mvySqktk+vUdX6BilsSF6r
g2PqmtZ1/YqEQVO27SnFGrwSWnEMsD3dSoxxl41my1KlFjIX9SGLINqU06kgrpWK
9wQoYOEcUvwDMpHP3B8Tep2JMNU2FSLaNHexbQ8FeP3/ugyvFiXGIZMuqWgCTiRe
fjp2vJl5ZN+xPJ00xHJTfbheRXym0+43q0NESH/MvkXcZqt8PXVQr5yJaCemgGpI
vzLKKQu7BwdIN9vU3sVUsBgGOndFarC5+H9z2T7niSH6qJF3Jv8J8auj2Rn34ZYz
JlY4uhN1qKZfe9UFwwijiumsi7L1xkkBDvMHgEtYDiCtr6WWrWdG3ya2lR0OlxJA
yzrpXlwYsweJDfBJnVO7WH5u/wRLnRsp0KJeFqJvODgkotsTV8oO0e2f4OEu8B6y
XvD0dVH03q492nyI0KW1/TinA64dmLiCmHn3qp1FQbJZ6J+Ar9t4fDDmXhNae8V/
FzO797YCx5p928B17HMiZwfHELjsUSI44tjDCRCJOC2GhSCG/zNDWp4rnkeWY3Nk
Zyr6rF0GtFqawILJ/FcO351rAKRt1A9+etYAy4Bz7/hGnOHkPm54eU4j+TIMWONU
D+8N4xuhFwMW2yr6x0VrImFXxsA=
-----END CERTIFICATE-----
