Certificate:
    Data:
        Version: 3 (0x2)
        Serial Number:
            f6:2b:03:82:d0:9b:c1:18:19:50:de:a6:d5:c9:9b:72
        Signature Algorithm: sha256WithRSAEncryption
        Issuer: C=ES, O=Teleco, CN=Client CA
        Validity
            Not Before: Apr  3 16:14:09 2023 GMT
            Not After : Apr  2 16:14:09 2024 GMT
        Subject: C=ES, O=Teleco, CN=clienttls13
        Subject Public Key Info:
            Public Key Algorithm: rsaEncryption
                RSA Public-Key: (2048 bit)
                Modulus:
                    00:cb:55:cf:da:72:56:c7:c2:8f:fe:85:68:b7:e9:
                    26:ec:33:ed:b2:da:bb:5e:64:63:3a:10:f3:59:63:
                    ed:c6:62:7e:9b:35:c7:c6:6b:0c:d8:f4:ea:81:a9:
                    20:c0:2e:65:1f:f0:a7:67:94:8a:1d:61:b0:fa:e5:
                    71:ad:02:39:d9:ee:56:a4:fd:6d:a6:4a:f3:88:ce:
                    84:2b:47:2f:08:b1:8a:ac:3f:53:22:55:e1:6f:21:
                    c2:3c:01:1a:bc:93:79:72:d9:d5:eb:34:ee:50:5e:
                    49:14:86:a4:c8:27:62:69:18:6f:3c:4e:89:df:c9:
                    73:3d:3c:52:c0:76:47:43:ab:92:78:61:c0:d2:4a:
                    61:78:84:e6:50:72:43:f9:f4:7e:cd:67:50:5a:d3:
                    4d:77:23:61:80:4b:c2:d4:71:27:d0:fe:85:3b:b8:
                    ee:a7:e5:36:86:1b:a3:d1:53:41:cc:76:03:b7:6a:
                    d0:93:7d:f3:db:02:d3:ea:fe:b8:c1:98:86:63:53:
                    b2:31:af:eb:c8:f5:06:78:e7:28:ab:d3:c2:5e:59:
                    4a:14:c8:47:28:3d:19:6f:8a:84:1b:d2:a7:85:7f:
                    7d:85:c8:7e:f7:b8:f0:f9:1a:ba:5c:98:83:57:eb:
                    33:a2:db:5a:d8:0a:67:c8:08:93:4a:dd:10:41:22:
                    5a:bd
                Exponent: 65537 (0x10001)
        X509v3 extensions:
            Authority Information Access: 
                OCSP - URI:http://localhost:9080/

            X509v3 Authority Key Identifier: 
                keyid:61:DD:A0:7D:1E:91:5B:2B:B1:0C:21:30:0A:8C:40:34:C1:D6:B8:42

            X509v3 Basic Constraints: critical
                CA:FALSE
            X509v3 CRL Distribution Points: 

                Full Name:
                  URI:http://client-ca.Teleco.com/client-ca.crl

            X509v3 Extended Key Usage: 
                TLS Web Client Authentication
            X509v3 Key Usage: critical
                Digital Signature
            X509v3 Subject Key Identifier: 
                57:35:3C:AC:E6:BE:D3:7F:30:58:35:28:33:2F:3C:B6:C4:65:09:DA
    Signature Algorithm: sha256WithRSAEncryption
         a5:7b:ec:ea:98:37:a2:a6:93:8a:b1:69:d1:0a:62:bd:eb:a1:
         e2:4f:5f:0b:1a:23:cf:a3:04:d6:cf:6e:b3:c8:87:fa:22:9a:
         84:6d:bd:4a:14:20:57:23:da:e9:21:24:79:bc:ae:7b:96:0e:
         dd:3d:5d:88:9b:b1:dc:64:bb:92:38:ad:55:a0:8b:36:35:eb:
         43:bc:7c:08:f5:b5:2a:ce:fd:4c:0f:5a:8c:2b:4c:a1:60:3b:
         72:82:62:57:7c:35:fb:32:2b:e7:3d:27:6a:f3:08:e2:c8:51:
         4d:4b:03:10:f2:ee:5c:4b:a5:cf:f3:3f:93:45:d4:bc:58:8c:
         0d:1f:ce:f0:73:bb:9e:b2:ef:c9:62:f8:3a:58:5b:ea:c5:27:
         e9:ac:1f:0c:7e:eb:32:1d:6d:97:41:9e:8f:18:78:50:a2:35:
         75:19:5c:9c:a8:7b:c5:4d:fe:47:dc:fd:81:c1:81:00:cb:c2:
         97:dc:57:b2:d6:78:7a:a1:bd:bb:a5:73:b8:58:6b:7b:61:3e:
         b4:ba:05:83:c9:1f:97:dc:87:0e:d9:99:59:48:21:98:2f:8c:
         59:b9:7b:58:c9:bf:d2:2d:dd:a8:56:59:b5:48:57:8f:7e:03:
         28:17:a9:75:ec:37:c4:d4:0d:91:2f:ad:7f:7d:04:b2:36:01:
         3a:06:1b:3b:0f:80:e5:46:6a:3a:92:c7:c5:fa:7b:44:b8:b0:
         2c:ae:3e:7d:5b:ce:df:f3:f5:d7:0a:20:91:0f:e2:5a:a2:43:
         3c:3e:4f:55:ad:24:a3:d2:53:bd:c7:49:fa:c7:f1:54:49:39:
         e1:68:e0:fc:94:39:c1:48:d8:c4:ca:64:a3:66:1d:ae:a9:24:
         67:9b:c0:15:97:24:7b:5f:a9:99:c2:ea:00:b1:dd:57:7c:9d:
         af:c9:42:c8:1c:8b:9f:f4:4e:47:f0:c4:73:76:8c:b6:6a:38:
         74:d7:e4:75:eb:b1:20:3d:05:84:d5:f5:88:81:8a:3f:6d:1d:
         e1:6d:82:29:71:63:02:d1:03:c0:d2:32:2c:3f:82:b7:89:47:
         6d:d4:82:c7:f6:08:b8:99:2f:16:d0:87:05:73:f9:d8:0f:d4:
         93:4c:7e:88:e2:89:d8:77:b4:9d:86:31:65:a3:b7:8b:e0:5a:
         87:0c:49:a4:7c:c8:4d:1c:78:54:35:c8:10:41:07:93:b2:8c:
         d1:56:55:80:1a:36:c4:14:f1:79:ea:b6:b4:76:b4:7c:a9:ab:
         cf:48:cd:84:3c:f1:a5:40:2f:5c:eb:76:50:93:84:f1:b3:01:
         51:15:66:6f:80:06:bf:12:c7:30:5b:f6:42:65:e0:32:75:f3:
         f5:c0:da:d2:45:ae:81:9d
-----BEGIN CERTIFICATE-----
MIIE2DCCAsCgAwIBAgIRAPYrA4LQm8EYGVDeptXJm3IwDQYJKoZIhvcNAQELBQAw
MjELMAkGA1UEBhMCRVMxDzANBgNVBAoMBlRlbGVjbzESMBAGA1UEAwwJQ2xpZW50
IENBMB4XDTIzMDQwMzE2MTQwOVoXDTI0MDQwMjE2MTQwOVowNDELMAkGA1UEBhMC
RVMxDzANBgNVBAoMBlRlbGVjbzEUMBIGA1UEAwwLY2xpZW50dGxzMTMwggEiMA0G
CSqGSIb3DQEBAQUAA4IBDwAwggEKAoIBAQDLVc/aclbHwo/+hWi36SbsM+2y2rte
ZGM6EPNZY+3GYn6bNcfGawzY9OqBqSDALmUf8KdnlIodYbD65XGtAjnZ7lak/W2m
SvOIzoQrRy8IsYqsP1MiVeFvIcI8ARq8k3ly2dXrNO5QXkkUhqTIJ2JpGG88Tonf
yXM9PFLAdkdDq5J4YcDSSmF4hOZQckP59H7NZ1Ba0013I2GAS8LUcSfQ/oU7uO6n
5TaGG6PRU0HMdgO3atCTffPbAtPq/rjBmIZjU7Ixr+vI9QZ45yir08JeWUoUyEco
PRlvioQb0qeFf32FyH73uPD5GrpcmINX6zOi21rYCmfICJNK3RBBIlq9AgMBAAGj
geYwgeMwMgYIKwYBBQUHAQEEJjAkMCIGCCsGAQUFBzABhhZodHRwOi8vbG9jYWxo
b3N0OjkwODAvMB8GA1UdIwQYMBaAFGHdoH0ekVsrsQwhMAqMQDTB1rhCMAwGA1Ud
EwEB/wQCMAAwOgYDVR0fBDMwMTAvoC2gK4YpaHR0cDovL2NsaWVudC1jYS5UZWxl
Y28uY29tL2NsaWVudC1jYS5jcmwwEwYDVR0lBAwwCgYIKwYBBQUHAwIwDgYDVR0P
AQH/BAQDAgeAMB0GA1UdDgQWBBRXNTys5r7TfzBYNSgzLzy2xGUJ2jANBgkqhkiG
9w0BAQsFAAOCAgEApXvs6pg3oqaTirFp0Qpiveuh4k9fCxojz6ME1s9us8iH+iKa
hG29ShQgVyPa6SEkebyue5YO3T1diJux3GS7kjitVaCLNjXrQ7x8CPW1Ks79TA9a
jCtMoWA7coJiV3w1+zIr5z0navMI4shRTUsDEPLuXEulz/M/k0XUvFiMDR/O8HO7
nrLvyWL4Olhb6sUn6awfDH7rMh1tl0Gejxh4UKI1dRlcnKh7xU3+R9z9gcGBAMvC
l9xXstZ4eqG9u6VzuFhre2E+tLoFg8kfl9yHDtmZWUghmC+MWbl7WMm/0i3dqFZZ
tUhXj34DKBepdew3xNQNkS+tf30EsjYBOgYbOw+A5UZqOpLHxfp7RLiwLK4+fVvO
3/P11wogkQ/iWqJDPD5PVa0ko9JTvcdJ+sfxVEk54Wjg/JQ5wUjYxMpko2Ydrqkk
Z5vAFZcke1+pmcLqALHdV3ydr8lCyByLn/ROR/DEc3aMtmo4dNfkdeuxID0FhNX1
iIGKP20d4W2CKXFjAtEDwNIyLD+Ct4lHbdSCx/YIuJkvFtCHBXP52A/Uk0x+iOKJ
2He0nYYxZaO3i+BahwxJpHzITRx4VDXIEEEHk7KM0VZVgBo2xBTxeeq2tHa0fKmr
z0jNhDzxpUAvXOt2UJOE8bMBURVmb4AGvxLHMFv2QmXgMnXz9cDa0kWugZ0=
-----END CERTIFICATE-----
