Certificate:
    Data:
        Version: 3 (0x2)
        Serial Number:
            f6:2b:03:82:d0:9b:c1:18:19:50:de:a6:d5:c9:9b:76
        Signature Algorithm: sha256WithRSAEncryption
        Issuer: C=ES, O=Teleco, CN=Client CA
        Validity
            Not Before: Apr  4 11:01:40 2023 GMT
            Not After : Apr  1 11:01:40 2033 GMT
        Subject: C=ES, O=Teleco, CN=clienttls13
        Subject Public Key Info:
            Public Key Algorithm: rsaEncryption
                RSA Public-Key: (2048 bit)
                Modulus:
                    00:cb:55:cf:da:72:56:c7:c2:8f:fe:85:68:b7:e9:
                    26:ec:33:ed:b2:da:bb:5e:64:63:3a:10:f3:59:63:
                    ed:c6:62:7e:9b:35:c7:c6:6b:0c:d8:f4:ea:81:a9:
                    20:c0:2e:65:1f:f0:a7:67:94:8a:1d:61:b0:fa:e5:
                    71:ad:02:39:d9:ee:56:a4:fd:6d:a6:4a:f3:88:ce:
                    84:2b:47:2f:08:b1:8a:ac:3f:53:22:55:e1:6f:21:
                    c2:3c:01:1a:bc:93:79:72:d9:d5:eb:34:ee:50:5e:
                    49:14:86:a4:c8:27:62:69:18:6f:3c:4e:89:df:c9:
                    73:3d:3c:52:c0:76:47:43:ab:92:78:61:c0:d2:4a:
                    61:78:84:e6:50:72:43:f9:f4:7e:cd:67:50:5a:d3:
                    4d:77:23:61:80:4b:c2:d4:71:27:d0:fe:85:3b:b8:
                    ee:a7:e5:36:86:1b:a3:d1:53:41:cc:76:03:b7:6a:
                    d0:93:7d:f3:db:02:d3:ea:fe:b8:c1:98:86:63:53:
                    b2:31:af:eb:c8:f5:06:78:e7:28:ab:d3:c2:5e:59:
                    4a:14:c8:47:28:3d:19:6f:8a:84:1b:d2:a7:85:7f:
                    7d:85:c8:7e:f7:b8:f0:f9:1a:ba:5c:98:83:57:eb:
                    33:a2:db:5a:d8:0a:67:c8:08:93:4a:dd:10:41:22:
                    5a:bd
                Exponent: 65537 (0x10001)
        X509v3 extensions:
            Authority Information Access: 
                CA Issuers - URI:http://client-ca.Teleco.com/client-ca.crt
                OCSP - URI:http://ocsp.client-ca.Teleco.com:9080

            X509v3 Authority Key Identifier: 
                keyid:74:91:20:66:C9:D8:96:15:36:55:EA:23:52:19:A5:C7:DE:8C:0B:1C

            X509v3 Basic Constraints: critical
                CA:FALSE
            X509v3 CRL Distribution Points: 

                Full Name:
                  URI:http://client-ca.Teleco.com/client-ca.crl

            X509v3 Extended Key Usage: 
                TLS Web Client Authentication
            X509v3 Key Usage: critical
                Digital Signature
            X509v3 Subject Key Identifier: 
                57:35:3C:AC:E6:BE:D3:7F:30:58:35:28:33:2F:3C:B6:C4:65:09:DA
    Signature Algorithm: sha256WithRSAEncryption
         74:6b:2e:d0:c5:c2:7f:fe:28:af:91:5e:9a:d3:10:5e:5e:42:
         f3:b6:eb:63:1b:1a:1e:4a:ed:74:2c:34:90:a5:8c:00:52:0f:
         00:ad:e4:6a:c9:df:32:0c:0d:f1:04:c6:99:5d:42:e6:56:49:
         27:d1:6f:3e:2c:7e:b4:6e:59:cb:e1:e4:f2:5c:7d:9f:bd:bc:
         e1:97:79:ef:20:17:39:d3:37:1b:bb:e3:9b:a4:85:f1:cf:40:
         2b:de:06:02:e7:4c:30:13:54:5a:54:7b:c1:d4:14:7a:6e:15:
         db:e1:17:8c:94:0e:24:54:62:0e:4d:20:6f:8b:4e:b6:b2:c7:
         94:dc:05:f5:51:4e:33:c8:54:a0:f3:6a:f5:c8:cf:87:b5:91:
         9d:d3:d4:9d:4f:8e:e8:7f:2e:68:d3:40:69:04:80:78:8e:68:
         5e:d9:25:1b:e5:28:56:03:89:20:39:e9:57:30:11:d9:6f:ed:
         e7:ac:f3:29:e0:0b:f0:2a:dc:5e:3f:c8:d9:b6:58:1a:2b:00:
         d9:29:02:fc:8b:55:0e:f1:7d:3d:00:09:36:85:95:28:56:c1:
         21:6c:5f:bd:37:00:56:74:87:fd:36:10:be:e8:3e:4f:06:84:
         d8:af:a8:89:85:0d:ab:1a:3f:46:bb:06:8f:ac:ee:fc:4f:bc:
         11:cd:20:c6:29:26:cf:e7:be:17:a1:e3:ac:f9:49:1f:4f:ee:
         1d:f1:65:48:06:b3:5b:2b:88:a8:13:47:ca:84:a4:a8:99:01:
         0c:0f:25:b1:62:3a:96:ee:b9:6d:a1:0a:15:3c:40:f1:60:0f:
         36:5a:6d:33:b4:bb:84:10:0e:cc:6f:dd:ce:d1:ce:76:2a:aa:
         63:e2:99:68:46:ab:bd:7d:b3:a9:61:a9:fc:e9:3d:29:3d:02:
         a2:e3:8e:cf:dd:8c:4d:47:f7:bd:60:05:28:4c:ad:c7:bd:59:
         5e:8b:fc:18:4a:99:ab:82:b5:15:b2:8d:32:6d:61:8b:8c:85:
         af:46:df:2a:48:87:48:0e:3c:ee:b3:98:71:f1:04:cc:ca:4f:
         27:19:6e:0a:13:6f:b1:57:57:b8:54:f0:e5:60:78:ec:68:17:
         89:cd:0f:92:ec:66:45:d5:ca:2e:bd:82:79:fa:2e:3f:be:e8:
         72:d0:83:42:6d:1e:26:2d:3e:20:3f:7f:45:c7:bc:d2:1d:71:
         de:b5:a3:fc:c4:5f:03:20:10:77:44:e9:6e:80:72:54:73:5e:
         22:11:d4:46:a0:96:51:0c:fe:02:d9:ec:9a:ec:cf:81:c5:7c:
         76:4e:f7:22:56:d9:d3:bc:d4:6c:ba:89:6c:c4:5d:c5:74:f8:
         c3:ef:79:60:58:15:07:fc
-----BEGIN CERTIFICATE-----
MIIFIDCCAwigAwIBAgIRAPYrA4LQm8EYGVDeptXJm3YwDQYJKoZIhvcNAQELBQAw
MjELMAkGA1UEBhMCRVMxDzANBgNVBAoMBlRlbGVjbzESMBAGA1UEAwwJQ2xpZW50
IENBMB4XDTIzMDQwNDExMDE0MFoXDTMzMDQwMTExMDE0MFowNDELMAkGA1UEBhMC
RVMxDzANBgNVBAoMBlRlbGVjbzEUMBIGA1UEAwwLY2xpZW50dGxzMTMwggEiMA0G
CSqGSIb3DQEBAQUAA4IBDwAwggEKAoIBAQDLVc/aclbHwo/+hWi36SbsM+2y2rte
ZGM6EPNZY+3GYn6bNcfGawzY9OqBqSDALmUf8KdnlIodYbD65XGtAjnZ7lak/W2m
SvOIzoQrRy8IsYqsP1MiVeFvIcI8ARq8k3ly2dXrNO5QXkkUhqTIJ2JpGG88Tonf
yXM9PFLAdkdDq5J4YcDSSmF4hOZQckP59H7NZ1Ba0013I2GAS8LUcSfQ/oU7uO6n
5TaGG6PRU0HMdgO3atCTffPbAtPq/rjBmIZjU7Ixr+vI9QZ45yir08JeWUoUyEco
PRlvioQb0qeFf32FyH73uPD5GrpcmINX6zOi21rYCmfICJNK3RBBIlq9AgMBAAGj
ggEtMIIBKTB4BggrBgEFBQcBAQRsMGowNQYIKwYBBQUHMAKGKWh0dHA6Ly9jbGll
bnQtY2EuVGVsZWNvLmNvbS9jbGllbnQtY2EuY3J0MDEGCCsGAQUFBzABhiVodHRw
Oi8vb2NzcC5jbGllbnQtY2EuVGVsZWNvLmNvbTo5MDgwMB8GA1UdIwQYMBaAFHSR
IGbJ2JYVNlXqI1IZpcfejAscMAwGA1UdEwEB/wQCMAAwOgYDVR0fBDMwMTAvoC2g
K4YpaHR0cDovL2NsaWVudC1jYS5UZWxlY28uY29tL2NsaWVudC1jYS5jcmwwEwYD
VR0lBAwwCgYIKwYBBQUHAwIwDgYDVR0PAQH/BAQDAgeAMB0GA1UdDgQWBBRXNTys
5r7TfzBYNSgzLzy2xGUJ2jANBgkqhkiG9w0BAQsFAAOCAgEAdGsu0MXCf/4or5Fe
mtMQXl5C87brYxsaHkrtdCw0kKWMAFIPAK3kasnfMgwN8QTGmV1C5lZJJ9FvPix+
tG5Zy+Hk8lx9n7284Zd57yAXOdM3G7vjm6SF8c9AK94GAudMMBNUWlR7wdQUem4V
2+EXjJQOJFRiDk0gb4tOtrLHlNwF9VFOM8hUoPNq9cjPh7WRndPUnU+O6H8uaNNA
aQSAeI5oXtklG+UoVgOJIDnpVzAR2W/t56zzKeAL8CrcXj/I2bZYGisA2SkC/ItV
DvF9PQAJNoWVKFbBIWxfvTcAVnSH/TYQvug+TwaE2K+oiYUNqxo/RrsGj6zu/E+8
Ec0gxikmz+e+F6HjrPlJH0/uHfFlSAazWyuIqBNHyoSkqJkBDA8lsWI6lu65baEK
FTxA8WAPNlptM7S7hBAOzG/dztHOdiqqY+KZaEarvX2zqWGp/Ok9KT0CouOOz92M
TUf3vWAFKEytx71ZXov8GEqZq4K1FbKNMm1hi4yFr0bfKkiHSA487rOYcfEEzMpP
JxluChNvsVdXuFTw5WB47GgXic0PkuxmRdXKLr2CefouP77octCDQm0eJi0+ID9/
Rce80h1x3rWj/MRfAyAQd0TpboByVHNeIhHURqCWUQz+AtnsmuzPgcV8dk73IlbZ
07zUbLqJbMRdxXT4w+95YFgVB/w=
-----END CERTIFICATE-----
