Certificate:
    Data:
        Version: 3 (0x2)
        Serial Number:
            f6:2b:03:82:d0:9b:c1:18:19:50:de:a6:d5:c9:9b:73
        Signature Algorithm: sha256WithRSAEncryption
        Issuer: C=ES, O=Teleco, CN=Client CA
        Validity
            Not Before: Apr  3 16:14:24 2023 GMT
            Not After : Apr  2 16:14:24 2024 GMT
        Subject: C=ES, O=Teleco, CN=clienttls13
        Subject Public Key Info:
            Public Key Algorithm: rsaEncryption
                RSA Public-Key: (1512 bit)
                Modulus:
                    00:bd:45:e1:34:e1:82:3a:29:4b:73:8c:a3:1b:aa:
                    66:01:db:b5:84:a2:2d:37:49:15:6c:23:ad:5f:44:
                    bd:62:be:35:04:09:54:8a:f0:50:01:b1:30:04:38:
                    fc:ae:cd:e7:bf:93:78:88:70:0e:49:06:c5:36:de:
                    f7:7e:0d:1e:bd:12:d8:a9:4e:19:95:4f:6d:41:be:
                    6d:82:a4:53:d3:ca:95:34:81:40:dd:1c:11:1d:09:
                    d7:e6:25:87:a7:b9:1e:3c:7d:ca:8d:1a:e4:c7:e5:
                    80:34:a9:43:3f:79:82:c9:2b:6c:37:50:a1:fd:00:
                    52:58:ff:de:d5:2c:5c:c7:0a:59:2d:58:57:4f:73:
                    17:53:59:7b:9c:b8:1c:82:41:a4:55:fc:99:a4:02:
                    b7:fe:f3:22:7d:9b:38:81:df:09:b0:42:20:c7:0d:
                    4e:21:b3:bf:91:61:3f:e6:84:42:f0:56:e6:bf:1b:
                    c3:3f:f9:78:8c:48:3f:d5:bf:d1
                Exponent: 65537 (0x10001)
        X509v3 extensions:
            Authority Information Access: 
                OCSP - URI:http://localhost:9080/

            X509v3 Authority Key Identifier: 
                keyid:61:DD:A0:7D:1E:91:5B:2B:B1:0C:21:30:0A:8C:40:34:C1:D6:B8:42

            X509v3 Basic Constraints: critical
                CA:FALSE
            X509v3 CRL Distribution Points: 

                Full Name:
                  URI:http://client-ca.Teleco.com/client-ca.crl

            X509v3 Extended Key Usage: 
                TLS Web Client Authentication
            X509v3 Key Usage: critical
                Digital Signature
            X509v3 Subject Key Identifier: 
                80:F8:D6:63:4B:03:9B:3B:53:0A:F9:1C:0E:8A:D5:D8:4F:27:72:AB
    Signature Algorithm: sha256WithRSAEncryption
         a0:4e:58:e3:86:b2:69:ce:68:5d:8b:3f:77:b3:ad:ae:2b:80:
         78:56:2d:87:82:de:20:ab:67:e4:5a:20:1d:19:72:78:9e:8f:
         86:aa:38:28:ca:ac:21:3b:38:8c:21:f6:60:08:de:8c:5b:00:
         a0:10:71:67:8f:05:74:dc:b0:84:0b:4a:e2:50:8a:7c:89:35:
         18:c8:60:bd:0f:8d:e9:92:d2:28:48:7c:24:3b:9c:51:ad:47:
         41:5d:f4:f4:fc:9d:b7:cb:c2:ba:99:29:83:97:c8:f8:d9:7f:
         52:3c:d1:bb:dd:6d:c7:52:a7:75:bb:76:56:89:cc:ca:82:76:
         fe:a2:92:b3:f5:14:f9:d2:4d:31:d8:fa:72:c4:93:cb:81:31:
         79:24:fa:ff:52:87:dd:6d:a4:68:5e:d8:4d:db:fd:11:a1:1f:
         05:8c:13:01:a0:05:e3:51:78:8e:9c:d2:9b:2a:74:f3:13:c4:
         e0:6b:10:8d:ef:d7:d0:d3:63:0e:4e:65:ba:37:b4:79:01:fe:
         7a:52:a3:85:dc:f4:ee:7f:30:58:8d:90:c8:96:18:1e:ce:b9:
         22:c0:bd:38:0e:4d:9d:9d:f8:77:45:c2:1e:d5:9a:32:1c:6b:
         a6:66:d2:e5:d1:e9:d5:9b:8f:ee:e6:ea:89:6e:24:09:c3:07:
         49:c5:aa:d4:9c:25:71:b9:e7:6e:30:60:32:ff:64:97:6a:42:
         41:d6:c8:45:28:24:d3:5b:ab:7f:94:6a:fe:8f:a0:ae:45:2c:
         76:56:23:1d:17:c7:98:09:38:dc:d2:46:9f:4a:a1:8a:65:dc:
         cb:c9:43:07:24:b1:1e:a8:dd:41:64:58:9c:f2:dc:b5:ce:43:
         e0:e2:a4:9e:1b:e1:44:b2:e9:a6:7f:b1:ce:c7:0a:ad:25:4d:
         a6:98:0b:60:1a:06:56:94:1c:bf:83:06:26:72:0f:8b:00:01:
         8e:d7:48:66:5b:85:a2:81:a9:93:44:69:64:d1:ca:49:88:4b:
         56:d8:33:2a:12:ed:9e:e8:7f:1d:da:ed:41:35:9c:05:d0:14:
         12:ba:e6:18:92:2c:e1:42:41:0d:78:67:10:18:48:3f:60:5c:
         e0:66:f2:1d:eb:3c:eb:de:bf:9a:49:36:38:42:7f:86:96:01:
         9b:e4:b6:d1:5d:19:2c:c3:3b:c8:39:66:f1:1c:61:70:c1:18:
         16:c8:81:1d:aa:81:ef:63:7d:01:57:12:da:97:34:78:d6:bd:
         50:f1:fd:b4:dd:8b:71:b9:2b:24:17:c4:67:e9:a9:bc:86:e9:
         75:93:7d:bf:9f:8c:7a:1d:7b:ce:8f:b4:ba:07:8a:f1:8d:83:
         90:89:28:ee:c3:03:e2:b8
-----BEGIN CERTIFICATE-----
MIIEkTCCAnmgAwIBAgIRAPYrA4LQm8EYGVDeptXJm3MwDQYJKoZIhvcNAQELBQAw
MjELMAkGA1UEBhMCRVMxDzANBgNVBAoMBlRlbGVjbzESMBAGA1UEAwwJQ2xpZW50
IENBMB4XDTIzMDQwMzE2MTQyNFoXDTI0MDQwMjE2MTQyNFowNDELMAkGA1UEBhMC
RVMxDzANBgNVBAoMBlRlbGVjbzEUMBIGA1UEAwwLY2xpZW50dGxzMTMwgdwwDQYJ
KoZIhvcNAQEBBQADgcoAMIHGAoG+AL1F4TThgjopS3OMoxuqZgHbtYSiLTdJFWwj
rV9EvWK+NQQJVIrwUAGxMAQ4/K7N57+TeIhwDkkGxTbe934NHr0S2KlOGZVPbUG+
bYKkU9PKlTSBQN0cER0J1+Ylh6e5Hjx9yo0a5MflgDSpQz95gskrbDdQof0AUlj/
3tUsXMcKWS1YV09zF1NZe5y4HIJBpFX8maQCt/7zIn2bOIHfCbBCIMcNTiGzv5Fh
P+aEQvBW5r8bwz/5eIxIP9W/0QIDAQABo4HmMIHjMDIGCCsGAQUFBwEBBCYwJDAi
BggrBgEFBQcwAYYWaHR0cDovL2xvY2FsaG9zdDo5MDgwLzAfBgNVHSMEGDAWgBRh
3aB9HpFbK7EMITAKjEA0wda4QjAMBgNVHRMBAf8EAjAAMDoGA1UdHwQzMDEwL6At
oCuGKWh0dHA6Ly9jbGllbnQtY2EuVGVsZWNvLmNvbS9jbGllbnQtY2EuY3JsMBMG
A1UdJQQMMAoGCCsGAQUFBwMCMA4GA1UdDwEB/wQEAwIHgDAdBgNVHQ4EFgQUgPjW
Y0sDmztTCvkcDorV2E8ncqswDQYJKoZIhvcNAQELBQADggIBAKBOWOOGsmnOaF2L
P3ezra4rgHhWLYeC3iCrZ+RaIB0Zcniej4aqOCjKrCE7OIwh9mAI3oxbAKAQcWeP
BXTcsIQLSuJQinyJNRjIYL0PjemS0ihIfCQ7nFGtR0Fd9PT8nbfLwrqZKYOXyPjZ
f1I80bvdbcdSp3W7dlaJzMqCdv6ikrP1FPnSTTHY+nLEk8uBMXkk+v9Sh91tpGhe
2E3b/RGhHwWMEwGgBeNReI6c0psqdPMTxOBrEI3v19DTYw5OZbo3tHkB/npSo4Xc
9O5/MFiNkMiWGB7OuSLAvTgOTZ2d+HdFwh7VmjIca6Zm0uXR6dWbj+7m6oluJAnD
B0nFqtScJXG5524wYDL/ZJdqQkHWyEUoJNNbq3+Uav6PoK5FLHZWIx0Xx5gJONzS
Rp9KoYpl3MvJQwcksR6o3UFkWJzy3LXOQ+DipJ4b4USy6aZ/sc7HCq0lTaaYC2Aa
BlaUHL+DBiZyD4sAAY7XSGZbhaKBqZNEaWTRykmIS1bYMyoS7Z7ofx3a7UE1nAXQ
FBK65hiSLOFCQQ14ZxAYSD9gXOBm8h3rPOvev5pJNjhCf4aWAZvkttFdGSzDO8g5
ZvEcYXDBGBbIgR2qge9jfQFXEtqXNHjWvVDx/bTdi3G5KyQXxGfpqbyG6XWTfb+f
jHode86PtLoHivGNg5CJKO7DA+K4
-----END CERTIFICATE-----
