Certificate:
    Data:
        Version: 3 (0x2)
        Serial Number:
            f6:2b:03:82:d0:9b:c1:18:19:50:de:a6:d5:c9:9b:81
        Signature Algorithm: sha256WithRSAEncryption
        Issuer: C=ES, O=Teleco, CN=Client CA
        Validity
            Not Before: Apr  5 22:12:31 2023 GMT
            Not After : Apr  2 22:12:31 2033 GMT
        Subject: C=ES, O=Teleco, CN=clienttls13
        Subject Public Key Info:
            Public Key Algorithm: rsaEncryption
                RSA Public-Key: (2048 bit)
                Modulus:
                    00:cb:55:cf:da:72:56:c7:c2:8f:fe:85:68:b7:e9:
                    26:ec:33:ed:b2:da:bb:5e:64:63:3a:10:f3:59:63:
                    ed:c6:62:7e:9b:35:c7:c6:6b:0c:d8:f4:ea:81:a9:
                    20:c0:2e:65:1f:f0:a7:67:94:8a:1d:61:b0:fa:e5:
                    71:ad:02:39:d9:ee:56:a4:fd:6d:a6:4a:f3:88:ce:
                    84:2b:47:2f:08:b1:8a:ac:3f:53:22:55:e1:6f:21:
                    c2:3c:01:1a:bc:93:79:72:d9:d5:eb:34:ee:50:5e:
                    49:14:86:a4:c8:27:62:69:18:6f:3c:4e:89:df:c9:
                    73:3d:3c:52:c0:76:47:43:ab:92:78:61:c0:d2:4a:
                    61:78:84:e6:50:72:43:f9:f4:7e:cd:67:50:5a:d3:
                    4d:77:23:61:80:4b:c2:d4:71:27:d0:fe:85:3b:b8:
                    ee:a7:e5:36:86:1b:a3:d1:53:41:cc:76:03:b7:6a:
                    d0:93:7d:f3:db:02:d3:ea:fe:b8:c1:98:86:63:53:
                    b2:31:af:eb:c8:f5:06:78:e7:28:ab:d3:c2:5e:59:
                    4a:14:c8:47:28:3d:19:6f:8a:84:1b:d2:a7:85:7f:
                    7d:85:c8:7e:f7:b8:f0:f9:1a:ba:5c:98:83:57:eb:
                    33:a2:db:5a:d8:0a:67:c8:08:93:4a:dd:10:41:22:
                    5a:bd
                Exponent: 65537 (0x10001)
        X509v3 extensions:
            Authority Information Access: 
                CA Issuers - URI:http://client-ca.Teleco.com/client-ca.crt
                OCSP - URI:http://ocsp.client-ca.Teleco.com:9080

            X509v3 Authority Key Identifier: 
                keyid:F2:6C:06:3E:0B:82:A2:58:20:F4:65:DE:2C:FD:C3:E5:E2:13:A1:58

            X509v3 Basic Constraints: critical
                CA:FALSE
            X509v3 CRL Distribution Points: 

                Full Name:
                  URI:http://client-ca.Teleco.com/client-ca.crl

            X509v3 Extended Key Usage: 
                TLS Web Client Authentication
            X509v3 Key Usage: critical
                Digital Signature
            X509v3 Subject Key Identifier: 
                57:35:3C:AC:E6:BE:D3:7F:30:58:35:28:33:2F:3C:B6:C4:65:09:DA
    Signature Algorithm: sha256WithRSAEncryption
         19:00:92:bd:99:df:fa:54:38:e8:0e:36:3d:fb:10:f5:0d:16:
         a9:1c:d4:c3:dc:14:c4:d0:b9:cc:74:d8:40:d3:0f:f6:e0:f6:
         5f:f8:7e:ba:2b:aa:c4:80:2e:64:47:d9:8a:90:de:c7:57:01:
         36:a4:c5:38:3e:4f:88:92:94:6f:9e:19:c0:fc:0b:98:e9:e4:
         67:92:58:10:41:1e:4b:e4:77:0a:9b:bc:b5:74:5b:fb:d2:4b:
         a4:1c:6a:a7:ff:8a:24:fb:55:d9:23:20:69:34:cb:51:e1:c6:
         f0:30:08:04:96:7e:51:2c:dd:74:96:0f:43:b5:73:0c:1b:8f:
         b8:cc:d7:28:e6:08:34:98:d6:29:49:79:3e:4f:d3:4a:6d:8c:
         49:8e:09:0f:b8:5e:a6:f9:8e:c1:f0:dd:5f:81:5a:61:ce:35:
         30:34:85:45:dc:c3:58:df:d8:5d:89:31:9c:51:1d:0d:18:1b:
         3b:c0:1c:57:20:da:71:68:d6:ef:2c:fa:4d:04:4b:7e:d2:e9:
         09:2c:2d:76:22:cb:c6:29:ca:1a:b6:43:9d:8b:b1:3b:b4:35:
         72:ae:30:53:1d:e9:66:52:83:09:e6:56:90:4e:ae:9e:3e:73:
         56:b2:17:9c:fd:4e:d0:4f:66:80:7e:2f:8f:64:61:49:66:6e:
         14:f7:93:e6:e1:ee:e6:b5:10:57:cb:63:e7:5b:14:63:26:c8:
         bf:79:46:a2:63:53:1d:63:f8:84:5b:7c:b0:be:16:2d:7b:a8:
         da:1d:41:4f:7c:f6:9f:a0:37:1b:88:22:c1:04:03:80:63:19:
         5d:c7:3b:da:c7:c7:07:6c:1e:25:5e:97:06:1c:fa:fe:d0:00:
         24:47:b6:86:65:85:75:0a:51:97:b7:c7:1d:a8:b6:90:24:8a:
         9c:b2:e9:0e:b4:56:f9:9f:11:2c:9a:1a:26:5e:b2:60:0b:d8:
         da:38:4e:aa:91:e1:f9:aa:32:34:41:37:d7:d4:db:b5:e5:bd:
         b8:04:ff:ec:a1:e3:f4:44:80:d9:77:e0:89:06:a3:d8:f9:fa:
         ca:ca:c4:c6:ca:51:34:35:04:3e:e1:2d:4a:35:e7:d0:99:64:
         9d:bf:2e:d1:0c:b5:a2:9c:9c:dd:ae:24:20:97:ed:6a:86:c4:
         05:98:8a:76:72:d4:7d:5f:f2:9f:49:3d:c4:d8:11:23:9e:48:
         ed:5b:8e:74:a6:f8:34:58:c7:9d:a0:ed:92:c9:88:07:63:c2:
         ad:d7:25:e6:10:3c:dc:8a:66:27:86:cc:6d:32:c5:7a:a0:0b:
         07:28:f8:1d:32:7e:bd:fc:72:22:e1:01:4f:28:71:48:ba:79:
         75:92:76:b5:bc:b5:ea:c8
-----BEGIN CERTIFICATE-----
MIIFIDCCAwigAwIBAgIRAPYrA4LQm8EYGVDeptXJm4EwDQYJKoZIhvcNAQELBQAw
MjELMAkGA1UEBhMCRVMxDzANBgNVBAoMBlRlbGVjbzESMBAGA1UEAwwJQ2xpZW50
IENBMB4XDTIzMDQwNTIyMTIzMVoXDTMzMDQwMjIyMTIzMVowNDELMAkGA1UEBhMC
RVMxDzANBgNVBAoMBlRlbGVjbzEUMBIGA1UEAwwLY2xpZW50dGxzMTMwggEiMA0G
CSqGSIb3DQEBAQUAA4IBDwAwggEKAoIBAQDLVc/aclbHwo/+hWi36SbsM+2y2rte
ZGM6EPNZY+3GYn6bNcfGawzY9OqBqSDALmUf8KdnlIodYbD65XGtAjnZ7lak/W2m
SvOIzoQrRy8IsYqsP1MiVeFvIcI8ARq8k3ly2dXrNO5QXkkUhqTIJ2JpGG88Tonf
yXM9PFLAdkdDq5J4YcDSSmF4hOZQckP59H7NZ1Ba0013I2GAS8LUcSfQ/oU7uO6n
5TaGG6PRU0HMdgO3atCTffPbAtPq/rjBmIZjU7Ixr+vI9QZ45yir08JeWUoUyEco
PRlvioQb0qeFf32FyH73uPD5GrpcmINX6zOi21rYCmfICJNK3RBBIlq9AgMBAAGj
ggEtMIIBKTB4BggrBgEFBQcBAQRsMGowNQYIKwYBBQUHMAKGKWh0dHA6Ly9jbGll
bnQtY2EuVGVsZWNvLmNvbS9jbGllbnQtY2EuY3J0MDEGCCsGAQUFBzABhiVodHRw
Oi8vb2NzcC5jbGllbnQtY2EuVGVsZWNvLmNvbTo5MDgwMB8GA1UdIwQYMBaAFPJs
Bj4LgqJYIPRl3iz9w+XiE6FYMAwGA1UdEwEB/wQCMAAwOgYDVR0fBDMwMTAvoC2g
K4YpaHR0cDovL2NsaWVudC1jYS5UZWxlY28uY29tL2NsaWVudC1jYS5jcmwwEwYD
VR0lBAwwCgYIKwYBBQUHAwIwDgYDVR0PAQH/BAQDAgeAMB0GA1UdDgQWBBRXNTys
5r7TfzBYNSgzLzy2xGUJ2jANBgkqhkiG9w0BAQsFAAOCAgEAGQCSvZnf+lQ46A42
PfsQ9Q0WqRzUw9wUxNC5zHTYQNMP9uD2X/h+uiuqxIAuZEfZipDex1cBNqTFOD5P
iJKUb54ZwPwLmOnkZ5JYEEEeS+R3Cpu8tXRb+9JLpBxqp/+KJPtV2SMgaTTLUeHG
8DAIBJZ+USzddJYPQ7VzDBuPuMzXKOYINJjWKUl5Pk/TSm2MSY4JD7hepvmOwfDd
X4FaYc41MDSFRdzDWN/YXYkxnFEdDRgbO8AcVyDacWjW7yz6TQRLftLpCSwtdiLL
xinKGrZDnYuxO7Q1cq4wUx3pZlKDCeZWkE6unj5zVrIXnP1O0E9mgH4vj2RhSWZu
FPeT5uHu5rUQV8tj51sUYybIv3lGomNTHWP4hFt8sL4WLXuo2h1BT3z2n6A3G4gi
wQQDgGMZXcc72sfHB2weJV6XBhz6/tAAJEe2hmWFdQpRl7fHHai2kCSKnLLpDrRW
+Z8RLJoaJl6yYAvY2jhOqpHh+aoyNEE319TbteW9uAT/7KHj9ESA2XfgiQaj2Pn6
ysrExspRNDUEPuEtSjXn0Jlknb8u0Qy1opyc3a4kIJftaobEBZiKdnLUfV/yn0k9
xNgRI55I7VuOdKb4NFjHnaDtksmIB2PCrdcl5hA83IpmJ4bMbTLFeqALByj4HTJ+
vfxyIuEBTyhxSLp5dZJ2tby16sg=
-----END CERTIFICATE-----
