Certificate:
    Data:
        Version: 3 (0x2)
        Serial Number:
            09:1c:f0:ef:03:be:43:fa:60:e6:4e:48:38:92:f1:33
        Signature Algorithm: sha256WithRSAEncryption
        Issuer: C=ES, O=Teleco, CN=Root CA
        Validity
            Not Before: Apr  3 21:49:16 2023 GMT
            Not After : Mar 31 21:49:16 2033 GMT
        Subject: C=ES, O=Teleco, CN=Root CA
        Subject Public Key Info:
            Public Key Algorithm: rsaEncryption
                RSA Public-Key: (4096 bit)
                Modulus:
                    00:c6:73:70:63:13:1c:b7:ab:83:35:2f:50:de:e6:
                    d6:d8:aa:a1:bb:6f:74:09:f2:ea:d0:bd:9f:a9:e9:
                    a0:71:cb:e0:f7:04:bf:3e:5d:d2:ca:1e:d6:0d:9f:
                    f8:2e:50:1d:f8:72:de:cc:64:63:99:95:0f:8a:2c:
                    37:d1:79:85:60:0d:a3:29:72:f0:7d:8d:bb:69:67:
                    40:99:5c:89:da:c6:68:55:39:4b:34:9f:92:b7:a1:
                    6c:2d:50:82:5e:08:b3:f2:3b:a8:e0:e1:a6:e5:69:
                    78:11:2f:6b:8e:6b:03:36:f6:d9:d5:3b:25:7a:dd:
                    f2:28:27:60:40:5e:3e:a0:24:2c:19:ff:29:37:58:
                    15:19:69:d3:56:17:8e:66:cc:78:d8:ad:af:d2:02:
                    44:c8:db:79:41:b8:1a:ed:8a:a4:fd:07:4b:a5:a5:
                    d3:55:c0:84:4d:18:2f:3d:1f:32:ff:34:33:14:3e:
                    99:fd:f0:97:9a:7a:46:c6:d3:b0:33:fa:5e:3c:9d:
                    76:88:39:9f:13:af:8b:33:a7:21:14:63:2a:00:a0:
                    58:45:cd:51:5f:94:90:42:ee:3f:56:84:5e:a5:b5:
                    cb:b4:9b:36:e5:21:0a:40:ea:35:9f:f6:93:1f:b3:
                    b1:9e:26:55:9b:f3:2d:da:db:27:bf:b8:eb:0a:32:
                    99:33:09:ba:bf:2c:31:f1:8e:48:6d:cd:26:60:10:
                    d6:bb:b5:ad:73:8e:f6:54:7b:a1:4e:fa:64:fc:fb:
                    44:38:3a:fd:c0:81:3f:3a:70:66:47:7e:45:62:d3:
                    54:f3:7b:ac:0e:cc:0c:c9:31:ee:f8:13:10:30:95:
                    55:82:8f:f3:84:99:33:b0:2f:54:a0:55:e2:be:8b:
                    ce:82:f7:cd:4c:67:0d:bd:7e:f9:35:54:eb:62:14:
                    38:85:64:77:9e:e7:b0:dd:04:87:cf:aa:ad:1b:33:
                    e6:45:1c:e1:9d:64:86:67:03:14:b7:ae:2a:8f:83:
                    12:ad:7d:6a:26:2d:b7:2c:ea:bd:34:10:22:d5:74:
                    01:33:0e:13:ac:fe:38:55:a5:88:82:f6:86:dc:8f:
                    78:46:16:a3:ad:fd:71:2b:f5:47:ec:b5:60:be:43:
                    b1:61:27:b2:7e:d3:91:1f:4c:37:b4:c7:39:f3:a1:
                    65:ef:96:0c:e1:88:34:cd:74:9e:ae:b3:51:81:4b:
                    dc:f1:83:d9:be:05:5f:73:16:af:4f:51:4d:3f:33:
                    fd:f0:3b:5f:98:f9:94:e6:ec:40:54:32:3c:09:a4:
                    f4:d4:28:7c:80:aa:13:d7:a9:b8:d3:87:8e:76:4d:
                    bb:55:4d:8d:7e:1e:03:72:7c:63:47:ed:65:a8:d7:
                    d8:33:ff
                Exponent: 65537 (0x10001)
        X509v3 extensions:
            X509v3 Basic Constraints: critical
                CA:TRUE
            X509v3 Key Usage: critical
                Certificate Sign, CRL Sign
            X509v3 Subject Key Identifier: 
                27:4E:9A:9C:1E:BC:88:77:BB:84:6A:38:8B:ED:DA:7E:1E:E5:46:42
    Signature Algorithm: sha256WithRSAEncryption
         5d:dd:bb:d5:86:ce:70:fc:aa:35:76:05:08:6c:8d:e7:5c:dd:
         41:a8:e4:70:bf:af:d0:59:e9:e7:02:2a:8c:ae:e7:e7:93:dd:
         64:67:dd:98:4d:da:24:a3:31:81:79:6a:69:9a:f8:eb:67:88:
         99:ac:10:67:7c:0a:f4:ab:cf:37:0d:f1:62:06:04:e5:ae:62:
         6c:d7:83:8c:ef:f2:d7:09:a0:04:3f:d0:54:e1:68:b5:27:93:
         df:29:31:5e:42:5e:e2:f9:92:7a:ec:86:f4:fc:5c:13:3a:5b:
         9a:25:90:f9:44:d2:fb:8f:44:53:3e:9b:bf:7e:88:8e:8e:71:
         be:ea:ee:68:d0:78:2b:a5:5c:79:38:95:5d:b7:19:1e:48:be:
         0e:7d:7e:56:c4:27:63:da:bc:ff:26:3f:f4:79:dd:b5:a3:00:
         4e:47:4c:a0:d7:46:23:b9:6b:c5:9a:bd:d3:43:2a:38:34:0f:
         6e:33:4f:40:db:c6:cc:91:0d:f5:b2:4e:57:5c:e4:23:39:ae:
         3b:46:8f:43:27:bb:0a:21:4c:ba:f4:6b:6d:92:9d:4b:65:d0:
         26:d6:20:ea:df:e2:b3:2c:cc:51:7a:8c:32:76:b7:de:62:39:
         34:08:59:b4:75:58:d9:30:6a:cf:80:60:34:51:1e:d1:f3:ae:
         15:5e:9e:ee:91:db:ee:05:79:e1:f7:89:e3:74:37:f4:4d:10:
         26:18:7b:67:86:59:f2:d8:6f:0d:a2:c8:e5:8f:19:d4:a2:73:
         df:1b:9b:84:18:01:fc:4c:95:98:42:c6:57:5d:b3:f3:8d:d1:
         43:24:b5:a9:fb:cb:3e:5a:b2:fc:df:d8:01:e5:e6:cf:c6:25:
         de:95:2d:91:02:96:23:a1:c3:07:a1:f0:9e:17:28:09:7b:11:
         24:d3:09:e8:c7:76:b4:ff:39:f4:6e:ce:74:c3:de:af:8d:5f:
         8e:81:40:42:57:ca:55:bf:50:05:2f:5a:8b:19:4c:ac:60:11:
         31:86:e6:b0:61:fc:5a:35:20:d3:0a:4b:26:b3:f3:67:ad:27:
         17:44:d7:e3:ce:23:d2:ee:c3:e5:ed:87:21:78:94:23:09:84:
         32:d9:d1:28:3f:ba:42:46:a6:47:de:e9:47:0d:3a:3e:6e:59:
         26:ac:8a:d7:2f:43:72:61:8f:f2:39:03:82:05:42:ab:b0:0e:
         41:e6:7a:bb:04:c3:78:cb:72:af:29:79:50:0e:94:80:a6:9b:
         b4:27:00:67:21:84:42:5c:97:81:73:1e:61:b0:55:b7:e4:73:
         57:17:95:6b:e5:fc:b7:55:a1:f7:9d:b5:61:76:7d:62:21:3d:
         ae:6d:0d:9d:5a:2b:e1:c7
-----BEGIN CERTIFICATE-----
MIIFLDCCAxSgAwIBAgIQCRzw7wO+Q/pg5k5IOJLxMzANBgkqhkiG9w0BAQsFADAw
MQswCQYDVQQGEwJFUzEPMA0GA1UECgwGVGVsZWNvMRAwDgYDVQQDDAdSb290IENB
MB4XDTIzMDQwMzIxNDkxNloXDTMzMDMzMTIxNDkxNlowMDELMAkGA1UEBhMCRVMx
DzANBgNVBAoMBlRlbGVjbzEQMA4GA1UEAwwHUm9vdCBDQTCCAiIwDQYJKoZIhvcN
AQEBBQADggIPADCCAgoCggIBAMZzcGMTHLergzUvUN7m1tiqobtvdAny6tC9n6np
oHHL4PcEvz5d0soe1g2f+C5QHfhy3sxkY5mVD4osN9F5hWANoyly8H2Nu2lnQJlc
idrGaFU5SzSfkrehbC1Qgl4Is/I7qODhpuVpeBEva45rAzb22dU7JXrd8ignYEBe
PqAkLBn/KTdYFRlp01YXjmbMeNitr9ICRMjbeUG4Gu2KpP0HS6Wl01XAhE0YLz0f
Mv80MxQ+mf3wl5p6RsbTsDP6Xjyddog5nxOvizOnIRRjKgCgWEXNUV+UkELuP1aE
XqW1y7SbNuUhCkDqNZ/2kx+zsZ4mVZvzLdrbJ7+46woymTMJur8sMfGOSG3NJmAQ
1ru1rXOO9lR7oU76ZPz7RDg6/cCBPzpwZkd+RWLTVPN7rA7MDMkx7vgTEDCVVYKP
84SZM7AvVKBV4r6LzoL3zUxnDb1++TVU62IUOIVkd57nsN0Eh8+qrRsz5kUc4Z1k
hmcDFLeuKo+DEq19aiYttyzqvTQQItV0ATMOE6z+OFWliIL2htyPeEYWo639cSv1
R+y1YL5DsWEnsn7TkR9MN7THOfOhZe+WDOGINM10nq6zUYFL3PGD2b4FX3MWr09R
TT8z/fA7X5j5lObsQFQyPAmk9NQofICqE9epuNOHjnZNu1VNjX4eA3J8Y0ftZajX
2DP/AgMBAAGjQjBAMA8GA1UdEwEB/wQFMAMBAf8wDgYDVR0PAQH/BAQDAgEGMB0G
A1UdDgQWBBQnTpqcHryId7uEajiL7dp+HuVGQjANBgkqhkiG9w0BAQsFAAOCAgEA
Xd271YbOcPyqNXYFCGyN51zdQajkcL+v0Fnp5wIqjK7n55PdZGfdmE3aJKMxgXlq
aZr462eImawQZ3wK9KvPNw3xYgYE5a5ibNeDjO/y1wmgBD/QVOFotSeT3ykxXkJe
4vmSeuyG9PxcEzpbmiWQ+UTS+49EUz6bv36Ijo5xvuruaNB4K6VceTiVXbcZHki+
Dn1+VsQnY9q8/yY/9HndtaMATkdMoNdGI7lrxZq900MqODQPbjNPQNvGzJEN9bJO
V1zkIzmuO0aPQye7CiFMuvRrbZKdS2XQJtYg6t/isyzMUXqMMna33mI5NAhZtHVY
2TBqz4BgNFEe0fOuFV6e7pHb7gV54feJ43Q39E0QJhh7Z4ZZ8thvDaLI5Y8Z1KJz
3xubhBgB/EyVmELGV12z843RQyS1qfvLPlqy/N/YAeXmz8Yl3pUtkQKWI6HDB6Hw
nhcoCXsRJNMJ6Md2tP859G7OdMPer41fjoFAQlfKVb9QBS9aixlMrGARMYbmsGH8
WjUg0wpLJrPzZ60nF0TX484j0u7D5e2HIXiUIwmEMtnRKD+6QkamR97pRw06Pm5Z
JqyK1y9DcmGP8jkDggVCq7AOQeZ6uwTDeMtyryl5UA6UgKabtCcAZyGEQlyXgXMe
YbBVt+RzVxeVa+X8t1Wh9521YXZ9YiE9rm0NnVor4cc=
-----END CERTIFICATE-----
