Certificate:
    Data:
        Version: 3 (0x2)
        Serial Number:
            09:1c:f0:ef:03:be:43:fa:60:e6:4e:48:38:92:f1:28
        Signature Algorithm: sha256WithRSAEncryption
        Issuer: C=ES, O=Teleco, CN=Root CA
        Validity
            Not Before: Mar 26 13:10:26 2023 GMT
            Not After : Mar 25 13:10:26 2024 GMT
        Subject: C=ES, O=Teleco, CN=OCSP-Responder
        Subject Public Key Info:
            Public Key Algorithm: rsaEncryption
                RSA Public-Key: (2048 bit)
                Modulus:
                    00:e7:36:40:2e:05:88:73:e3:97:5b:76:b8:fe:7c:
                    78:fe:4a:46:f9:c7:85:44:3b:2c:68:c1:2b:3a:b3:
                    d2:08:93:8b:90:31:bf:e2:89:44:38:7a:55:f5:4d:
                    03:a4:62:b4:4d:b6:f7:eb:1f:4b:93:10:9d:ad:cb:
                    60:be:29:7a:a7:fe:4b:5f:a1:00:4e:7c:cf:61:65:
                    f1:6d:6d:b0:56:69:04:54:55:d4:e4:18:30:67:5a:
                    7d:e6:dd:df:43:73:dd:bd:5a:c0:3f:34:e8:ae:a2:
                    af:2a:17:f9:dc:27:8a:6d:85:31:63:70:b6:d8:62:
                    c7:81:5b:61:fe:83:bc:10:96:53:40:6c:07:c2:ce:
                    5a:c0:8a:8b:76:51:11:aa:a1:61:b2:89:58:57:dd:
                    62:0d:72:97:0b:fb:24:21:cf:1a:a8:69:25:08:f1:
                    56:c4:f4:e1:18:24:2a:fa:6d:73:2f:a0:8d:66:99:
                    aa:c7:7e:10:fb:f2:8a:2d:1b:e3:ec:d5:4f:9e:0f:
                    ef:8a:b2:9c:63:43:fd:8b:10:33:34:03:d4:b4:37:
                    ce:4a:9e:c8:fd:e5:7d:02:c9:c3:d4:fb:fe:02:7c:
                    a6:c4:aa:5a:08:18:d2:3e:de:3e:db:09:22:e4:10:
                    3f:31:a5:37:a9:f4:cd:b6:59:f6:e4:c8:35:e0:cf:
                    70:1b
                Exponent: 65537 (0x10001)
        X509v3 extensions:
            X509v3 Authority Key Identifier: 
                keyid:8A:F1:16:09:2A:B1:57:D6:A1:B9:1E:BA:5F:5F:E6:81:DA:98:B4:F9

            X509v3 Basic Constraints: critical
                CA:FALSE
            X509v3 Extended Key Usage: 
                OCSP Signing
            X509v3 Key Usage: critical
                Digital Signature
            X509v3 Subject Key Identifier: 
                A9:F6:43:6C:B3:DB:44:31:7D:0C:BF:C4:BD:A7:73:31:69:95:9E:10
    Signature Algorithm: sha256WithRSAEncryption
         4b:50:c6:b0:e1:a8:d3:aa:05:b0:56:45:62:7f:2d:f5:38:de:
         7a:cb:e0:82:c5:de:31:be:35:1e:9c:7c:34:33:e2:f4:3f:8c:
         4d:96:96:58:66:aa:38:66:5b:e4:98:82:2e:62:b5:8a:85:99:
         77:91:6c:05:65:e4:c1:fc:82:1d:a4:36:f4:f8:8c:3b:65:ae:
         b7:f2:8f:42:05:51:6c:0c:6e:52:56:34:84:ff:16:61:5c:da:
         e8:62:8c:7e:00:59:fc:d6:ec:30:33:7b:b9:c8:69:4a:e4:67:
         7e:3f:10:8a:26:13:d5:08:b1:0f:ea:57:63:3c:b3:98:81:a4:
         23:b0:5c:66:3e:90:e3:d3:5e:e2:f4:ed:7d:0a:27:84:3d:1f:
         d6:61:dc:d0:71:7f:bc:b7:68:77:0b:2b:f4:bb:0d:f9:a8:0a:
         be:2f:89:1d:2c:11:95:13:41:8d:c9:15:52:ce:fe:62:e0:30:
         a6:c6:8c:da:5b:ba:27:bf:79:ff:69:61:fd:7f:6f:03:46:d0:
         54:9e:68:54:1f:78:13:5a:09:bc:1a:74:7b:8c:89:ad:63:c6:
         bd:86:ae:99:3d:ba:8d:32:fb:d7:b3:5b:19:82:97:52:4c:de:
         f4:c2:a8:1c:b2:47:ad:bd:83:73:a1:3d:19:91:fb:2f:e5:98:
         60:31:eb:8f:f6:1a:fc:d9:97:fe:a7:c7:3e:41:a8:d6:8d:69:
         84:99:2a:60:b6:ad:3d:53:df:7b:92:34:2e:df:71:9e:08:98:
         18:b0:98:c0:f8:07:bf:78:7e:28:4f:1f:63:cd:74:c6:8a:4f:
         de:4f:fa:0c:9c:27:9d:4f:e6:f6:08:d3:2e:8c:6a:00:fa:4a:
         df:9b:1e:98:c6:26:a3:8d:2e:e5:ff:05:0f:0e:3c:e0:7a:09:
         68:ea:de:40:38:08:f7:b1:d5:bb:75:bb:af:3d:71:67:df:99:
         1e:d7:1a:8b:ec:7a:6c:51:9a:26:70:9e:c3:c5:b5:1f:c6:c6:
         ba:7e:bc:0a:86:a4:ef:89:c3:dd:18:3b:f7:09:d7:d2:65:fc:
         23:ee:c4:05:3e:b1:1a:82:ec:a5:fb:01:eb:1b:c8:3d:65:09:
         db:8f:38:9b:b9:b1:98:95:04:8e:90:02:32:d6:77:85:32:07:
         d1:96:c0:6e:aa:a1:d5:42:79:95:68:fe:47:33:88:10:df:de:
         af:66:70:52:93:d0:3c:d1:d7:b0:92:ac:44:e3:87:98:85:b5:
         54:aa:71:51:7c:aa:73:21:fc:bf:cb:2c:67:40:f4:ec:24:8d:
         57:70:c6:8b:e5:6e:72:61:8b:71:fc:de:d0:75:85:69:5f:da:
         62:39:f8:82:5b:57:1b:83
-----BEGIN CERTIFICATE-----
MIIEZjCCAk6gAwIBAgIQCRzw7wO+Q/pg5k5IOJLxKDANBgkqhkiG9w0BAQsFADAw
MQswCQYDVQQGEwJFUzEPMA0GA1UECgwGVGVsZWNvMRAwDgYDVQQDDAdSb290IENB
MB4XDTIzMDMyNjEzMTAyNloXDTI0MDMyNTEzMTAyNlowNzELMAkGA1UEBhMCRVMx
DzANBgNVBAoMBlRlbGVjbzEXMBUGA1UEAwwOT0NTUC1SZXNwb25kZXIwggEiMA0G
CSqGSIb3DQEBAQUAA4IBDwAwggEKAoIBAQDnNkAuBYhz45dbdrj+fHj+Skb5x4VE
OyxowSs6s9IIk4uQMb/iiUQ4elX1TQOkYrRNtvfrH0uTEJ2ty2C+KXqn/ktfoQBO
fM9hZfFtbbBWaQRUVdTkGDBnWn3m3d9Dc929WsA/NOiuoq8qF/ncJ4pthTFjcLbY
YseBW2H+g7wQllNAbAfCzlrAiot2URGqoWGyiVhX3WINcpcL+yQhzxqoaSUI8VbE
9OEYJCr6bXMvoI1mmarHfhD78ootG+Ps1U+eD++KspxjQ/2LEDM0A9S0N85Knsj9
5X0CycPU+/4CfKbEqloIGNI+3j7bCSLkED8xpTep9M22WfbkyDXgz3AbAgMBAAGj
dTBzMB8GA1UdIwQYMBaAFIrxFgkqsVfWobkeul9f5oHamLT5MAwGA1UdEwEB/wQC
MAAwEwYDVR0lBAwwCgYIKwYBBQUHAwkwDgYDVR0PAQH/BAQDAgeAMB0GA1UdDgQW
BBSp9kNss9tEMX0Mv8S9p3MxaZWeEDANBgkqhkiG9w0BAQsFAAOCAgEAS1DGsOGo
06oFsFZFYn8t9TjeesvggsXeMb41Hpx8NDPi9D+MTZaWWGaqOGZb5JiCLmK1ioWZ
d5FsBWXkwfyCHaQ29PiMO2Wut/KPQgVRbAxuUlY0hP8WYVza6GKMfgBZ/NbsMDN7
uchpSuRnfj8QiiYT1QixD+pXYzyzmIGkI7BcZj6Q49Ne4vTtfQonhD0f1mHc0HF/
vLdodwsr9LsN+agKvi+JHSwRlRNBjckVUs7+YuAwpsaM2lu6J795/2lh/X9vA0bQ
VJ5oVB94E1oJvBp0e4yJrWPGvYaumT26jTL717NbGYKXUkze9MKoHLJHrb2Dc6E9
GZH7L+WYYDHrj/Ya/NmX/qfHPkGo1o1phJkqYLatPVPfe5I0Lt9xngiYGLCYwPgH
v3h+KE8fY810xopP3k/6DJwnnU/m9gjTLoxqAPpK35semMYmo40u5f8FDw484HoJ
aOreQDgI97HVu3W7rz1xZ9+ZHtcai+x6bFGaJnCew8W1H8bGun68Coak74nD3Rg7
9wnX0mX8I+7EBT6xGoLspfsB6xvIPWUJ2484m7mxmJUEjpACMtZ3hTIH0ZbAbqqh
1UJ5lWj+RzOIEN/er2ZwUpPQPNHXsJKsROOHmIW1VKpxUXyqcyH8v8ssZ0D07CSN
V3DGi+VucmGLcfze0HWFaV/aYjn4gltXG4M=
-----END CERTIFICATE-----
