Certificate:
    Data:
        Version: 3 (0x2)
        Serial Number:
            09:1c:f0:ef:03:be:43:fa:60:e6:4e:48:38:92:f1:4a
        Signature Algorithm: sha256WithRSAEncryption
        Issuer: C=ES, O=Teleco, CN=Root CA
        Validity
            Not Before: Apr  5 16:19:09 2023 GMT
            Not After : Apr  2 16:19:09 2033 GMT
        Subject: C=ES, O=Teleco, CN=servertls13
        Subject Public Key Info:
            Public Key Algorithm: rsaEncryption
                RSA Public-Key: (2048 bit)
                Modulus:
                    00:8b:1f:7b:ff:ad:26:22:af:fb:b9:0a:5f:d2:bd:
                    bb:db:70:71:e9:ad:60:1c:d6:95:f4:60:5b:1d:d9:
                    b4:75:3f:1d:cf:a6:d4:4d:3c:b2:58:d7:df:03:1f:
                    60:6c:b4:c2:d8:3f:84:6d:a9:f7:56:bd:8f:8a:52:
                    3a:51:f7:a5:c2:42:80:80:7e:fa:39:fb:43:a6:a1:
                    c6:c8:b4:2e:ed:cd:b7:17:f3:f4:c0:ca:e9:7f:e3:
                    25:e9:16:cf:c4:2b:69:6c:b8:90:ea:cd:f9:cd:f7:
                    94:ad:15:13:93:f0:36:76:d9:b0:43:aa:66:f6:bf:
                    92:86:8a:cd:76:93:9a:e5:5c:fa:f4:b0:5f:13:d0:
                    03:4f:6b:c0:13:d0:08:a6:fd:7e:cc:4f:4b:0d:9f:
                    93:a7:5a:cb:19:96:57:c6:b6:08:ce:91:82:b1:6b:
                    d7:ec:84:8c:59:91:a3:8c:83:9b:c9:7c:b3:e6:15:
                    2d:e0:90:90:22:70:0c:99:da:c9:c9:90:4a:3a:eb:
                    86:3d:7f:c0:b9:8c:89:ef:f9:a0:e9:02:a9:fc:66:
                    0b:23:53:9c:90:46:45:ec:5a:4d:c9:9f:10:01:31:
                    33:79:18:51:d1:0d:bb:55:42:e6:4f:64:f1:4a:0e:
                    96:4c:1b:1c:5e:58:fe:fb:75:d2:30:02:29:60:80:
                    8b:3b
                Exponent: 65537 (0x10001)
        X509v3 extensions:
            Authority Information Access: 
                CA Issuers - URI:http://root-ca.Teleco.com/root-ca.crt
                OCSP - URI:http://ocsp.root-ca.Teleco.com:9080

            X509v3 Authority Key Identifier: 
                keyid:4F:5C:C0:E0:D3:03:4E:BD:A5:8D:EB:EA:23:DD:29:41:92:E9:2E:AB

            X509v3 Basic Constraints: critical
                CA:FALSE
            X509v3 CRL Distribution Points: 

                Full Name:
                  URI:http://root-ca.Teleco.com/root-ca.crl

            X509v3 Extended Key Usage: 
                TLS Web Client Authentication, TLS Web Server Authentication
            X509v3 Key Usage: critical
                Digital Signature, Key Encipherment
            X509v3 Subject Key Identifier: 
                B8:14:D7:E0:B3:AE:3D:5D:90:92:10:57:1A:5C:0A:7F:7E:1B:85:D7
    Signature Algorithm: sha256WithRSAEncryption
         96:62:d2:47:94:96:a1:bb:46:49:3d:9b:73:cc:8f:d4:84:0f:
         db:b2:6d:41:00:cf:e7:3c:00:a8:36:8f:e7:e1:16:a7:42:bf:
         61:0b:07:5a:08:88:c1:fa:a2:4b:59:0b:3c:4f:8f:06:96:a4:
         65:5f:0b:5d:03:37:f5:27:94:6b:d8:7c:03:09:b3:e9:87:5c:
         0c:37:c8:de:71:b6:fd:1d:38:6b:47:93:9e:a4:a6:85:b8:d6:
         55:96:db:e0:44:c0:0d:54:74:01:49:07:5c:fe:0f:6d:5b:ad:
         10:ba:07:88:17:db:e0:b7:08:7e:67:5f:6d:fb:f7:b1:90:75:
         0b:c5:bc:35:c3:7e:de:a0:4c:ca:c2:8b:98:9d:98:7b:65:5a:
         77:57:f2:59:13:3a:50:c3:2f:d5:80:e6:be:20:ab:4b:6d:fa:
         d4:65:2a:cc:dd:10:bd:eb:0f:82:db:43:95:24:4d:47:33:f9:
         92:24:0a:06:a8:d9:5f:1d:46:52:aa:74:60:a8:a2:40:2f:df:
         63:74:dc:72:7c:cf:4d:78:22:68:1d:09:64:df:60:19:d9:00:
         02:3a:9e:ee:63:16:6e:6f:e0:50:d2:be:85:77:be:5d:ed:0d:
         59:3c:11:00:a1:7c:ce:31:f3:f1:f8:c1:02:2a:16:f5:40:61:
         f0:ff:3a:09:b8:3f:1f:ac:ae:bb:5d:bf:38:0a:86:00:b1:7a:
         9c:2a:b9:4e:b5:20:a7:f7:5f:0f:af:c3:c3:b3:5e:88:a0:90:
         aa:c0:c7:a7:1b:6b:3a:c1:81:d1:b7:09:93:92:59:1b:ab:b5:
         d4:1d:3d:64:2d:6c:1f:43:5f:e3:f1:d0:5e:14:1d:79:38:5e:
         f1:89:77:ce:a6:98:c3:29:04:bf:03:ad:3f:5c:10:3b:8e:e2:
         eb:c7:e1:a6:9b:33:7c:a5:2a:cc:3c:3e:ff:b3:09:ab:fa:98:
         df:19:99:ec:71:c1:17:cc:0f:cc:88:09:6e:32:e0:81:0a:60:
         b2:ce:aa:ed:c0:7e:af:96:01:59:ba:16:25:16:37:d8:47:ed:
         4d:1a:39:91:a9:d1:d4:b6:9e:8a:64:fa:f1:2d:08:77:34:7f:
         24:2f:41:98:af:f7:13:de:9b:b8:8a:21:83:a9:86:ed:37:6d:
         35:03:63:3e:3c:06:83:65:f2:29:46:47:5a:48:9f:03:9b:a0:
         29:3d:3a:98:6b:c8:be:d7:81:d9:46:cf:7a:2a:97:c3:ed:f8:
         75:db:6c:eb:f4:4e:85:0b:68:80:79:88:99:41:74:59:b7:9a:
         63:42:07:5e:f8:aa:41:1a:ec:bc:30:99:d3:ee:38:76:84:3d:
         eb:98:7a:3a:d1:d1:c7:96
-----BEGIN CERTIFICATE-----
MIIFHTCCAwWgAwIBAgIQCRzw7wO+Q/pg5k5IOJLxSjANBgkqhkiG9w0BAQsFADAw
MQswCQYDVQQGEwJFUzEPMA0GA1UECgwGVGVsZWNvMRAwDgYDVQQDDAdSb290IENB
MB4XDTIzMDQwNTE2MTkwOVoXDTMzMDQwMjE2MTkwOVowNDELMAkGA1UEBhMCRVMx
DzANBgNVBAoMBlRlbGVjbzEUMBIGA1UEAwwLc2VydmVydGxzMTMwggEiMA0GCSqG
SIb3DQEBAQUAA4IBDwAwggEKAoIBAQCLH3v/rSYir/u5Cl/SvbvbcHHprWAc1pX0
YFsd2bR1Px3PptRNPLJY198DH2BstMLYP4RtqfdWvY+KUjpR96XCQoCAfvo5+0Om
ocbItC7tzbcX8/TAyul/4yXpFs/EK2lsuJDqzfnN95StFROT8DZ22bBDqmb2v5KG
is12k5rlXPr0sF8T0ANPa8AT0Aim/X7MT0sNn5OnWssZllfGtgjOkYKxa9fshIxZ
kaOMg5vJfLPmFS3gkJAicAyZ2snJkEo664Y9f8C5jInv+aDpAqn8ZgsjU5yQRkXs
Wk3JnxABMTN5GFHRDbtVQuZPZPFKDpZMGxxeWP77ddIwAilggIs7AgMBAAGjggEt
MIIBKTByBggrBgEFBQcBAQRmMGQwMQYIKwYBBQUHMAKGJWh0dHA6Ly9yb290LWNh
LlRlbGVjby5jb20vcm9vdC1jYS5jcnQwLwYIKwYBBQUHMAGGI2h0dHA6Ly9vY3Nw
LnJvb3QtY2EuVGVsZWNvLmNvbTo5MDgwMB8GA1UdIwQYMBaAFE9cwODTA069pY3r
6iPdKUGS6S6rMAwGA1UdEwEB/wQCMAAwNgYDVR0fBC8wLTAroCmgJ4YlaHR0cDov
L3Jvb3QtY2EuVGVsZWNvLmNvbS9yb290LWNhLmNybDAdBgNVHSUEFjAUBggrBgEF
BQcDAgYIKwYBBQUHAwEwDgYDVR0PAQH/BAQDAgWgMB0GA1UdDgQWBBS4FNfgs649
XZCSEFcaXAp/fhuF1zANBgkqhkiG9w0BAQsFAAOCAgEAlmLSR5SWobtGST2bc8yP
1IQP27JtQQDP5zwAqDaP5+EWp0K/YQsHWgiIwfqiS1kLPE+PBpakZV8LXQM39SeU
a9h8Awmz6YdcDDfI3nG2/R04a0eTnqSmhbjWVZbb4ETADVR0AUkHXP4PbVutELoH
iBfb4LcIfmdfbfv3sZB1C8W8NcN+3qBMysKLmJ2Ye2Vad1fyWRM6UMMv1YDmviCr
S2361GUqzN0QvesPgttDlSRNRzP5kiQKBqjZXx1GUqp0YKiiQC/fY3TccnzPTXgi
aB0JZN9gGdkAAjqe7mMWbm/gUNK+hXe+Xe0NWTwRAKF8zjHz8fjBAioW9UBh8P86
Cbg/H6yuu12/OAqGALF6nCq5TrUgp/dfD6/Dw7NeiKCQqsDHpxtrOsGB0bcJk5JZ
G6u11B09ZC1sH0Nf4/HQXhQdeThe8Yl3zqaYwykEvwOtP1wQO47i68fhppszfKUq
zDw+/7MJq/qY3xmZ7HHBF8wPzIgJbjLggQpgss6q7cB+r5YBWboWJRY32EftTRo5
kanR1LaeimT68S0IdzR/JC9BmK/3E96buIohg6mG7TdtNQNjPjwGg2XyKUZHWkif
A5ugKT06mGvIvteB2UbPeiqXw+34ddts6/ROhQtogHmImUF0WbeaY0IHXviqQRrs
vDCZ0+44doQ965h6OtHRx5Y=
-----END CERTIFICATE-----
