Certificate:
    Data:
        Version: 3 (0x2)
        Serial Number:
            09:1c:f0:ef:03:be:43:fa:60:e6:4e:48:38:92:f1:55
        Signature Algorithm: sha256WithRSAEncryption
        Issuer: C=ES, O=Teleco, CN=Root CA
        Validity
            Not Before: Apr  6 10:34:31 2023 GMT
            Not After : Apr  3 10:34:31 2033 GMT
        Subject: C=ES, O=Teleco, CN=clienttls13
        Subject Public Key Info:
            Public Key Algorithm: rsaEncryption
                RSA Public-Key: (1512 bit)
                Modulus:
                    00:bd:45:e1:34:e1:82:3a:29:4b:73:8c:a3:1b:aa:
                    66:01:db:b5:84:a2:2d:37:49:15:6c:23:ad:5f:44:
                    bd:62:be:35:04:09:54:8a:f0:50:01:b1:30:04:38:
                    fc:ae:cd:e7:bf:93:78:88:70:0e:49:06:c5:36:de:
                    f7:7e:0d:1e:bd:12:d8:a9:4e:19:95:4f:6d:41:be:
                    6d:82:a4:53:d3:ca:95:34:81:40:dd:1c:11:1d:09:
                    d7:e6:25:87:a7:b9:1e:3c:7d:ca:8d:1a:e4:c7:e5:
                    80:34:a9:43:3f:79:82:c9:2b:6c:37:50:a1:fd:00:
                    52:58:ff:de:d5:2c:5c:c7:0a:59:2d:58:57:4f:73:
                    17:53:59:7b:9c:b8:1c:82:41:a4:55:fc:99:a4:02:
                    b7:fe:f3:22:7d:9b:38:81:df:09:b0:42:20:c7:0d:
                    4e:21:b3:bf:91:61:3f:e6:84:42:f0:56:e6:bf:1b:
                    c3:3f:f9:78:8c:48:3f:d5:bf:d1
                Exponent: 65537 (0x10001)
        X509v3 extensions:
            Authority Information Access: 
                CA Issuers - URI:http://root-ca.Teleco.com/root-ca.crt
                OCSP - URI:http://ocsp.root-ca.Teleco.com:9080

            X509v3 Authority Key Identifier: 
                keyid:4F:5C:C0:E0:D3:03:4E:BD:A5:8D:EB:EA:23:DD:29:41:92:E9:2E:AB

            X509v3 Basic Constraints: critical
                CA:FALSE
            X509v3 CRL Distribution Points: 

                Full Name:
                  URI:http://root-ca.Teleco.com/root-ca.crl

            X509v3 Extended Key Usage: 
                TLS Web Client Authentication
            X509v3 Key Usage: critical
                Digital Signature
            X509v3 Subject Key Identifier: 
                80:F8:D6:63:4B:03:9B:3B:53:0A:F9:1C:0E:8A:D5:D8:4F:27:72:AB
    Signature Algorithm: sha256WithRSAEncryption
         85:4d:58:d0:7e:b5:9d:30:98:d2:80:18:cb:63:ce:b4:22:49:
         89:b2:18:84:c8:97:ff:d3:71:58:b4:e3:da:92:98:32:a5:99:
         e6:6f:e6:86:5c:bc:28:f7:e7:32:1d:78:07:f3:f4:a8:f1:7d:
         76:1e:f2:a3:42:85:52:45:57:57:3a:ac:2b:72:7f:61:89:11:
         4d:ca:71:8c:ab:52:a6:06:0e:81:65:c2:45:c6:94:eb:d2:23:
         6b:e4:a0:16:04:13:c1:36:49:9d:2a:8e:c3:dd:d1:a2:6e:50:
         a1:5b:8a:68:ea:32:8f:68:be:02:5e:a4:2c:13:fa:34:79:4f:
         eb:df:25:4a:79:94:82:34:7a:51:b3:ae:2c:1d:88:fe:3f:0b:
         23:79:fe:fc:11:d0:92:b5:9d:b2:1b:1e:1d:19:65:93:1c:63:
         8e:e6:d9:88:02:34:08:80:39:62:0d:59:1e:35:52:13:0d:b9:
         2d:7c:e3:5c:38:d7:9e:1b:29:9d:82:bc:25:80:24:a1:6a:76:
         29:6f:da:de:72:76:cd:7a:71:7b:07:c3:8f:91:0a:69:fa:d2:
         a6:73:de:8c:f6:38:ae:06:a8:7d:ca:c4:58:57:55:8d:3c:aa:
         05:53:3f:82:e7:bc:61:04:2e:49:36:a1:c1:75:97:2e:8c:3c:
         76:2a:02:1b:f5:11:f0:16:6d:ab:10:cc:c6:70:06:f4:dd:ef:
         a8:cc:c0:4d:27:82:3f:5e:31:fd:b3:70:80:02:1e:b0:be:0b:
         90:42:29:c5:ed:bc:b8:cb:2a:6e:51:9b:e8:e9:0a:3d:93:70:
         7f:d6:c0:2e:c6:9f:f3:7c:cc:9c:dd:d4:84:09:9c:00:36:4c:
         9c:fb:c7:1f:4a:df:bc:82:be:eb:9d:11:b6:15:20:7f:90:5b:
         57:4e:2c:80:f5:b6:68:35:42:17:a6:6b:f0:e3:f5:29:02:9c:
         02:a0:39:ec:89:8d:28:36:c3:0b:77:ba:b1:dd:04:5d:e7:d1:
         ea:32:34:64:29:44:cf:5d:96:06:82:c5:fe:cd:2f:06:39:29:
         6e:df:69:aa:36:8f:51:ec:2d:c5:f4:a9:dd:ba:12:aa:84:c0:
         3a:90:63:19:f5:89:82:b8:96:a8:9b:6f:00:9b:25:e5:c5:53:
         b3:15:2f:41:5c:ef:b2:69:6e:16:71:9b:a6:02:ab:a0:a0:40:
         51:ca:c9:19:9f:84:41:0f:db:80:c4:f9:92:b5:e2:59:ac:6c:
         9d:c3:f8:c8:44:bc:d7:db:21:64:29:ce:9c:b6:6a:13:3f:ce:
         10:07:71:7d:01:2b:17:41:6d:11:ab:aa:35:52:76:06:e3:cc:
         82:e2:e4:51:b1:7a:df:b9
-----BEGIN CERTIFICATE-----
MIIEzDCCArSgAwIBAgIQCRzw7wO+Q/pg5k5IOJLxVTANBgkqhkiG9w0BAQsFADAw
MQswCQYDVQQGEwJFUzEPMA0GA1UECgwGVGVsZWNvMRAwDgYDVQQDDAdSb290IENB
MB4XDTIzMDQwNjEwMzQzMVoXDTMzMDQwMzEwMzQzMVowNDELMAkGA1UEBhMCRVMx
DzANBgNVBAoMBlRlbGVjbzEUMBIGA1UEAwwLY2xpZW50dGxzMTMwgdwwDQYJKoZI
hvcNAQEBBQADgcoAMIHGAoG+AL1F4TThgjopS3OMoxuqZgHbtYSiLTdJFWwjrV9E
vWK+NQQJVIrwUAGxMAQ4/K7N57+TeIhwDkkGxTbe934NHr0S2KlOGZVPbUG+bYKk
U9PKlTSBQN0cER0J1+Ylh6e5Hjx9yo0a5MflgDSpQz95gskrbDdQof0AUlj/3tUs
XMcKWS1YV09zF1NZe5y4HIJBpFX8maQCt/7zIn2bOIHfCbBCIMcNTiGzv5FhP+aE
QvBW5r8bwz/5eIxIP9W/0QIDAQABo4IBIzCCAR8wcgYIKwYBBQUHAQEEZjBkMDEG
CCsGAQUFBzAChiVodHRwOi8vcm9vdC1jYS5UZWxlY28uY29tL3Jvb3QtY2EuY3J0
MC8GCCsGAQUFBzABhiNodHRwOi8vb2NzcC5yb290LWNhLlRlbGVjby5jb206OTA4
MDAfBgNVHSMEGDAWgBRPXMDg0wNOvaWN6+oj3SlBkukuqzAMBgNVHRMBAf8EAjAA
MDYGA1UdHwQvMC0wK6ApoCeGJWh0dHA6Ly9yb290LWNhLlRlbGVjby5jb20vcm9v
dC1jYS5jcmwwEwYDVR0lBAwwCgYIKwYBBQUHAwIwDgYDVR0PAQH/BAQDAgeAMB0G
A1UdDgQWBBSA+NZjSwObO1MK+RwOitXYTydyqzANBgkqhkiG9w0BAQsFAAOCAgEA
hU1Y0H61nTCY0oAYy2POtCJJibIYhMiX/9NxWLTj2pKYMqWZ5m/mhly8KPfnMh14
B/P0qPF9dh7yo0KFUkVXVzqsK3J/YYkRTcpxjKtSpgYOgWXCRcaU69Ija+SgFgQT
wTZJnSqOw93Rom5QoVuKaOoyj2i+Al6kLBP6NHlP698lSnmUgjR6UbOuLB2I/j8L
I3n+/BHQkrWdshseHRllkxxjjubZiAI0CIA5Yg1ZHjVSEw25LXzjXDjXnhspnYK8
JYAkoWp2KW/a3nJ2zXpxewfDj5EKafrSpnPejPY4rgaofcrEWFdVjTyqBVM/gue8
YQQuSTahwXWXLow8dioCG/UR8BZtqxDMxnAG9N3vqMzATSeCP14x/bNwgAIesL4L
kEIpxe28uMsqblGb6OkKPZNwf9bALsaf83zMnN3UhAmcADZMnPvHH0rfvIK+650R
thUgf5BbV04sgPW2aDVCF6Zr8OP1KQKcAqA57ImNKDbDC3e6sd0EXefR6jI0ZClE
z12WBoLF/s0vBjkpbt9pqjaPUewtxfSp3boSqoTAOpBjGfWJgriWqJtvAJsl5cVT
sxUvQVzvsmluFnGbpgKroKBAUcrJGZ+EQQ/bgMT5krXiWaxsncP4yES819shZCnO
nLZqEz/OEAdxfQErF0FtEauqNVJ2BuPMguLkUbF637k=
-----END CERTIFICATE-----
