Certificate:
    Data:
        Version: 3 (0x2)
        Serial Number:
            09:1c:f0:ef:03:be:43:fa:60:e6:4e:48:38:92:f1:40
        Signature Algorithm: sha256WithRSAEncryption
        Issuer: C=ES, O=Teleco, CN=Root CA
        Validity
            Not Before: Apr  4 15:01:29 2023 GMT
            Not After : Apr  1 15:01:29 2033 GMT
        Subject: C=ES, O=Teleco, CN=Server CA
        Subject Public Key Info:
            Public Key Algorithm: rsaEncryption
                RSA Public-Key: (4096 bit)
                Modulus:
                    00:c1:36:ee:91:eb:03:5b:09:1f:7c:c1:73:5d:60:
                    fb:91:68:cd:92:de:89:a0:bf:20:6f:84:5d:50:7f:
                    e9:d4:14:38:be:11:f1:55:96:e6:6c:7d:c6:7c:64:
                    de:85:0f:85:5c:cc:bc:7a:56:e0:b3:77:0b:2c:ad:
                    c4:f1:b9:eb:b1:de:04:a5:11:4e:c2:a6:09:94:c9:
                    ea:b7:90:3d:43:2e:29:bb:0d:ed:1d:25:df:1a:92:
                    3d:e9:b9:cf:8e:19:89:32:b6:3f:52:b4:43:bb:c7:
                    9e:18:32:d6:8d:99:5c:34:06:02:0f:2e:17:69:0f:
                    7d:48:36:18:ed:c4:28:46:41:e5:25:53:3f:15:74:
                    9d:52:6f:08:63:6f:a0:a0:c4:a9:9e:3b:d8:5e:d8:
                    5a:14:8d:6c:40:10:c6:8d:9f:c2:df:a9:fe:08:c8:
                    4b:34:ee:b8:36:46:6e:fb:da:e3:66:8e:d3:5f:20:
                    f7:28:66:20:26:51:d2:6d:c9:0e:6c:da:77:66:9a:
                    9f:9a:77:30:86:49:b0:4d:fa:af:d5:5d:29:02:c5:
                    cd:47:84:64:7e:96:b5:3a:ba:51:7e:87:0a:70:5e:
                    6b:be:f9:e9:34:82:88:56:e4:de:11:83:b9:f4:90:
                    5c:dd:4e:75:e1:60:55:b2:8a:73:9f:93:ac:3a:d8:
                    82:65:f1:d8:c1:e9:b2:83:25:a2:c9:3d:34:93:a3:
                    e7:ef:b3:3b:98:1b:11:bd:96:5b:bb:c3:49:7e:20:
                    87:6f:3f:97:95:ea:34:1e:40:05:b2:6b:4d:9f:d8:
                    1b:04:c3:62:d4:ec:d6:b9:c9:7a:2f:cb:72:50:ac:
                    4e:c4:0c:b0:c0:5a:6d:5d:f6:a5:b1:d6:61:ac:30:
                    54:3b:82:81:3f:52:91:8a:9c:89:fe:d5:5b:ce:cc:
                    16:40:56:ba:14:2a:f7:97:25:e7:22:00:59:38:83:
                    11:cd:b5:82:58:13:25:de:7a:87:a4:9a:e6:09:4d:
                    a7:6e:11:7a:45:22:e6:bf:e9:80:66:4e:24:01:7f:
                    3c:cd:5f:b1:9b:af:55:75:6a:60:8b:41:79:66:71:
                    71:97:01:18:be:d1:50:47:9c:e6:b4:04:90:d2:f1:
                    e5:b7:bf:6d:b5:9d:0a:bb:b3:69:95:52:28:92:78:
                    d8:8d:15:bc:d5:b5:f3:61:86:ad:8e:ed:6c:df:8f:
                    3a:9d:0e:d8:6b:4e:c5:2e:37:72:8d:ca:ca:26:d3:
                    ae:fb:5e:bc:fe:c8:dd:4d:25:ee:e3:c7:79:4d:b3:
                    71:d7:a3:45:1f:1c:56:56:08:78:e0:f4:d2:64:71:
                    c5:25:47:50:31:ce:68:5b:7f:93:f6:af:20:6a:9b:
                    23:ba:e5
                Exponent: 65537 (0x10001)
        X509v3 extensions:
            Authority Information Access: 
                OCSP - URI:http://localhost:9080/

            X509v3 Authority Key Identifier: 
                keyid:FF:49:E2:E4:B8:A1:21:F1:7A:6A:1A:B6:5A:40:C0:E3:E7:D6:D6:5E

            X509v3 Basic Constraints: critical
                CA:TRUE, pathlen:0
            X509v3 CRL Distribution Points: 

                Full Name:
                  URI:http://root-ca.Teleco.com/root-ca.crl

            X509v3 Extended Key Usage: 
                TLS Web Client Authentication, TLS Web Server Authentication, OCSP Signing
            X509v3 Key Usage: critical
                Certificate Sign, CRL Sign
            X509v3 Name Constraints: 
                Permitted:
                  DNS:example.com
                  DNS:example.org
                Excluded:
                  IP:0.0.0.0/0.0.0.0
                  IP:0:0:0:0:0:0:0:0/0:0:0:0:0:0:0:0

            X509v3 Subject Key Identifier: 
                D0:0F:03:63:55:5A:96:94:DA:FA:8E:B1:39:C3:F2:A5:E2:1B:37:EB
    Signature Algorithm: sha256WithRSAEncryption
         4b:b6:42:76:6e:cb:20:3a:49:24:0b:2c:10:98:57:98:1b:fb:
         ad:6f:6b:8e:73:46:54:93:a6:15:b5:23:36:42:f1:74:1e:5b:
         38:3b:85:62:d2:0a:10:9b:ed:b9:12:e2:0e:62:9f:87:dc:3a:
         8c:95:54:41:88:36:a4:61:0c:9e:b3:0d:36:fc:1b:d4:b4:1f:
         cb:58:4d:51:80:00:72:30:a8:8d:72:da:46:d2:ee:58:e6:9e:
         d3:0a:d6:b4:89:ac:8b:91:cb:86:c4:7b:de:13:39:d7:5d:24:
         50:a2:e8:d7:5e:62:db:25:7f:fb:09:79:a9:f1:4e:4c:9a:03:
         58:21:dc:d7:81:d9:cf:39:e4:5c:31:57:cc:bf:13:73:8c:a8:
         1e:9c:e7:2b:bb:5f:a1:d2:11:91:f6:74:63:14:94:1d:7f:22:
         3e:c4:cc:b0:3b:f1:2f:48:5d:9b:78:3c:f5:ee:57:e9:dc:df:
         a5:d9:2d:87:2f:fd:7d:8e:dd:ea:30:9a:17:70:09:5d:7c:b5:
         f5:fc:77:6a:7b:90:61:cd:74:3e:fc:87:96:28:46:1f:89:b4:
         1d:7b:60:a8:c6:ff:91:72:2a:19:b7:31:be:c6:30:c1:8a:36:
         cb:67:aa:a8:bd:f9:dd:32:e1:dd:9b:b1:44:c6:9c:13:cc:4a:
         ef:68:c6:59:51:6d:53:8d:af:9a:08:a1:ca:e6:a9:d1:88:b4:
         10:9c:06:84:ce:bd:6e:e7:11:38:54:8a:f1:68:90:ca:76:ff:
         3d:ec:c0:90:e4:66:bf:18:4b:c7:31:cb:a2:fc:4e:69:6a:d0:
         1c:b1:00:c6:a1:0c:79:ff:01:d1:38:a7:a6:67:70:57:79:84:
         da:76:fe:8a:d0:e0:df:8a:db:a3:6f:ba:15:44:fd:d8:2a:c5:
         7a:40:e8:06:f2:ee:b5:d5:07:76:74:ea:34:1b:f0:28:61:86:
         d5:25:66:4d:2f:43:2b:05:b7:4e:7d:d9:4a:b8:b2:c7:b3:3d:
         07:e3:80:60:79:aa:be:28:59:5d:de:83:4b:d3:87:2a:51:32:
         81:cf:9d:b0:8d:1f:43:2a:78:4f:4f:37:fd:03:eb:00:6b:b8:
         c6:57:89:77:9e:79:4f:5d:b0:c3:4f:7f:4c:11:82:ab:49:fd:
         24:07:da:1d:19:b0:29:0c:ed:db:14:97:f3:99:e5:f9:67:85:
         5c:19:eb:c0:40:13:e5:f3:5c:5d:fe:c8:28:a4:92:66:53:20:
         5c:c9:09:4c:4d:d9:3a:99:ff:61:70:76:df:7f:b9:72:cf:67:
         af:9d:13:64:d8:f0:41:46:4d:ab:66:5d:5f:2f:0e:67:7f:ac:
         27:cf:93:59:c3:89:39:ca
-----BEGIN CERTIFICATE-----
MIIGSDCCBDCgAwIBAgIQCRzw7wO+Q/pg5k5IOJLxQDANBgkqhkiG9w0BAQsFADAw
MQswCQYDVQQGEwJFUzEPMA0GA1UECgwGVGVsZWNvMRAwDgYDVQQDDAdSb290IENB
MB4XDTIzMDQwNDE1MDEyOVoXDTMzMDQwMTE1MDEyOVowMjELMAkGA1UEBhMCRVMx
DzANBgNVBAoMBlRlbGVjbzESMBAGA1UEAwwJU2VydmVyIENBMIICIjANBgkqhkiG
9w0BAQEFAAOCAg8AMIICCgKCAgEAwTbukesDWwkffMFzXWD7kWjNkt6JoL8gb4Rd
UH/p1BQ4vhHxVZbmbH3GfGTehQ+FXMy8elbgs3cLLK3E8bnrsd4EpRFOwqYJlMnq
t5A9Qy4puw3tHSXfGpI96bnPjhmJMrY/UrRDu8eeGDLWjZlcNAYCDy4XaQ99SDYY
7cQoRkHlJVM/FXSdUm8IY2+goMSpnjvYXthaFI1sQBDGjZ/C36n+CMhLNO64NkZu
+9rjZo7TXyD3KGYgJlHSbckObNp3ZpqfmncwhkmwTfqv1V0pAsXNR4Rkfpa1OrpR
focKcF5rvvnpNIKIVuTeEYO59JBc3U514WBVsopzn5OsOtiCZfHYwemygyWiyT00
k6Pn77M7mBsRvZZbu8NJfiCHbz+Xleo0HkAFsmtNn9gbBMNi1OzWucl6L8tyUKxO
xAywwFptXfalsdZhrDBUO4KBP1KRipyJ/tVbzswWQFa6FCr3lyXnIgBZOIMRzbWC
WBMl3nqHpJrmCU2nbhF6RSLmv+mAZk4kAX88zV+xm69VdWpgi0F5ZnFxlwEYvtFQ
R5zmtASQ0vHlt79ttZ0Ku7NplVIoknjYjRW81bXzYYatju1s3486nQ7Ya07FLjdy
jcrKJtOu+168/sjdTSXu48d5TbNx16NFHxxWVgh44PTSZHHFJUdQMc5oW3+T9q8g
apsjuuUCAwEAAaOCAVowggFWMDIGCCsGAQUFBwEBBCYwJDAiBggrBgEFBQcwAYYW
aHR0cDovL2xvY2FsaG9zdDo5MDgwLzAfBgNVHSMEGDAWgBT/SeLkuKEh8XpqGrZa
QMDj59bWXjASBgNVHRMBAf8ECDAGAQH/AgEAMDYGA1UdHwQvMC0wK6ApoCeGJWh0
dHA6Ly9yb290LWNhLlRlbGVjby5jb20vcm9vdC1jYS5jcmwwJwYDVR0lBCAwHgYI
KwYBBQUHAwIGCCsGAQUFBwMBBggrBgEFBQcDCTAOBgNVHQ8BAf8EBAMCAQYwWwYD
VR0eBFQwUqAeMA2CC2V4YW1wbGUuY29tMA2CC2V4YW1wbGUub3JnoTAwCocIAAAA
AAAAAAAwIocgAAAAAAAAAAAAAAAAAAAAAAAAAAAAAAAAAAAAAAAAAAAwHQYDVR0O
BBYEFNAPA2NVWpaU2vqOsTnD8qXiGzfrMA0GCSqGSIb3DQEBCwUAA4ICAQBLtkJ2
bssgOkkkCywQmFeYG/utb2uOc0ZUk6YVtSM2QvF0Hls4O4Vi0goQm+25EuIOYp+H
3DqMlVRBiDakYQyesw02/BvUtB/LWE1RgAByMKiNctpG0u5Y5p7TCta0iayLkcuG
xHveEznXXSRQoujXXmLbJX/7CXmp8U5MmgNYIdzXgdnPOeRcMVfMvxNzjKgenOcr
u1+h0hGR9nRjFJQdfyI+xMywO/EvSF2beDz17lfp3N+l2S2HL/19jt3qMJoXcAld
fLX1/Hdqe5BhzXQ+/IeWKEYfibQde2Coxv+RcioZtzG+xjDBijbLZ6qovfndMuHd
m7FExpwTzErvaMZZUW1Tja+aCKHK5qnRiLQQnAaEzr1u5xE4VIrxaJDKdv897MCQ
5Ga/GEvHMcui/E5patAcsQDGoQx5/wHROKemZ3BXeYTadv6K0ODfitujb7oVRP3Y
KsV6QOgG8u611Qd2dOo0G/AoYYbVJWZNL0MrBbdOfdlKuLLHsz0H44Bgeaq+KFld
3oNL04cqUTKBz52wjR9DKnhPTzf9A+sAa7jGV4l3nnlPXbDDT39MEYKrSf0kB9od
GbApDO3bFJfzmeX5Z4VcGevAQBPl81xd/sgopJJmUyBcyQlMTdk6mf9hcHbff7ly
z2evnRNk2PBBRk2rZl1fLw5nf6wnz5NZw4k5yg==
-----END CERTIFICATE-----
