Certificate:
    Data:
        Version: 3 (0x2)
        Serial Number:
            09:1c:f0:ef:03:be:43:fa:60:e6:4e:48:38:92:f1:2f
        Signature Algorithm: sha256WithRSAEncryption
        Issuer: C=ES, O=Teleco, CN=Root CA
        Validity
            Not Before: Apr  3 13:52:35 2023 GMT
            Not After : Mar 31 13:52:35 2033 GMT
        Subject: C=ES, O=Teleco, CN=Client CA
        Subject Public Key Info:
            Public Key Algorithm: rsaEncryption
                RSA Public-Key: (4096 bit)
                Modulus:
                    00:b9:04:6d:9a:1f:34:80:fe:e4:37:cd:6a:cc:ff:
                    eb:13:05:f7:40:8e:46:45:78:a9:cb:3c:cb:ff:97:
                    8b:e5:e3:1c:1c:8d:11:ca:fe:52:59:be:46:a4:d8:
                    67:e3:a7:47:f4:cf:c7:82:2a:80:b5:4e:d2:b6:c6:
                    07:b0:fd:32:d2:67:1c:dd:86:c4:9a:61:91:2b:0e:
                    85:ad:21:24:c2:52:8a:9a:7b:c9:b2:89:7a:63:71:
                    f5:9b:ab:8d:a2:ce:b8:f7:4a:10:aa:0e:4d:51:be:
                    22:9a:c1:77:97:6c:e0:3c:60:1e:4b:7c:25:f5:43:
                    27:77:5b:4a:20:64:16:c2:d7:51:83:99:08:7c:51:
                    63:50:89:64:ce:52:02:cd:94:80:c6:92:72:71:7f:
                    b6:54:cd:57:d4:2e:d3:62:78:b6:0a:90:da:12:e4:
                    b0:d1:67:94:f1:6c:ab:41:2f:67:cf:d7:51:79:f9:
                    3b:04:aa:36:d5:3f:25:5a:44:8a:18:c0:e8:1a:e4:
                    4b:b3:6f:cd:1a:2c:40:89:0f:f5:ac:2e:33:07:db:
                    a2:59:a1:9b:05:c2:73:ac:ae:54:b6:d9:90:09:d4:
                    a0:c6:d6:c4:6b:3d:27:22:d2:ee:52:a9:46:cc:6b:
                    be:e8:85:4f:b9:16:7d:24:b7:fe:21:b5:c7:f7:74:
                    8e:54:f0:a0:a2:9b:4a:ad:cb:80:07:14:f6:87:28:
                    5a:c1:de:58:ba:11:b5:e0:0b:2a:a6:22:78:87:de:
                    99:4c:cb:c2:07:94:68:fa:c0:67:f6:08:29:ae:eb:
                    10:2c:43:98:83:8c:a0:50:02:99:91:b7:aa:2f:4d:
                    11:0a:03:c5:db:58:6d:53:07:46:e6:df:e1:ef:d3:
                    3f:9d:97:19:28:83:fd:df:d4:6e:b5:8a:71:e2:2c:
                    c2:23:71:9e:25:01:b1:e1:08:b2:c0:d1:72:b6:df:
                    1f:be:ca:fd:78:19:0a:6e:48:ba:a8:e6:b3:bc:b2:
                    f8:34:7e:68:56:92:de:8e:c0:1d:3c:92:5c:c5:81:
                    27:e0:31:7a:5a:2c:ae:40:a7:94:d1:3f:35:8b:84:
                    97:4d:c5:96:d5:0c:ca:74:cf:da:ef:8f:f8:9d:ec:
                    e3:fe:f2:e2:5d:75:e6:68:c5:da:e6:07:c8:1d:52:
                    9d:ba:be:66:3b:dc:e8:b8:a2:95:d3:44:d2:c6:5f:
                    66:87:63:47:60:34:4a:fd:33:73:51:d0:8b:0d:d5:
                    68:48:9d:56:16:76:26:dc:d7:b3:18:e5:6f:fe:0a:
                    90:9f:db:60:4e:70:da:e6:0e:a9:6f:63:00:20:81:
                    3c:e7:50:a6:df:a6:86:7a:c0:1c:fb:65:05:dd:9b:
                    df:01:6d
                Exponent: 65537 (0x10001)
        X509v3 extensions:
            Authority Information Access: 
                OCSP - URI:http://localhost:9080/

            X509v3 Authority Key Identifier: 
                keyid:8A:F1:16:09:2A:B1:57:D6:A1:B9:1E:BA:5F:5F:E6:81:DA:98:B4:F9

            X509v3 Basic Constraints: critical
                CA:TRUE, pathlen:0
            X509v3 CRL Distribution Points: 

                Full Name:
                  URI:http://root-ca.Teleco.com/root-ca.crl

            X509v3 Extended Key Usage: 
                TLS Web Client Authentication, TLS Web Server Authentication
            X509v3 Key Usage: critical
                Certificate Sign, CRL Sign
            X509v3 Name Constraints: 
                Permitted:
                  DNS:example.com
                  DNS:example.org
                Excluded:
                  IP:0.0.0.0/0.0.0.0
                  IP:0:0:0:0:0:0:0:0/0:0:0:0:0:0:0:0

            X509v3 Subject Key Identifier: 
                A8:1E:B0:08:FA:78:16:58:07:66:6F:98:0B:8E:00:06:D1:7D:07:0D
    Signature Algorithm: sha256WithRSAEncryption
         b2:cb:fb:0b:79:e8:1f:00:95:79:2f:19:0d:93:88:25:b1:8c:
         ba:db:c6:00:f9:95:3a:94:05:df:85:81:1d:a3:fd:0b:7e:f2:
         90:b7:da:26:59:4b:cd:a6:97:0e:23:df:f2:c8:c6:ba:19:74:
         5a:79:f0:6d:6f:62:ec:e4:49:0e:e0:55:1e:ac:93:d9:4a:a3:
         bf:42:4e:9c:0d:c6:49:65:46:15:25:7d:15:0f:bd:bc:18:29:
         1e:0d:f8:ce:dd:61:a2:c4:96:95:76:c9:35:40:91:65:a8:4d:
         8c:9f:64:c6:c8:f9:c1:41:8c:81:fb:8e:67:9d:66:b4:bf:99:
         d6:80:81:15:28:3a:a5:d0:c1:d8:48:bf:8b:cc:23:55:1e:68:
         9f:a6:bb:f9:d3:f6:d1:47:71:78:2b:38:9c:41:2c:4b:c5:bf:
         4b:e8:29:5b:22:80:8a:3c:fe:e3:82:dd:7a:66:57:64:f4:99:
         cb:f1:94:7e:0a:06:25:24:2a:b7:fb:87:f8:f4:4c:35:ac:1f:
         06:b8:19:51:ad:63:42:69:4e:d3:fd:56:bf:e9:44:dc:cf:f5:
         68:b1:d4:38:4e:bb:dd:a1:be:53:41:ed:c3:f4:ec:76:46:fd:
         b8:d4:86:71:60:0e:25:52:3c:72:b8:77:df:00:eb:11:6a:ac:
         19:50:f2:23:29:15:02:79:63:df:aa:15:cd:0b:41:d6:2b:45:
         a6:da:d7:e3:f2:0d:1e:9d:96:0c:49:84:5e:43:3b:3b:02:83:
         6e:03:68:6b:74:ff:df:56:50:8a:34:11:fc:13:3c:0e:ee:21:
         34:bf:17:37:66:38:70:52:ee:e3:9e:39:8d:ad:83:9a:fe:58:
         8e:71:62:e1:53:1d:ee:fc:1e:00:7a:78:0a:2a:5f:bf:8b:b7:
         f4:79:62:be:a1:ae:90:30:f6:c5:97:6e:b8:2c:1e:bf:2b:f2:
         1a:17:85:20:73:26:60:f9:0d:68:c1:c7:27:f5:56:bd:bf:70:
         5c:4b:c5:a1:53:93:61:52:51:91:5e:c3:cc:13:81:a3:e9:df:
         b5:50:57:5d:29:9d:34:4f:44:e5:ce:c4:b6:4b:e4:2b:70:a0:
         ca:64:a4:8f:1b:13:67:86:66:cb:aa:11:05:d9:15:b9:fd:01:
         0b:da:4a:43:d0:6d:e3:9b:55:6a:32:23:3c:ec:67:ed:68:14:
         8d:8b:c1:e0:ac:b5:07:cc:99:34:53:0d:4e:51:1e:93:e3:97:
         60:23:71:2f:5a:f0:9c:98:86:49:05:ff:eb:9e:d8:e3:81:1e:
         97:05:bb:a2:0e:ab:0b:b3:ff:9b:1c:9c:a8:a8:b0:7a:a0:c3:
         30:17:8b:f1:5b:13:b1:f7
-----BEGIN CERTIFICATE-----
MIIGPjCCBCagAwIBAgIQCRzw7wO+Q/pg5k5IOJLxLzANBgkqhkiG9w0BAQsFADAw
MQswCQYDVQQGEwJFUzEPMA0GA1UECgwGVGVsZWNvMRAwDgYDVQQDDAdSb290IENB
MB4XDTIzMDQwMzEzNTIzNVoXDTMzMDMzMTEzNTIzNVowMjELMAkGA1UEBhMCRVMx
DzANBgNVBAoMBlRlbGVjbzESMBAGA1UEAwwJQ2xpZW50IENBMIICIjANBgkqhkiG
9w0BAQEFAAOCAg8AMIICCgKCAgEAuQRtmh80gP7kN81qzP/rEwX3QI5GRXipyzzL
/5eL5eMcHI0Ryv5SWb5GpNhn46dH9M/HgiqAtU7StsYHsP0y0mcc3YbEmmGRKw6F
rSEkwlKKmnvJsol6Y3H1m6uNos6490oQqg5NUb4imsF3l2zgPGAeS3wl9UMnd1tK
IGQWwtdRg5kIfFFjUIlkzlICzZSAxpJycX+2VM1X1C7TYni2CpDaEuSw0WeU8Wyr
QS9nz9dRefk7BKo21T8lWkSKGMDoGuRLs2/NGixAiQ/1rC4zB9uiWaGbBcJzrK5U
ttmQCdSgxtbEaz0nItLuUqlGzGu+6IVPuRZ9JLf+IbXH93SOVPCgoptKrcuABxT2
hyhawd5YuhG14AsqpiJ4h96ZTMvCB5Ro+sBn9ggprusQLEOYg4ygUAKZkbeqL00R
CgPF21htUwdG5t/h79M/nZcZKIP939RutYpx4izCI3GeJQGx4QiywNFytt8fvsr9
eBkKbki6qOazvLL4NH5oVpLejsAdPJJcxYEn4DF6WiyuQKeU0T81i4SXTcWW1QzK
dM/a74/4nezj/vLiXXXmaMXa5gfIHVKdur5mO9zouKKV00TSxl9mh2NHYDRK/TNz
UdCLDdVoSJ1WFnYm3NezGOVv/gqQn9tgTnDa5g6pb2MAIIE851Cm36aGesAc+2UF
3ZvfAW0CAwEAAaOCAVAwggFMMDIGCCsGAQUFBwEBBCYwJDAiBggrBgEFBQcwAYYW
aHR0cDovL2xvY2FsaG9zdDo5MDgwLzAfBgNVHSMEGDAWgBSK8RYJKrFX1qG5Hrpf
X+aB2pi0+TASBgNVHRMBAf8ECDAGAQH/AgEAMDYGA1UdHwQvMC0wK6ApoCeGJWh0
dHA6Ly9yb290LWNhLlRlbGVjby5jb20vcm9vdC1jYS5jcmwwHQYDVR0lBBYwFAYI
KwYBBQUHAwIGCCsGAQUFBwMBMA4GA1UdDwEB/wQEAwIBBjBbBgNVHR4EVDBSoB4w
DYILZXhhbXBsZS5jb20wDYILZXhhbXBsZS5vcmehMDAKhwgAAAAAAAAAADAihyAA
AAAAAAAAAAAAAAAAAAAAAAAAAAAAAAAAAAAAAAAAADAdBgNVHQ4EFgQUqB6wCPp4
FlgHZm+YC44ABtF9Bw0wDQYJKoZIhvcNAQELBQADggIBALLL+wt56B8AlXkvGQ2T
iCWxjLrbxgD5lTqUBd+FgR2j/Qt+8pC32iZZS82mlw4j3/LIxroZdFp58G1vYuzk
SQ7gVR6sk9lKo79CTpwNxkllRhUlfRUPvbwYKR4N+M7dYaLElpV2yTVAkWWoTYyf
ZMbI+cFBjIH7jmedZrS/mdaAgRUoOqXQwdhIv4vMI1UeaJ+mu/nT9tFHcXgrOJxB
LEvFv0voKVsigIo8/uOC3XpmV2T0mcvxlH4KBiUkKrf7h/j0TDWsHwa4GVGtY0Jp
TtP9Vr/pRNzP9Wix1DhOu92hvlNB7cP07HZG/bjUhnFgDiVSPHK4d98A6xFqrBlQ
8iMpFQJ5Y9+qFc0LQdYrRaba1+PyDR6dlgxJhF5DOzsCg24DaGt0/99WUIo0EfwT
PA7uITS/FzdmOHBS7uOeOY2tg5r+WI5xYuFTHe78HgB6eAoqX7+Lt/R5Yr6hrpAw
9sWXbrgsHr8r8hoXhSBzJmD5DWjBxyf1Vr2/cFxLxaFTk2FSUZFew8wTgaPp37VQ
V10pnTRPROXOxLZL5CtwoMpkpI8bE2eGZsuqEQXZFbn9AQvaSkPQbeObVWoyIzzs
Z+1oFI2LweCstQfMmTRTDU5RHpPjl2AjcS9a8JyYhkkF/+ue2OOBHpcFu6IOqwuz
/5scnKiosHqgwzAXi/FbE7H3
-----END CERTIFICATE-----
