Certificate:
    Data:
        Version: 3 (0x2)
        Serial Number:
            09:1c:f0:ef:03:be:43:fa:60:e6:4e:48:38:92:f1:4c
        Signature Algorithm: sha256WithRSAEncryption
        Issuer: C=ES, O=Teleco, CN=Root CA
        Validity
            Not Before: Apr  5 16:19:42 2023 GMT
            Not After : Apr  2 16:19:42 2033 GMT
        Subject: C=ES, O=Teleco, CN=clienttls13
        Subject Public Key Info:
            Public Key Algorithm: rsaEncryption
                RSA Public-Key: (1512 bit)
                Modulus:
                    00:bd:45:e1:34:e1:82:3a:29:4b:73:8c:a3:1b:aa:
                    66:01:db:b5:84:a2:2d:37:49:15:6c:23:ad:5f:44:
                    bd:62:be:35:04:09:54:8a:f0:50:01:b1:30:04:38:
                    fc:ae:cd:e7:bf:93:78:88:70:0e:49:06:c5:36:de:
                    f7:7e:0d:1e:bd:12:d8:a9:4e:19:95:4f:6d:41:be:
                    6d:82:a4:53:d3:ca:95:34:81:40:dd:1c:11:1d:09:
                    d7:e6:25:87:a7:b9:1e:3c:7d:ca:8d:1a:e4:c7:e5:
                    80:34:a9:43:3f:79:82:c9:2b:6c:37:50:a1:fd:00:
                    52:58:ff:de:d5:2c:5c:c7:0a:59:2d:58:57:4f:73:
                    17:53:59:7b:9c:b8:1c:82:41:a4:55:fc:99:a4:02:
                    b7:fe:f3:22:7d:9b:38:81:df:09:b0:42:20:c7:0d:
                    4e:21:b3:bf:91:61:3f:e6:84:42:f0:56:e6:bf:1b:
                    c3:3f:f9:78:8c:48:3f:d5:bf:d1
                Exponent: 65537 (0x10001)
        X509v3 extensions:
            Authority Information Access: 
                CA Issuers - URI:http://root-ca.Teleco.com/root-ca.crt
                OCSP - URI:http://ocsp.root-ca.Teleco.com:9080

            X509v3 Authority Key Identifier: 
                keyid:4F:5C:C0:E0:D3:03:4E:BD:A5:8D:EB:EA:23:DD:29:41:92:E9:2E:AB

            X509v3 Basic Constraints: critical
                CA:FALSE
            X509v3 CRL Distribution Points: 

                Full Name:
                  URI:http://root-ca.Teleco.com/root-ca.crl

            X509v3 Extended Key Usage: 
                TLS Web Client Authentication
            X509v3 Key Usage: critical
                Digital Signature
            X509v3 Subject Key Identifier: 
                80:F8:D6:63:4B:03:9B:3B:53:0A:F9:1C:0E:8A:D5:D8:4F:27:72:AB
    Signature Algorithm: sha256WithRSAEncryption
         79:92:72:e7:b8:ca:bf:11:f1:3c:61:0c:f4:a0:ce:d2:f9:77:
         1c:1f:24:66:c5:7b:33:b3:c1:3f:de:9d:4b:8e:88:90:4c:88:
         48:e3:7b:f0:9f:cc:8c:73:8b:c8:f7:ea:c2:7f:48:f2:f5:ea:
         3b:58:2c:0e:e0:b6:b4:a9:cb:4d:3a:72:65:69:12:3d:c3:fc:
         9e:64:de:aa:08:3b:33:6c:74:8c:6a:dd:a6:c7:47:b6:f0:7c:
         77:1e:b2:45:20:f3:68:97:79:f6:fb:61:5d:ad:35:f0:e0:07:
         8f:b8:2e:c2:e0:ec:13:8a:02:fa:4a:f0:4f:3f:c5:01:70:ad:
         15:ae:fd:6e:e6:80:2a:ab:d4:f0:b6:39:d3:7a:15:e2:32:97:
         19:25:14:35:df:59:83:69:26:b4:04:c7:a0:b0:a0:da:d8:19:
         2e:e5:00:c6:09:1f:c9:c4:41:72:10:20:bf:76:58:c8:59:1a:
         06:41:2d:fc:97:2e:db:ea:99:e9:79:20:75:42:eb:81:4c:3e:
         c8:a2:eb:91:25:ef:6b:bc:83:4a:c6:73:36:9f:9a:ea:f9:e1:
         0d:1d:e7:b8:76:ad:67:e9:c8:70:a9:61:2d:32:26:21:c0:76:
         90:28:e7:96:13:7a:79:87:57:c0:70:f5:36:27:5e:cf:39:29:
         4b:6b:fa:79:d0:57:31:d0:c8:b4:ab:b4:65:f3:83:4f:72:15:
         b5:1c:62:bb:5e:a1:18:ef:d6:2e:b5:d5:19:99:13:b9:aa:71:
         92:29:2a:ab:a8:af:cf:6c:16:24:a3:8d:b7:a6:35:27:c7:0b:
         c4:67:b3:49:35:5d:db:9d:e2:85:0d:69:9c:09:3a:69:bb:c9:
         ff:7f:70:0a:44:c3:c4:e2:fd:88:1e:5c:1b:b9:96:cb:e6:39:
         d3:e6:98:54:dc:03:f7:2b:10:f9:17:f9:85:e4:9f:e5:90:f8:
         c4:6a:0b:00:cf:0a:d7:d1:e3:e5:4a:76:dc:da:88:68:eb:ca:
         90:be:a0:b6:ca:b1:74:4c:dd:12:88:bd:b5:58:9a:04:21:80:
         0d:99:16:a4:af:e7:f1:1b:43:68:30:16:7f:ff:fb:1f:a0:c3:
         b8:ed:7b:92:33:04:01:e4:9d:50:29:ce:bc:a9:94:79:c5:3c:
         58:8d:54:40:c1:4d:3b:6a:00:11:4a:07:eb:a6:0d:6b:76:a5:
         47:36:02:42:90:2e:fe:50:2a:6c:06:d6:53:98:50:b5:34:c1:
         6a:79:3d:f4:5f:9b:d1:ff:b9:86:77:07:cc:0d:19:43:00:7f:
         6d:09:86:8b:b1:4e:5a:c5:3a:cb:be:d0:00:ae:e1:5d:1f:a2:
         33:e1:f2:47:b7:00:8b:9e
-----BEGIN CERTIFICATE-----
MIIEzDCCArSgAwIBAgIQCRzw7wO+Q/pg5k5IOJLxTDANBgkqhkiG9w0BAQsFADAw
MQswCQYDVQQGEwJFUzEPMA0GA1UECgwGVGVsZWNvMRAwDgYDVQQDDAdSb290IENB
MB4XDTIzMDQwNTE2MTk0MloXDTMzMDQwMjE2MTk0MlowNDELMAkGA1UEBhMCRVMx
DzANBgNVBAoMBlRlbGVjbzEUMBIGA1UEAwwLY2xpZW50dGxzMTMwgdwwDQYJKoZI
hvcNAQEBBQADgcoAMIHGAoG+AL1F4TThgjopS3OMoxuqZgHbtYSiLTdJFWwjrV9E
vWK+NQQJVIrwUAGxMAQ4/K7N57+TeIhwDkkGxTbe934NHr0S2KlOGZVPbUG+bYKk
U9PKlTSBQN0cER0J1+Ylh6e5Hjx9yo0a5MflgDSpQz95gskrbDdQof0AUlj/3tUs
XMcKWS1YV09zF1NZe5y4HIJBpFX8maQCt/7zIn2bOIHfCbBCIMcNTiGzv5FhP+aE
QvBW5r8bwz/5eIxIP9W/0QIDAQABo4IBIzCCAR8wcgYIKwYBBQUHAQEEZjBkMDEG
CCsGAQUFBzAChiVodHRwOi8vcm9vdC1jYS5UZWxlY28uY29tL3Jvb3QtY2EuY3J0
MC8GCCsGAQUFBzABhiNodHRwOi8vb2NzcC5yb290LWNhLlRlbGVjby5jb206OTA4
MDAfBgNVHSMEGDAWgBRPXMDg0wNOvaWN6+oj3SlBkukuqzAMBgNVHRMBAf8EAjAA
MDYGA1UdHwQvMC0wK6ApoCeGJWh0dHA6Ly9yb290LWNhLlRlbGVjby5jb20vcm9v
dC1jYS5jcmwwEwYDVR0lBAwwCgYIKwYBBQUHAwIwDgYDVR0PAQH/BAQDAgeAMB0G
A1UdDgQWBBSA+NZjSwObO1MK+RwOitXYTydyqzANBgkqhkiG9w0BAQsFAAOCAgEA
eZJy57jKvxHxPGEM9KDO0vl3HB8kZsV7M7PBP96dS46IkEyISON78J/MjHOLyPfq
wn9I8vXqO1gsDuC2tKnLTTpyZWkSPcP8nmTeqgg7M2x0jGrdpsdHtvB8dx6yRSDz
aJd59vthXa018OAHj7guwuDsE4oC+krwTz/FAXCtFa79buaAKqvU8LY503oV4jKX
GSUUNd9Zg2kmtATHoLCg2tgZLuUAxgkfycRBchAgv3ZYyFkaBkEt/Jcu2+qZ6Xkg
dULrgUw+yKLrkSXva7yDSsZzNp+a6vnhDR3nuHatZ+nIcKlhLTImIcB2kCjnlhN6
eYdXwHD1NidezzkpS2v6edBXMdDItKu0ZfODT3IVtRxiu16hGO/WLrXVGZkTuapx
kikqq6ivz2wWJKONt6Y1J8cLxGezSTVd253ihQ1pnAk6abvJ/39wCkTDxOL9iB5c
G7mWy+Y50+aYVNwD9ysQ+Rf5heSf5ZD4xGoLAM8K19Hj5Up23NqIaOvKkL6gtsqx
dEzdEoi9tViaBCGADZkWpK/n8RtDaDAWf//7H6DDuO17kjMEAeSdUCnOvKmUecU8
WI1UQMFNO2oAEUoH66YNa3alRzYCQpAu/lAqbAbWU5hQtTTBank99F+b0f+5hncH
zA0ZQwB/bQmGi7FOWsU6y77QAK7hXR+iM+HyR7cAi54=
-----END CERTIFICATE-----
