Certificate:
    Data:
        Version: 3 (0x2)
        Serial Number:
            09:1c:f0:ef:03:be:43:fa:60:e6:4e:48:38:92:f1:46
        Signature Algorithm: sha256WithRSAEncryption
        Issuer: C=ES, O=Teleco, CN=Root CA
        Validity
            Not Before: Apr  5 09:31:44 2023 GMT
            Not After : Apr  2 09:31:44 2033 GMT
        Subject: C=ES, O=Teleco, CN=Client CA
        Subject Public Key Info:
            Public Key Algorithm: rsaEncryption
                RSA Public-Key: (4096 bit)
                Modulus:
                    00:c3:b3:f7:c7:d7:d1:67:e2:e0:8b:49:66:72:51:
                    33:9b:c8:28:f0:25:78:39:7e:64:d5:cc:48:7f:5c:
                    2a:f0:e7:49:a0:bc:d6:86:59:16:8d:86:43:ca:0b:
                    fb:9b:a4:10:6e:8d:de:96:91:12:54:fc:da:58:af:
                    a8:62:b2:60:8c:39:9e:d6:36:bd:28:54:c1:b4:df:
                    df:31:82:f0:2f:be:47:11:96:9e:54:a8:15:fd:5d:
                    34:e1:fa:70:98:b4:bb:d7:7b:a6:4f:dd:3a:4c:c7:
                    3c:de:eb:7d:1e:1f:d8:cd:03:f5:de:df:6d:26:9d:
                    f6:24:59:6f:ae:bc:ec:5c:9a:3d:55:d3:11:5c:e5:
                    ae:b2:5d:c7:5d:fb:fc:52:a1:a5:f6:7f:6f:5f:5f:
                    4b:ab:3a:fc:de:0a:11:91:f1:67:81:85:5e:ad:19:
                    34:e7:1d:12:b8:4c:cf:43:fd:98:89:d6:b9:29:28:
                    5c:b6:6a:bc:cc:2b:8b:cc:cb:fa:b8:1d:f0:43:3e:
                    4d:e5:d4:59:3e:52:c0:de:39:bc:37:d6:2a:ec:56:
                    18:15:e8:39:d9:10:8f:a9:38:39:4b:93:45:e7:57:
                    b9:69:98:14:cb:8a:f8:0e:3a:dc:e7:3b:ea:f6:92:
                    1f:6d:4d:54:ac:b3:b6:50:bb:e3:22:ff:f5:87:12:
                    da:80:59:2d:58:88:0c:f6:62:15:28:fb:5e:ce:16:
                    05:a6:90:06:77:b6:71:05:15:ff:83:92:76:22:71:
                    4e:66:40:9c:4e:01:8c:a5:d2:b3:f8:80:a5:25:a3:
                    8c:34:69:24:d9:c1:67:59:8e:b1:71:8a:71:f7:73:
                    b6:06:c4:73:26:8c:89:2e:b6:0c:c6:59:6b:50:03:
                    a6:34:b0:6f:ec:78:66:09:de:0a:a8:ff:f2:23:e9:
                    e7:86:54:30:84:1c:53:04:7a:15:5a:64:18:64:9a:
                    aa:cf:d6:a8:86:04:cf:b0:61:a6:4f:44:3e:2c:a9:
                    5c:d2:02:3b:d6:6a:eb:d3:f4:0b:e0:0c:8a:23:9d:
                    35:d6:17:6b:1b:51:e8:27:76:64:b0:e1:06:dc:5e:
                    e3:bd:a3:8d:cd:17:7a:1f:d3:9b:87:26:58:5c:3b:
                    aa:a6:e5:4e:36:53:48:b1:f6:5f:21:6d:08:0a:d1:
                    07:c5:79:9c:61:5b:7e:72:0f:36:c3:cd:3a:22:21:
                    4a:2c:87:0f:5e:83:9d:9a:a7:e2:36:b8:37:8f:49:
                    8c:c3:95:94:b2:bb:cd:d2:b4:40:a6:40:4a:f1:7d:
                    2c:5e:e9:6a:29:fe:9c:44:91:d1:8e:23:3e:ba:5e:
                    be:ed:6d:25:4e:76:c1:b0:ed:fb:77:bd:4e:4d:0d:
                    f4:e6:37
                Exponent: 65537 (0x10001)
        X509v3 extensions:
            Authority Information Access: 
                CA Issuers - URI:http://root-ca.Teleco.com/root-ca.crt
                OCSP - URI:http://ocsp.root-ca.Teleco.com:9080

            X509v3 Authority Key Identifier: 
                keyid:4F:5C:C0:E0:D3:03:4E:BD:A5:8D:EB:EA:23:DD:29:41:92:E9:2E:AB

            X509v3 Basic Constraints: critical
                CA:TRUE, pathlen:0
            X509v3 CRL Distribution Points: 

                Full Name:
                  URI:http://root-ca.Teleco.com/root-ca.crl

            X509v3 Extended Key Usage: 
                TLS Web Client Authentication, TLS Web Server Authentication
            X509v3 Key Usage: critical
                Certificate Sign, CRL Sign
            X509v3 Name Constraints: 
                Permitted:
                  DNS:example.com
                  DNS:example.org
                Excluded:
                  IP:0.0.0.0/0.0.0.0
                  IP:0:0:0:0:0:0:0:0/0:0:0:0:0:0:0:0

            X509v3 Subject Key Identifier: 
                C5:B9:02:08:1D:71:AC:E6:DB:74:A3:24:CF:DE:A2:2E:F7:1A:10:E5
    Signature Algorithm: sha256WithRSAEncryption
         35:9d:8e:e9:38:56:a8:52:19:f5:1d:fc:21:ef:37:2e:97:e1:
         a0:c6:e4:b3:c2:f3:92:13:0d:76:95:96:0c:39:d5:58:ce:a4:
         c6:cc:c7:e1:67:67:e9:9e:3d:64:e8:b4:5e:30:45:63:82:44:
         a2:7d:d5:a7:b3:96:db:cf:5b:8b:6f:98:b3:6f:0d:31:e6:31:
         2e:c7:84:4c:fd:90:85:7a:7c:6c:c5:da:35:99:1b:3e:c4:21:
         d9:67:32:c5:ea:32:c6:7b:46:5d:6b:01:3f:d9:15:14:b5:44:
         43:99:36:33:02:c8:e9:1d:8e:5a:e9:85:22:b3:1d:09:a0:04:
         90:44:94:82:6d:48:62:f7:37:76:c6:a9:48:1c:19:b1:3a:2d:
         66:4e:1b:a8:b4:60:f8:20:0e:1d:03:cf:f8:c3:be:50:c8:b1:
         d6:b0:fd:8a:0e:65:2a:78:5a:65:13:b5:a1:ef:c8:b8:df:98:
         cd:d9:4b:7d:12:0f:6b:88:b2:4a:8e:3c:ec:90:8d:ba:17:1e:
         5f:68:42:c0:92:d4:36:f8:28:88:ae:e3:1e:58:9a:30:55:c7:
         b5:f0:b6:13:1d:e7:e9:82:b7:f1:89:b9:7c:28:75:f6:db:0a:
         d0:58:0b:f2:ac:bd:68:38:5f:e0:18:6d:d1:fe:63:99:ae:27:
         e0:f4:f7:cb:88:5b:a4:c3:b3:8b:7a:f7:4b:c0:54:7c:4c:ba:
         98:e6:f7:60:65:b6:f9:da:3c:c6:a4:60:f3:27:78:6a:01:2a:
         37:da:c3:25:db:a7:74:ff:77:ce:e9:d2:e1:c2:53:13:c4:e2:
         23:50:1d:77:27:4c:3f:dd:27:22:92:89:7c:3c:21:56:22:48:
         8d:70:8d:c4:8d:a3:1d:ad:55:d5:78:f9:ae:46:4d:0e:43:0d:
         d4:a4:4b:47:6d:a1:d7:1f:f2:af:b8:2b:0c:aa:08:af:d1:35:
         33:a9:a7:bc:52:99:25:64:de:3c:2d:38:82:36:86:9a:c6:8b:
         c4:89:65:99:10:86:a4:a3:32:fd:e5:b4:8c:a4:30:e3:c9:d0:
         e0:3b:df:d8:85:57:27:0b:b9:9c:9c:cb:fa:cf:a5:98:86:92:
         1f:2e:29:62:41:84:a4:fa:c6:f5:d5:e6:28:58:74:db:68:d0:
         74:f5:54:0e:e1:30:e3:1c:d8:1e:79:76:0b:ee:09:ca:9c:16:
         ee:f8:83:bc:19:86:34:5f:88:31:fa:cb:81:83:1f:e7:06:58:
         ae:96:3d:1c:b4:07:b7:c7:d7:b2:b8:83:fe:79:24:52:a8:a6:
         34:d9:f3:aa:f7:d0:0f:21:b7:9e:47:3b:cd:67:a2:e8:9f:b2:
         a3:cd:9e:c0:55:49:ce:45
-----BEGIN CERTIFICATE-----
MIIGfjCCBGagAwIBAgIQCRzw7wO+Q/pg5k5IOJLxRjANBgkqhkiG9w0BAQsFADAw
MQswCQYDVQQGEwJFUzEPMA0GA1UECgwGVGVsZWNvMRAwDgYDVQQDDAdSb290IENB
MB4XDTIzMDQwNTA5MzE0NFoXDTMzMDQwMjA5MzE0NFowMjELMAkGA1UEBhMCRVMx
DzANBgNVBAoMBlRlbGVjbzESMBAGA1UEAwwJQ2xpZW50IENBMIICIjANBgkqhkiG
9w0BAQEFAAOCAg8AMIICCgKCAgEAw7P3x9fRZ+Lgi0lmclEzm8go8CV4OX5k1cxI
f1wq8OdJoLzWhlkWjYZDygv7m6QQbo3elpESVPzaWK+oYrJgjDme1ja9KFTBtN/f
MYLwL75HEZaeVKgV/V004fpwmLS713umT906TMc83ut9Hh/YzQP13t9tJp32JFlv
rrzsXJo9VdMRXOWusl3HXfv8UqGl9n9vX19Lqzr83goRkfFngYVerRk05x0SuEzP
Q/2Yida5KShctmq8zCuLzMv6uB3wQz5N5dRZPlLA3jm8N9Yq7FYYFeg52RCPqTg5
S5NF51e5aZgUy4r4Djrc5zvq9pIfbU1UrLO2ULvjIv/1hxLagFktWIgM9mIVKPte
zhYFppAGd7ZxBRX/g5J2InFOZkCcTgGMpdKz+IClJaOMNGkk2cFnWY6xcYpx93O2
BsRzJoyJLrYMxllrUAOmNLBv7HhmCd4KqP/yI+nnhlQwhBxTBHoVWmQYZJqqz9ao
hgTPsGGmT0Q+LKlc0gI71mrr0/QL4AyKI5011hdrG1HoJ3ZksOEG3F7jvaONzRd6
H9ObhyZYXDuqpuVONlNIsfZfIW0ICtEHxXmcYVt+cg82w806IiFKLIcPXoOdmqfi
Nrg3j0mMw5WUsrvN0rRApkBK8X0sXulqKf6cRJHRjiM+ul6+7W0lTnbBsO37d71O
TQ305jcCAwEAAaOCAZAwggGMMHIGCCsGAQUFBwEBBGYwZDAxBggrBgEFBQcwAoYl
aHR0cDovL3Jvb3QtY2EuVGVsZWNvLmNvbS9yb290LWNhLmNydDAvBggrBgEFBQcw
AYYjaHR0cDovL29jc3Aucm9vdC1jYS5UZWxlY28uY29tOjkwODAwHwYDVR0jBBgw
FoAUT1zA4NMDTr2ljevqI90pQZLpLqswEgYDVR0TAQH/BAgwBgEB/wIBADA2BgNV
HR8ELzAtMCugKaAnhiVodHRwOi8vcm9vdC1jYS5UZWxlY28uY29tL3Jvb3QtY2Eu
Y3JsMB0GA1UdJQQWMBQGCCsGAQUFBwMCBggrBgEFBQcDATAOBgNVHQ8BAf8EBAMC
AQYwWwYDVR0eBFQwUqAeMA2CC2V4YW1wbGUuY29tMA2CC2V4YW1wbGUub3JnoTAw
CocIAAAAAAAAAAAwIocgAAAAAAAAAAAAAAAAAAAAAAAAAAAAAAAAAAAAAAAAAAAw
HQYDVR0OBBYEFMW5Aggdcazm23SjJM/eoi73GhDlMA0GCSqGSIb3DQEBCwUAA4IC
AQA1nY7pOFaoUhn1Hfwh7zcul+GgxuSzwvOSEw12lZYMOdVYzqTGzMfhZ2fpnj1k
6LReMEVjgkSifdWns5bbz1uLb5izbw0x5jEux4RM/ZCFenxsxdo1mRs+xCHZZzLF
6jLGe0ZdawE/2RUUtURDmTYzAsjpHY5a6YUisx0JoASQRJSCbUhi9zd2xqlIHBmx
Oi1mThuotGD4IA4dA8/4w75QyLHWsP2KDmUqeFplE7Wh78i435jN2Ut9Eg9riLJK
jjzskI26Fx5faELAktQ2+CiIruMeWJowVce18LYTHefpgrfxibl8KHX22wrQWAvy
rL1oOF/gGG3R/mOZrifg9PfLiFukw7OLevdLwFR8TLqY5vdgZbb52jzGpGDzJ3hq
ASo32sMl26d0/3fO6dLhwlMTxOIjUB13J0w/3Scikol8PCFWIkiNcI3EjaMdrVXV
ePmuRk0OQw3UpEtHbaHXH/KvuCsMqgiv0TUzqae8UpklZN48LTiCNoaaxovEiWWZ
EIakozL95bSMpDDjydDgO9/YhVcnC7mcnMv6z6WYhpIfLiliQYSk+sb11eYoWHTb
aNB09VQO4TDjHNgeeXYL7gnKnBbu+IO8GYY0X4gx+suBgx/nBliulj0ctAe3x9ey
uIP+eSRSqKY02fOq99APIbeeRzvNZ6Lon7KjzZ7AVUnORQ==
-----END CERTIFICATE-----
