Certificate:
    Data:
        Version: 3 (0x2)
        Serial Number:
            09:1c:f0:ef:03:be:43:fa:60:e6:4e:48:38:92:f1:30
        Signature Algorithm: sha256WithRSAEncryption
        Issuer: C=ES, O=Teleco, CN=Root CA
        Validity
            Not Before: Apr  3 13:52:53 2023 GMT
            Not After : Mar 31 13:52:53 2033 GMT
        Subject: C=ES, O=Teleco, CN=Server CA
        Subject Public Key Info:
            Public Key Algorithm: rsaEncryption
                RSA Public-Key: (4096 bit)
                Modulus:
                    00:a4:f0:6a:0d:2d:ac:88:71:09:fd:68:04:40:ea:
                    bb:dc:34:d9:57:3b:78:94:13:05:bf:e7:9b:59:e4:
                    16:f0:d1:92:bd:e8:d0:9f:2f:6a:ba:8a:d0:59:fe:
                    74:bb:5c:4b:36:1e:59:2c:16:1d:d4:2e:55:b7:01:
                    27:e4:33:ae:99:43:20:17:46:df:e1:44:ec:07:9d:
                    32:96:15:af:f6:6c:b3:3e:0a:6b:7f:6a:95:59:db:
                    cf:2f:f2:6f:ea:25:34:b3:24:b5:82:fe:ac:ca:3c:
                    db:75:c5:03:9d:26:c1:05:98:df:09:ba:63:32:6d:
                    9a:3d:64:40:3e:2d:55:7c:8e:7d:89:4d:a4:b8:91:
                    3a:d3:32:37:04:e0:4b:9f:67:c6:f7:d2:c0:0d:be:
                    99:3b:7f:d5:de:26:ef:ed:1f:6a:a6:f4:55:82:f6:
                    b0:1f:ed:07:bc:d2:89:a2:93:f0:4f:37:93:1e:d1:
                    ea:d1:6c:af:54:32:d3:77:2b:80:90:a7:72:64:8e:
                    8e:df:04:c4:ca:75:4b:28:39:f3:36:95:cb:f7:fa:
                    ed:f3:c0:27:ad:a9:9c:37:ac:7b:bd:65:ac:98:fc:
                    89:29:99:06:25:49:0e:9a:1f:bf:fe:24:6e:d5:65:
                    01:46:22:27:3d:4c:1b:02:42:8b:90:9e:6d:2b:f9:
                    f5:74:f0:3b:ef:a5:e2:0b:1a:f4:7e:37:07:a1:3e:
                    19:11:1a:de:cc:e0:6f:7d:77:d4:9a:87:83:e6:b9:
                    dc:3e:9d:d3:ff:23:4f:ac:6e:51:85:c0:8f:4e:d9:
                    3a:14:cc:71:4e:7f:18:f7:e1:b6:78:2b:42:8b:42:
                    00:a7:0b:28:59:31:76:78:04:15:81:58:0b:0b:40:
                    77:c7:5c:92:9d:31:88:e3:1d:6f:e4:da:c4:0c:12:
                    99:be:a5:b2:21:cf:9c:52:49:86:72:70:5b:9f:55:
                    e8:f8:d6:fe:ab:ac:2b:97:e0:30:93:34:fb:e0:e3:
                    19:04:2f:8d:63:0c:93:6c:b7:66:88:c6:c0:58:bb:
                    dc:6d:46:aa:6d:cf:ff:48:c4:01:2a:36:4e:6f:62:
                    9c:2a:55:57:9d:60:ee:b8:06:d7:da:26:d9:a5:2e:
                    b0:55:6f:c2:79:76:03:48:f8:df:41:5a:84:87:ca:
                    a6:49:37:ab:78:c0:b9:49:ed:6e:dc:b8:66:93:8b:
                    b9:9a:85:cd:e1:77:4c:7b:08:09:83:aa:4c:75:58:
                    d8:80:b0:78:75:0c:2d:f3:12:76:17:ad:95:d5:45:
                    b6:48:4a:ee:00:e1:2c:03:95:94:1f:a0:32:58:64:
                    b4:d5:86:d6:88:18:69:d8:c8:c7:f7:77:64:a0:3c:
                    aa:d6:7b
                Exponent: 65537 (0x10001)
        X509v3 extensions:
            Authority Information Access: 
                OCSP - URI:http://localhost:9080/

            X509v3 Authority Key Identifier: 
                keyid:8A:F1:16:09:2A:B1:57:D6:A1:B9:1E:BA:5F:5F:E6:81:DA:98:B4:F9

            X509v3 Basic Constraints: critical
                CA:TRUE, pathlen:0
            X509v3 CRL Distribution Points: 

                Full Name:
                  URI:http://root-ca.Teleco.com/root-ca.crl

            X509v3 Extended Key Usage: 
                TLS Web Client Authentication, TLS Web Server Authentication
            X509v3 Key Usage: critical
                Certificate Sign, CRL Sign
            X509v3 Name Constraints: 
                Permitted:
                  DNS:example.com
                  DNS:example.org
                Excluded:
                  IP:0.0.0.0/0.0.0.0
                  IP:0:0:0:0:0:0:0:0/0:0:0:0:0:0:0:0

            X509v3 Subject Key Identifier: 
                3E:7E:CA:8B:2B:67:F4:4E:C8:10:A8:3C:59:74:C1:E4:7D:3A:6F:63
    Signature Algorithm: sha256WithRSAEncryption
         4c:f9:b6:36:a6:4e:71:93:af:b6:4f:6b:15:83:4d:75:ff:3b:
         53:f1:4f:6f:dd:16:2b:6e:70:cb:be:a0:32:fe:60:69:93:71:
         41:44:f0:af:bb:ff:cb:f4:bf:49:f8:b8:af:19:97:3a:b6:b8:
         42:15:b7:0b:2e:a3:5e:d4:f3:87:a0:6c:12:cc:78:da:28:15:
         e6:6d:73:45:61:e7:01:e9:32:e4:eb:3e:ce:34:58:5d:6d:e3:
         e0:3f:e4:eb:90:c0:12:26:06:16:3c:e9:d1:03:75:3c:6c:3d:
         73:d4:fa:c1:49:f7:2a:83:e4:43:d4:52:3b:ec:ed:57:5a:95:
         55:b5:be:f3:c0:1d:c4:5d:84:6c:f7:3d:07:9e:31:25:62:11:
         81:02:8c:c8:27:8e:c0:c3:03:a8:5c:a5:23:d9:d1:bd:8e:d2:
         61:a1:31:4d:e8:f6:c5:66:56:cb:ee:a0:52:de:bf:b3:40:fe:
         07:8f:70:30:4f:36:5d:a9:af:cf:18:54:a2:9f:87:b4:19:7c:
         e2:a7:61:bf:77:8c:9a:61:be:3d:ae:61:d1:7c:5a:9e:1c:b9:
         1a:b6:2a:1e:b3:88:7d:dc:9b:06:05:73:d4:d7:8f:2a:8c:f9:
         d3:3a:10:54:9d:75:a6:dc:95:6b:81:d6:f7:ba:41:16:99:62:
         fa:8e:30:4d:b6:b6:51:56:35:a7:21:82:b9:ac:5d:0f:77:75:
         7f:64:26:46:bf:f1:01:fc:d1:75:56:ff:2c:78:2d:2e:e9:81:
         5d:86:ec:ce:e2:84:34:95:06:ec:9a:99:96:af:dd:74:d1:a2:
         37:46:5a:7f:5f:43:88:6b:7f:31:d5:6a:15:38:2d:a7:25:ef:
         24:ba:01:1b:4c:08:55:a1:84:28:c6:44:c0:45:28:aa:2a:8d:
         9b:4a:73:95:b6:df:8d:1b:cd:96:83:50:91:65:37:ff:d4:41:
         25:49:40:27:29:da:0b:7a:4a:9d:58:d6:52:d3:fe:2b:28:26:
         44:51:7d:43:a1:1f:f5:fa:d1:24:e3:41:04:63:cc:ef:69:93:
         1c:c2:96:66:bd:51:e5:2a:73:13:93:a9:9b:d5:12:d6:32:35:
         1f:85:73:7f:b5:46:0b:e7:b0:97:45:1c:d4:a6:fa:16:1e:d0:
         70:7e:1f:16:fa:ab:81:a4:60:88:20:a5:ce:a2:ef:5c:45:89:
         c6:d3:4b:d5:58:ca:41:f9:50:6a:d1:ae:21:22:c5:a8:4d:15:
         e2:dc:d0:a1:ac:e3:6d:3a:53:3d:86:ad:34:b6:5d:d7:a7:2b:
         af:4e:50:b1:9a:01:65:08:5b:37:ec:49:80:3c:9c:b9:5a:8f:
         af:29:de:e6:9b:ed:c1:78
-----BEGIN CERTIFICATE-----
MIIGPjCCBCagAwIBAgIQCRzw7wO+Q/pg5k5IOJLxMDANBgkqhkiG9w0BAQsFADAw
MQswCQYDVQQGEwJFUzEPMA0GA1UECgwGVGVsZWNvMRAwDgYDVQQDDAdSb290IENB
MB4XDTIzMDQwMzEzNTI1M1oXDTMzMDMzMTEzNTI1M1owMjELMAkGA1UEBhMCRVMx
DzANBgNVBAoMBlRlbGVjbzESMBAGA1UEAwwJU2VydmVyIENBMIICIjANBgkqhkiG
9w0BAQEFAAOCAg8AMIICCgKCAgEApPBqDS2siHEJ/WgEQOq73DTZVzt4lBMFv+eb
WeQW8NGSvejQny9quorQWf50u1xLNh5ZLBYd1C5VtwEn5DOumUMgF0bf4UTsB50y
lhWv9myzPgprf2qVWdvPL/Jv6iU0syS1gv6syjzbdcUDnSbBBZjfCbpjMm2aPWRA
Pi1VfI59iU2kuJE60zI3BOBLn2fG99LADb6ZO3/V3ibv7R9qpvRVgvawH+0HvNKJ
opPwTzeTHtHq0WyvVDLTdyuAkKdyZI6O3wTEynVLKDnzNpXL9/rt88AnramcN6x7
vWWsmPyJKZkGJUkOmh+//iRu1WUBRiInPUwbAkKLkJ5tK/n1dPA776XiCxr0fjcH
oT4ZERrezOBvfXfUmoeD5rncPp3T/yNPrG5RhcCPTtk6FMxxTn8Y9+G2eCtCi0IA
pwsoWTF2eAQVgVgLC0B3x1ySnTGI4x1v5NrEDBKZvqWyIc+cUkmGcnBbn1Xo+Nb+
q6wrl+AwkzT74OMZBC+NYwyTbLdmiMbAWLvcbUaqbc//SMQBKjZOb2KcKlVXnWDu
uAbX2ibZpS6wVW/CeXYDSPjfQVqEh8qmSTereMC5Se1u3Lhmk4u5moXN4XdMewgJ
g6pMdVjYgLB4dQwt8xJ2F62V1UW2SEruAOEsA5WUH6AyWGS01YbWiBhp2MjH93dk
oDyq1nsCAwEAAaOCAVAwggFMMDIGCCsGAQUFBwEBBCYwJDAiBggrBgEFBQcwAYYW
aHR0cDovL2xvY2FsaG9zdDo5MDgwLzAfBgNVHSMEGDAWgBSK8RYJKrFX1qG5Hrpf
X+aB2pi0+TASBgNVHRMBAf8ECDAGAQH/AgEAMDYGA1UdHwQvMC0wK6ApoCeGJWh0
dHA6Ly9yb290LWNhLlRlbGVjby5jb20vcm9vdC1jYS5jcmwwHQYDVR0lBBYwFAYI
KwYBBQUHAwIGCCsGAQUFBwMBMA4GA1UdDwEB/wQEAwIBBjBbBgNVHR4EVDBSoB4w
DYILZXhhbXBsZS5jb20wDYILZXhhbXBsZS5vcmehMDAKhwgAAAAAAAAAADAihyAA
AAAAAAAAAAAAAAAAAAAAAAAAAAAAAAAAAAAAAAAAADAdBgNVHQ4EFgQUPn7Kiytn
9E7IEKg8WXTB5H06b2MwDQYJKoZIhvcNAQELBQADggIBAEz5tjamTnGTr7ZPaxWD
TXX/O1PxT2/dFitucMu+oDL+YGmTcUFE8K+7/8v0v0n4uK8Zlzq2uEIVtwsuo17U
84egbBLMeNooFeZtc0Vh5wHpMuTrPs40WF1t4+A/5OuQwBImBhY86dEDdTxsPXPU
+sFJ9yqD5EPUUjvs7VdalVW1vvPAHcRdhGz3PQeeMSViEYECjMgnjsDDA6hcpSPZ
0b2O0mGhMU3o9sVmVsvuoFLev7NA/gePcDBPNl2pr88YVKKfh7QZfOKnYb93jJph
vj2uYdF8Wp4cuRq2Kh6ziH3cmwYFc9TXjyqM+dM6EFSddabclWuB1ve6QRaZYvqO
ME22tlFWNachgrmsXQ93dX9kJka/8QH80XVW/yx4LS7pgV2G7M7ihDSVBuyamZav
3XTRojdGWn9fQ4hrfzHVahU4Lacl7yS6ARtMCFWhhCjGRMBFKKoqjZtKc5W2340b
zZaDUJFlN//UQSVJQCcp2gt6Sp1Y1lLT/isoJkRRfUOhH/X60STjQQRjzO9pkxzC
lma9UeUqcxOTqZvVEtYyNR+Fc3+1RgvnsJdFHNSm+hYe0HB+Hxb6q4GkYIggpc6i
71xFicbTS9VYykH5UGrRriEixahNFeLc0KGs4206Uz2GrTS2XdenK69OULGaAWUI
WzfsSYA8nLlaj68p3uab7cF4
-----END CERTIFICATE-----
