Certificate:
    Data:
        Version: 3 (0x2)
        Serial Number:
            09:1c:f0:ef:03:be:43:fa:60:e6:4e:48:38:92:f1:37
        Signature Algorithm: sha256WithRSAEncryption
        Issuer: C=ES, O=Teleco, CN=Root CA
        Validity
            Not Before: Apr  3 22:09:21 2023 GMT
            Not After : Mar 31 22:09:21 2033 GMT
        Subject: C=ES, O=Teleco, CN=Client CA
        Subject Public Key Info:
            Public Key Algorithm: rsaEncryption
                RSA Public-Key: (4096 bit)
                Modulus:
                    00:e4:11:04:e6:aa:c8:5d:9a:50:bf:b7:ec:cd:f5:
                    84:1e:b3:cb:3e:43:c8:09:fc:3b:44:a5:7f:42:ea:
                    a7:2e:4f:8c:5f:11:71:4a:72:22:b3:8a:7a:43:ca:
                    a0:93:a9:cb:50:cb:96:c5:23:1f:cb:4e:07:27:94:
                    c7:0a:8e:cf:d1:b3:7d:42:53:b5:08:38:1d:0b:2e:
                    6f:cc:e8:dc:b3:67:b1:97:dc:81:74:54:79:ec:01:
                    1d:3a:bd:dc:08:79:37:da:1a:d8:30:0e:b9:ec:12:
                    ce:cd:fb:b2:7f:a1:ab:80:93:de:51:ef:de:e6:06:
                    0b:04:e6:3e:ee:80:fc:45:8d:96:e7:32:0d:00:80:
                    ad:b1:85:76:ea:c4:eb:a7:c5:26:14:44:ed:f8:e3:
                    65:d9:84:a9:19:2c:be:b7:2b:b8:7f:21:9b:f6:04:
                    ca:93:c9:87:01:3a:e2:51:4d:4e:03:4b:5a:75:09:
                    27:c7:61:4f:62:16:89:67:bd:0c:a1:1e:93:53:ad:
                    32:10:8c:d8:01:37:7d:05:e3:16:4b:f6:43:27:1a:
                    93:c6:e0:83:2d:51:fe:b6:b9:ad:c7:cb:ea:d0:c4:
                    b8:81:3a:e0:40:9e:fe:16:a1:e6:3d:ac:73:bb:1c:
                    cd:16:32:21:cf:d8:f7:f8:27:7e:65:5b:cb:5f:16:
                    6f:c8:ee:ec:03:9a:bd:a2:bf:63:47:72:ca:8c:e1:
                    c9:fb:17:42:79:f4:80:b8:d6:c2:93:6e:2b:f1:f5:
                    9e:09:08:cd:9d:23:38:27:fb:3c:14:4d:f6:47:80:
                    44:4f:a3:9e:3f:93:cf:4f:07:70:90:38:dd:e2:f3:
                    8d:de:13:17:c3:2f:60:51:24:11:d2:37:94:cb:a7:
                    de:19:a8:e2:59:ec:06:00:c7:38:5c:3d:ef:b7:0c:
                    8b:e1:c3:93:29:b7:0c:26:84:bb:06:12:d5:03:35:
                    97:e3:7c:46:52:86:af:2b:32:48:58:86:66:48:7f:
                    62:a3:5c:90:3a:65:86:28:4e:7f:69:87:8e:9c:d5:
                    15:e2:c0:47:05:ab:44:ca:af:6d:67:15:d3:d9:f3:
                    b7:f6:11:b6:0f:29:7e:2f:ec:77:8c:c8:51:ab:46:
                    c1:49:21:9f:b1:77:aa:74:66:9c:de:88:d5:ad:e1:
                    d3:b1:2f:3b:76:e1:9e:03:50:24:e6:bd:04:43:be:
                    04:37:86:d2:ac:26:ae:88:8f:27:6a:38:63:63:b4:
                    c8:39:80:d9:65:41:7a:8e:43:03:56:37:f7:86:58:
                    41:29:68:9b:cf:99:8f:27:d0:09:e4:9c:0a:1d:98:
                    0e:a7:fd:d2:fe:ae:0d:f1:1d:f1:d1:64:a9:fb:9e:
                    de:09:ab
                Exponent: 65537 (0x10001)
        X509v3 extensions:
            Authority Information Access: 
                CA Issuers - URI:http://root-ca.Teleco.com/root-ca.crt
                OCSP - URI:http://ocsp.root-ca.Teleco.com:9080

            X509v3 Authority Key Identifier: 
                keyid:27:4E:9A:9C:1E:BC:88:77:BB:84:6A:38:8B:ED:DA:7E:1E:E5:46:42

            X509v3 Basic Constraints: critical
                CA:TRUE, pathlen:0
            X509v3 CRL Distribution Points: 

                Full Name:
                  URI:http://root-ca.Teleco.com/root-ca.crl

            X509v3 Extended Key Usage: 
                TLS Web Client Authentication, TLS Web Server Authentication
            X509v3 Key Usage: critical
                Certificate Sign, CRL Sign
            X509v3 Name Constraints: 
                Permitted:
                  DNS:example.com
                  DNS:example.org
                Excluded:
                  IP:0.0.0.0/0.0.0.0
                  IP:0:0:0:0:0:0:0:0/0:0:0:0:0:0:0:0

            X509v3 Subject Key Identifier: 
                FF:9B:44:64:29:EB:55:5D:A6:74:EB:1C:14:16:8A:BE:AC:B9:90:85
    Signature Algorithm: sha256WithRSAEncryption
         05:c2:60:ca:39:33:10:28:df:a0:d3:7e:8a:b9:ef:f9:df:bd:
         2a:14:47:bb:b0:d6:86:6c:67:ca:3e:52:10:a7:10:b8:9c:84:
         3a:16:86:82:e7:0e:1a:20:6f:9d:51:83:d1:c1:be:c4:1c:7c:
         c3:47:cf:8e:0d:5f:86:3f:37:e9:33:f8:4d:fb:25:35:ee:12:
         cf:c8:30:42:6c:b6:fe:9c:91:fc:f1:80:1b:05:ac:62:55:24:
         69:88:b0:d4:6f:a8:96:35:a4:20:d2:16:fe:e7:f2:57:71:4a:
         a9:fb:b5:5c:62:46:5f:da:85:8b:7b:f5:54:dd:20:1a:2c:98:
         f7:4e:9e:2d:e4:ea:75:af:2d:69:d8:b8:7a:c7:2b:54:81:03:
         c9:b0:8b:11:96:b6:9a:06:2f:5b:2c:f1:8c:ac:c9:c1:ff:04:
         dc:12:d9:c9:94:41:95:e9:f1:4d:80:61:2f:d0:b2:16:b2:e7:
         aa:cf:d9:a1:96:5a:cb:96:55:66:dc:e6:3f:30:29:1b:b4:c9:
         da:13:ed:7a:32:59:4d:6e:7b:61:f3:5f:8e:8f:86:7f:0b:a2:
         1e:8e:ce:f9:02:7e:86:6b:59:87:44:df:6c:3a:27:5a:9b:83:
         c4:b1:4e:0b:ff:25:57:34:f5:48:fb:12:31:b2:27:04:97:86:
         41:82:6f:fb:38:d2:26:d3:5e:0c:ca:7d:39:cc:64:c7:4b:16:
         90:4e:49:53:74:f8:8b:9e:63:e1:96:1a:f2:93:3a:36:22:ff:
         42:e8:40:f1:92:59:e5:35:20:a7:0d:4f:a1:d7:40:d5:18:ea:
         27:d7:b8:28:82:d7:5b:57:84:e3:4d:64:12:2c:cb:21:17:fd:
         3c:54:89:b2:df:74:aa:d5:7a:d3:79:04:9d:8e:16:51:20:7a:
         3a:6b:a2:8e:61:70:4f:fa:5c:83:96:67:ca:e3:d1:ac:88:03:
         5d:da:89:32:62:75:93:01:1c:d3:4c:a9:ce:64:a6:e2:97:dc:
         5b:49:9b:83:f9:84:dc:e3:2f:55:3e:b5:6f:8f:0d:f7:7c:1e:
         d5:31:df:14:30:32:8f:21:b1:42:6e:ca:d5:d9:ba:81:17:80:
         e7:cf:1f:b4:6a:39:31:c2:06:5d:43:ff:cd:bf:f7:16:c4:c1:
         65:25:fb:81:b3:03:62:c7:c9:c4:46:3d:34:4b:8b:cf:35:5f:
         b4:ed:a9:71:24:da:96:3f:8d:7f:65:e8:21:39:cb:39:9c:87:
         5e:f1:9e:6c:5f:36:d0:6c:61:ac:22:db:ed:ab:7e:e9:30:39:
         af:66:08:25:99:58:af:74:de:e9:ef:78:a2:05:c7:1e:55:7e:
         72:cd:06:e6:d5:df:1c:ba
-----BEGIN CERTIFICATE-----
MIIGfjCCBGagAwIBAgIQCRzw7wO+Q/pg5k5IOJLxNzANBgkqhkiG9w0BAQsFADAw
MQswCQYDVQQGEwJFUzEPMA0GA1UECgwGVGVsZWNvMRAwDgYDVQQDDAdSb290IENB
MB4XDTIzMDQwMzIyMDkyMVoXDTMzMDMzMTIyMDkyMVowMjELMAkGA1UEBhMCRVMx
DzANBgNVBAoMBlRlbGVjbzESMBAGA1UEAwwJQ2xpZW50IENBMIICIjANBgkqhkiG
9w0BAQEFAAOCAg8AMIICCgKCAgEA5BEE5qrIXZpQv7fszfWEHrPLPkPICfw7RKV/
QuqnLk+MXxFxSnIis4p6Q8qgk6nLUMuWxSMfy04HJ5THCo7P0bN9QlO1CDgdCy5v
zOjcs2exl9yBdFR57AEdOr3cCHk32hrYMA657BLOzfuyf6GrgJPeUe/e5gYLBOY+
7oD8RY2W5zINAICtsYV26sTrp8UmFETt+ONl2YSpGSy+tyu4fyGb9gTKk8mHATri
UU1OA0tadQknx2FPYhaJZ70MoR6TU60yEIzYATd9BeMWS/ZDJxqTxuCDLVH+trmt
x8vq0MS4gTrgQJ7+FqHmPaxzuxzNFjIhz9j3+Cd+ZVvLXxZvyO7sA5q9or9jR3LK
jOHJ+xdCefSAuNbCk24r8fWeCQjNnSM4J/s8FE32R4BET6OeP5PPTwdwkDjd4vON
3hMXwy9gUSQR0jeUy6feGajiWewGAMc4XD3vtwyL4cOTKbcMJoS7BhLVAzWX43xG
UoavKzJIWIZmSH9io1yQOmWGKE5/aYeOnNUV4sBHBatEyq9tZxXT2fO39hG2Dyl+
L+x3jMhRq0bBSSGfsXeqdGac3ojVreHTsS87duGeA1Ak5r0EQ74EN4bSrCauiI8n
ajhjY7TIOYDZZUF6jkMDVjf3hlhBKWibz5mPJ9AJ5JwKHZgOp/3S/q4N8R3x0WSp
+57eCasCAwEAAaOCAZAwggGMMHIGCCsGAQUFBwEBBGYwZDAxBggrBgEFBQcwAoYl
aHR0cDovL3Jvb3QtY2EuVGVsZWNvLmNvbS9yb290LWNhLmNydDAvBggrBgEFBQcw
AYYjaHR0cDovL29jc3Aucm9vdC1jYS5UZWxlY28uY29tOjkwODAwHwYDVR0jBBgw
FoAUJ06anB68iHe7hGo4i+3afh7lRkIwEgYDVR0TAQH/BAgwBgEB/wIBADA2BgNV
HR8ELzAtMCugKaAnhiVodHRwOi8vcm9vdC1jYS5UZWxlY28uY29tL3Jvb3QtY2Eu
Y3JsMB0GA1UdJQQWMBQGCCsGAQUFBwMCBggrBgEFBQcDATAOBgNVHQ8BAf8EBAMC
AQYwWwYDVR0eBFQwUqAeMA2CC2V4YW1wbGUuY29tMA2CC2V4YW1wbGUub3JnoTAw
CocIAAAAAAAAAAAwIocgAAAAAAAAAAAAAAAAAAAAAAAAAAAAAAAAAAAAAAAAAAAw
HQYDVR0OBBYEFP+bRGQp61VdpnTrHBQWir6suZCFMA0GCSqGSIb3DQEBCwUAA4IC
AQAFwmDKOTMQKN+g036Kue/5370qFEe7sNaGbGfKPlIQpxC4nIQ6FoaC5w4aIG+d
UYPRwb7EHHzDR8+ODV+GPzfpM/hN+yU17hLPyDBCbLb+nJH88YAbBaxiVSRpiLDU
b6iWNaQg0hb+5/JXcUqp+7VcYkZf2oWLe/VU3SAaLJj3Tp4t5Op1ry1p2Lh6xytU
gQPJsIsRlraaBi9bLPGMrMnB/wTcEtnJlEGV6fFNgGEv0LIWsueqz9mhllrLllVm
3OY/MCkbtMnaE+16MllNbnth81+Oj4Z/C6Iejs75An6Ga1mHRN9sOidam4PEsU4L
/yVXNPVI+xIxsicEl4ZBgm/7ONIm014Myn05zGTHSxaQTklTdPiLnmPhlhrykzo2
Iv9C6EDxklnlNSCnDU+h10DVGOon17gogtdbV4TjTWQSLMshF/08VImy33Sq1XrT
eQSdjhZRIHo6a6KOYXBP+lyDlmfK49GsiANd2okyYnWTARzTTKnOZKbil9xbSZuD
+YTc4y9VPrVvjw33fB7VMd8UMDKPIbFCbsrV2bqBF4Dnzx+0ajkxwgZdQ//Nv/cW
xMFlJfuBswNix8nERj00S4vPNV+07alxJNqWP41/ZeghOcs5nIde8Z5sXzbQbGGs
Itvtq37pMDmvZgglmVivdN7p73iiBcceVX5yzQbm1d8cug==
-----END CERTIFICATE-----
