Certificate:
    Data:
        Version: 3 (0x2)
        Serial Number:
            09:1c:f0:ef:03:be:43:fa:60:e6:4e:48:38:92:f1:58
        Signature Algorithm: sha256WithRSAEncryption
        Issuer: C=ES, O=Teleco, CN=Root CA
        Validity
            Not Before: Apr  6 10:38:42 2023 GMT
            Not After : Apr  5 10:38:42 2024 GMT
        Subject: C=ES, O=Teleco, CN=OCSP Responder
        Subject Public Key Info:
            Public Key Algorithm: rsaEncryption
                RSA Public-Key: (2048 bit)
                Modulus:
                    00:c0:45:15:78:1f:53:98:5b:b6:79:b3:2e:8a:d0:
                    86:a7:bf:eb:7e:81:44:70:1b:a4:10:7b:6c:1a:69:
                    70:84:3f:96:f8:cb:79:a4:1a:d4:eb:b8:68:ad:f3:
                    00:0e:df:a4:76:6f:29:f7:97:5b:df:74:bc:d3:24:
                    37:8e:28:1e:4f:19:88:8d:e4:35:4b:a5:bb:92:33:
                    36:0d:1a:a5:50:8a:82:08:20:c0:59:f1:58:de:a2:
                    07:26:e2:b4:a5:77:83:20:81:b9:b7:77:94:31:f8:
                    55:63:af:1e:5e:b4:69:43:8c:48:81:df:cc:ae:4b:
                    a1:4b:57:0c:2a:c4:2d:9e:7a:1c:ff:23:15:4c:5f:
                    a1:45:13:61:c7:88:5c:8a:00:59:5b:75:66:2d:83:
                    04:67:cc:5f:83:63:cd:fd:2f:77:89:16:7c:ef:98:
                    23:a7:9a:f1:56:47:c6:da:68:c6:a8:77:c7:79:eb:
                    0e:97:67:52:81:72:96:32:50:01:b9:dd:a0:e2:fc:
                    03:1e:f8:9d:62:d7:a1:c4:7b:49:34:e7:2a:08:07:
                    78:9e:3e:36:76:a1:bb:cf:c1:81:cd:ca:f9:a7:c0:
                    35:00:30:aa:3a:02:1b:53:77:1d:a4:bd:71:0a:de:
                    10:fc:a2:f3:d6:b5:4c:5b:f0:f3:da:43:6a:63:63:
                    ae:af
                Exponent: 65537 (0x10001)
        X509v3 extensions:
            X509v3 Authority Key Identifier: 
                keyid:4F:5C:C0:E0:D3:03:4E:BD:A5:8D:EB:EA:23:DD:29:41:92:E9:2E:AB

            X509v3 Basic Constraints: critical
                CA:FALSE
            X509v3 Extended Key Usage: 
                OCSP Signing
            X509v3 Key Usage: critical
                Digital Signature
            X509v3 Subject Key Identifier: 
                05:4F:BB:16:10:FC:00:C5:EE:F5:27:0A:6E:08:14:95:6C:36:01:36
    Signature Algorithm: sha256WithRSAEncryption
         3f:ed:94:c1:99:00:96:dc:c3:2c:b1:3e:ab:d3:bb:5f:c5:73:
         2d:09:33:d7:a9:2b:0c:01:25:ed:f0:44:a6:a1:a1:0e:f9:2b:
         e2:3c:f9:fa:67:52:27:37:ed:0f:7d:55:fa:ff:2d:12:c5:14:
         0c:07:be:d8:4e:34:0d:23:4b:91:3d:d9:d0:c0:4c:9d:0f:a5:
         50:b1:ed:8e:39:d7:b3:b9:87:6e:38:0a:a1:da:7e:89:24:a2:
         9a:0a:19:b4:49:81:29:b7:53:0d:a2:c4:44:ee:a7:45:83:d3:
         f0:ba:76:84:4f:ea:44:14:f3:b5:5f:cf:ad:19:e5:23:4c:53:
         62:54:ee:88:9a:d0:a0:b1:07:f0:8c:34:fd:62:42:4c:a0:e4:
         29:32:79:ad:f1:b0:61:98:ba:61:96:a4:f6:18:65:3d:78:fc:
         d1:b1:7f:c3:27:3e:e1:7e:4e:cf:1c:90:20:9c:85:cb:42:63:
         43:da:8e:95:f1:98:57:7a:77:f4:b0:6c:fb:c3:23:fe:40:a3:
         07:1c:55:ed:2e:c1:bf:52:fc:2d:75:51:5a:08:51:db:aa:7b:
         9e:fc:61:42:84:05:c0:24:a2:28:9d:9a:2c:04:29:84:3a:2d:
         30:92:28:de:5d:b7:f7:42:f9:6d:e2:ed:5e:ef:eb:b7:8b:ba:
         9d:cc:b5:eb:1d:dc:88:5e:5b:30:07:31:82:84:38:89:2f:09:
         6f:c1:6e:02:dd:86:fd:38:26:ed:ac:07:85:c4:07:50:26:94:
         97:d9:3e:bc:e0:fc:ea:d6:bc:c7:1c:07:74:1d:9b:ae:a2:00:
         92:22:c8:3b:20:26:70:ca:06:3d:4c:38:82:c9:18:5b:5b:fd:
         15:f4:5c:f9:bd:d2:1b:23:d4:fa:e2:53:f3:9b:a9:50:69:96:
         e5:fc:a7:fc:81:59:19:a2:80:69:f8:e4:2b:6b:0d:0a:93:bc:
         3d:7e:3c:f9:61:2e:6c:a8:cb:92:b8:ea:df:8a:b0:89:12:74:
         6b:93:46:46:be:a8:53:94:fb:bc:fd:ba:7e:f1:e8:0b:a9:86:
         10:f7:6e:81:bc:29:95:54:91:85:30:ab:92:2b:a3:5f:06:a9:
         61:99:29:d9:89:63:ce:7e:77:a8:25:85:3a:d2:ce:07:94:15:
         fe:d8:aa:19:9d:94:bc:0b:ce:33:9d:28:6e:f0:d4:78:3a:5a:
         9f:1d:e2:13:7a:b2:a7:05:0a:51:5d:84:c7:75:42:2b:0e:4e:
         a8:b1:7e:0c:21:d8:0e:7d:3d:d2:96:55:e1:ba:da:35:ae:90:
         f4:d8:c3:22:a2:3f:59:41:05:f1:62:f6:9d:27:21:8d:3f:b4:
         eb:83:68:1b:60:f8:29:15
-----BEGIN CERTIFICATE-----
MIIEZjCCAk6gAwIBAgIQCRzw7wO+Q/pg5k5IOJLxWDANBgkqhkiG9w0BAQsFADAw
MQswCQYDVQQGEwJFUzEPMA0GA1UECgwGVGVsZWNvMRAwDgYDVQQDDAdSb290IENB
MB4XDTIzMDQwNjEwMzg0MloXDTI0MDQwNTEwMzg0MlowNzELMAkGA1UEBhMCRVMx
DzANBgNVBAoMBlRlbGVjbzEXMBUGA1UEAwwOT0NTUCBSZXNwb25kZXIwggEiMA0G
CSqGSIb3DQEBAQUAA4IBDwAwggEKAoIBAQDARRV4H1OYW7Z5sy6K0Ianv+t+gURw
G6QQe2waaXCEP5b4y3mkGtTruGit8wAO36R2byn3l1vfdLzTJDeOKB5PGYiN5DVL
pbuSMzYNGqVQioIIIMBZ8Vjeogcm4rSld4Mggbm3d5Qx+FVjrx5etGlDjEiB38yu
S6FLVwwqxC2eehz/IxVMX6FFE2HHiFyKAFlbdWYtgwRnzF+DY839L3eJFnzvmCOn
mvFWR8baaMaod8d56w6XZ1KBcpYyUAG53aDi/AMe+J1i16HEe0k05yoIB3iePjZ2
obvPwYHNyvmnwDUAMKo6AhtTdx2kvXEK3hD8ovPWtUxb8PPaQ2pjY66vAgMBAAGj
dTBzMB8GA1UdIwQYMBaAFE9cwODTA069pY3r6iPdKUGS6S6rMAwGA1UdEwEB/wQC
MAAwEwYDVR0lBAwwCgYIKwYBBQUHAwkwDgYDVR0PAQH/BAQDAgeAMB0GA1UdDgQW
BBQFT7sWEPwAxe71JwpuCBSVbDYBNjANBgkqhkiG9w0BAQsFAAOCAgEAP+2UwZkA
ltzDLLE+q9O7X8VzLQkz16krDAEl7fBEpqGhDvkr4jz5+mdSJzftD31V+v8tEsUU
DAe+2E40DSNLkT3Z0MBMnQ+lULHtjjnXs7mHbjgKodp+iSSimgoZtEmBKbdTDaLE
RO6nRYPT8Lp2hE/qRBTztV/PrRnlI0xTYlTuiJrQoLEH8Iw0/WJCTKDkKTJ5rfGw
YZi6YZak9hhlPXj80bF/wyc+4X5OzxyQIJyFy0JjQ9qOlfGYV3p39LBs+8Mj/kCj
BxxV7S7Bv1L8LXVRWghR26p7nvxhQoQFwCSiKJ2aLAQphDotMJIo3l2390L5beLt
Xu/rt4u6ncy16x3ciF5bMAcxgoQ4iS8Jb8FuAt2G/Tgm7awHhcQHUCaUl9k+vOD8
6ta8xxwHdB2brqIAkiLIOyAmcMoGPUw4gskYW1v9FfRc+b3SGyPU+uJT85upUGmW
5fyn/IFZGaKAafjkK2sNCpO8PX48+WEubKjLkrjq34qwiRJ0a5NGRr6oU5T7vP26
fvHoC6mGEPdugbwplVSRhTCrkiujXwapYZkp2Yljzn53qCWFOtLOB5QV/tiqGZ2U
vAvOM50obvDUeDpanx3iE3qypwUKUV2Ex3VCKw5OqLF+DCHYDn090pZV4braNa6Q
9NjDIqI/WUEF8WL2nSchjT+064NoG2D4KRU=
-----END CERTIFICATE-----
