Certificate:
    Data:
        Version: 3 (0x2)
        Serial Number:
            09:1c:f0:ef:03:be:43:fa:60:e6:4e:48:38:92:f1:47
        Signature Algorithm: sha256WithRSAEncryption
        Issuer: C=ES, O=Teleco, CN=Root CA
        Validity
            Not Before: Apr  5 09:31:57 2023 GMT
            Not After : Apr  2 09:31:57 2033 GMT
        Subject: C=ES, O=Teleco, CN=Server CA
        Subject Public Key Info:
            Public Key Algorithm: rsaEncryption
                RSA Public-Key: (4096 bit)
                Modulus:
                    00:cc:92:82:63:f9:5a:b2:4b:19:eb:e2:24:99:cc:
                    87:1b:52:62:13:0e:43:b0:cb:8c:b5:db:ba:10:d9:
                    b9:22:cd:0f:d6:a8:44:a6:23:96:92:38:6f:12:af:
                    04:62:e5:cb:ed:d0:75:4d:26:bd:70:90:ab:04:db:
                    db:13:0f:13:b6:bd:7a:c6:4f:3c:7b:c5:85:45:e1:
                    cc:b4:45:96:ee:e3:82:0b:e6:90:3f:6a:00:8e:23:
                    c5:01:10:09:b5:e7:e7:69:f2:fb:e6:94:76:b3:02:
                    da:45:da:66:f6:af:1e:43:c9:46:e6:0c:11:3a:93:
                    d6:20:b5:02:cf:8f:87:73:68:92:54:a0:f0:db:7e:
                    9d:9c:0f:c5:1b:71:9d:63:0d:c4:8d:83:52:e7:5e:
                    e1:30:9f:7d:29:a9:68:13:1e:36:67:b1:73:30:d0:
                    2e:db:b8:b3:7f:14:b1:d8:d0:6e:91:34:55:82:eb:
                    cc:67:59:0c:0a:43:1c:71:41:9f:7f:37:77:3c:7e:
                    f5:d7:e2:2d:91:a4:15:86:ff:65:07:ff:4a:fe:76:
                    5c:dd:61:ef:77:68:53:96:59:57:9a:73:32:39:2e:
                    b7:65:96:3f:fa:f6:07:69:c8:85:82:1a:05:85:b4:
                    3d:01:8b:ca:28:30:91:4d:f2:b3:a3:cc:b1:0a:9d:
                    62:00:1e:3d:10:de:ad:83:c3:f9:7f:b9:ca:ce:71:
                    94:c2:3e:0f:38:ac:54:0c:f3:c0:95:76:b6:c4:38:
                    f9:7f:98:23:1f:e8:22:1e:64:96:dd:a9:c0:3a:58:
                    a5:e7:20:bc:8d:9a:59:6b:5b:41:ad:30:fd:68:10:
                    54:31:ae:e5:de:1b:7f:d2:27:d0:74:5d:a4:66:c6:
                    70:d1:7d:5e:32:51:c3:e0:6f:f3:df:38:6c:10:0b:
                    6e:fd:fb:b7:a0:d6:2b:a7:2f:c4:2d:7a:ba:10:f7:
                    17:f4:df:02:6c:bb:7e:2b:38:02:8e:ab:f9:0f:90:
                    28:27:dd:81:d9:78:95:17:14:e6:b7:6b:be:12:e5:
                    2d:0d:cd:b7:7e:7a:1a:d8:4e:92:9e:da:01:6f:ae:
                    ca:d1:1a:cf:91:44:ab:5a:d8:57:c4:9b:ce:7d:9f:
                    fc:91:0e:6e:19:b6:31:e9:df:1c:f4:49:7a:ca:31:
                    91:83:8a:88:50:bc:c0:c5:42:04:42:6c:3d:51:57:
                    2f:1c:40:e0:df:d5:6b:e7:22:f4:46:9c:4f:a8:94:
                    ee:66:9b:f6:70:ff:7f:52:f0:0c:27:50:9c:d2:06:
                    24:3e:91:7a:4b:4a:1c:7a:66:85:b6:30:12:c2:b6:
                    52:32:e2:13:a1:07:93:45:44:eb:3e:32:71:20:e1:
                    52:c8:7b
                Exponent: 65537 (0x10001)
        X509v3 extensions:
            Authority Information Access: 
                CA Issuers - URI:http://root-ca.Teleco.com/root-ca.crt
                OCSP - URI:http://ocsp.root-ca.Teleco.com:9080

            X509v3 Authority Key Identifier: 
                keyid:4F:5C:C0:E0:D3:03:4E:BD:A5:8D:EB:EA:23:DD:29:41:92:E9:2E:AB

            X509v3 Basic Constraints: critical
                CA:TRUE, pathlen:0
            X509v3 CRL Distribution Points: 

                Full Name:
                  URI:http://root-ca.Teleco.com/root-ca.crl

            X509v3 Extended Key Usage: 
                TLS Web Client Authentication, TLS Web Server Authentication
            X509v3 Key Usage: critical
                Certificate Sign, CRL Sign
            X509v3 Name Constraints: 
                Permitted:
                  DNS:example.com
                  DNS:example.org
                Excluded:
                  IP:0.0.0.0/0.0.0.0
                  IP:0:0:0:0:0:0:0:0/0:0:0:0:0:0:0:0

            X509v3 Subject Key Identifier: 
                71:30:00:89:48:03:D5:F3:88:39:6A:90:FF:E7:E0:B1:86:63:6C:A1
    Signature Algorithm: sha256WithRSAEncryption
         68:02:ac:d2:52:8e:16:f1:4e:e6:fa:a9:dc:db:7f:16:fa:e9:
         ce:a9:68:64:0a:77:da:ed:82:8a:b9:b8:9c:a0:cd:8c:6e:98:
         29:02:0c:75:aa:23:b0:32:e5:81:2b:7b:a4:26:6e:40:9e:62:
         89:ca:da:b2:94:9e:16:db:a7:bd:72:7a:35:6d:3d:c2:52:c0:
         62:8d:ad:59:45:85:f6:28:0d:4a:dc:db:8b:5f:4b:d8:94:fd:
         fe:3a:fb:26:d7:f5:70:c1:b4:06:f2:3d:0b:1a:71:ee:b4:76:
         02:1e:5a:82:45:9b:85:cb:30:b8:2f:84:5b:0a:c3:b7:7e:48:
         bf:3e:78:40:7f:2a:ba:88:d9:08:12:aa:e1:dc:97:fe:d4:39:
         97:8b:70:44:19:e9:83:19:14:43:10:5d:10:3e:5b:55:a9:be:
         58:27:04:ea:cc:28:6e:57:e5:e5:fa:7b:ed:16:89:fd:a2:72:
         f2:2f:ea:9e:eb:67:fe:4b:ac:73:e5:87:86:23:ab:7c:f9:61:
         4f:6e:b9:4c:ba:63:58:3b:39:8d:6e:67:b9:c8:59:5f:ae:86:
         ca:d6:49:3a:c9:69:e4:fa:56:0a:1f:7d:2b:24:a3:95:f0:16:
         a5:ad:48:74:d7:b6:30:d3:9f:9b:1c:81:fd:26:29:4d:7a:06:
         b4:28:16:7d:4a:57:fe:db:f2:80:c5:d4:97:f8:b4:ae:fb:fe:
         ce:b6:6a:3d:76:e9:0c:08:66:14:76:03:d1:43:77:16:8e:d5:
         7b:cc:29:ec:77:1d:e7:75:c4:c4:51:c2:5e:86:0a:4c:f5:d2:
         5a:e3:49:e9:f4:bc:73:6a:9c:08:63:45:c3:d4:02:94:53:f6:
         7a:86:a0:97:48:a8:45:c8:a1:a2:1e:e3:1e:d7:64:5d:92:e9:
         3f:81:6e:79:fa:df:c2:8e:bd:e5:65:12:a7:91:9e:db:e5:19:
         1f:16:4e:c7:73:76:ab:3a:45:66:aa:19:6c:8c:90:7a:de:f1:
         01:9c:fd:42:a2:d9:c8:aa:a0:28:2c:20:c0:fe:9e:7e:96:62:
         38:c3:bc:07:00:64:f4:f9:43:6e:cb:06:1c:bd:c3:c7:0b:bc:
         b3:d4:60:2a:64:42:3a:1e:88:e9:6a:49:e6:55:f6:05:80:d6:
         d3:43:31:a9:56:7a:75:2c:d3:77:38:5d:05:f5:2d:78:cc:a6:
         57:e6:83:05:3d:b3:dd:c8:e2:7f:40:36:9e:b6:fe:6c:43:37:
         75:48:2a:2e:e1:94:eb:6c:9f:db:e7:57:7b:58:4f:d6:0d:88:
         79:18:03:1b:96:65:ae:65:77:7c:56:67:32:f6:28:4d:8d:5a:
         01:f5:fa:4d:c0:31:f2:f1
-----BEGIN CERTIFICATE-----
MIIGfjCCBGagAwIBAgIQCRzw7wO+Q/pg5k5IOJLxRzANBgkqhkiG9w0BAQsFADAw
MQswCQYDVQQGEwJFUzEPMA0GA1UECgwGVGVsZWNvMRAwDgYDVQQDDAdSb290IENB
MB4XDTIzMDQwNTA5MzE1N1oXDTMzMDQwMjA5MzE1N1owMjELMAkGA1UEBhMCRVMx
DzANBgNVBAoMBlRlbGVjbzESMBAGA1UEAwwJU2VydmVyIENBMIICIjANBgkqhkiG
9w0BAQEFAAOCAg8AMIICCgKCAgEAzJKCY/lasksZ6+IkmcyHG1JiEw5DsMuMtdu6
ENm5Is0P1qhEpiOWkjhvEq8EYuXL7dB1TSa9cJCrBNvbEw8Ttr16xk88e8WFReHM
tEWW7uOCC+aQP2oAjiPFARAJtefnafL75pR2swLaRdpm9q8eQ8lG5gwROpPWILUC
z4+Hc2iSVKDw236dnA/FG3GdYw3EjYNS517hMJ99KaloEx42Z7FzMNAu27izfxSx
2NBukTRVguvMZ1kMCkMccUGffzd3PH711+ItkaQVhv9lB/9K/nZc3WHvd2hTlllX
mnMyOS63ZZY/+vYHaciFghoFhbQ9AYvKKDCRTfKzo8yxCp1iAB49EN6tg8P5f7nK
znGUwj4POKxUDPPAlXa2xDj5f5gjH+giHmSW3anAOlil5yC8jZpZa1tBrTD9aBBU
Ma7l3ht/0ifQdF2kZsZw0X1eMlHD4G/z3zhsEAtu/fu3oNYrpy/ELXq6EPcX9N8C
bLt+KzgCjqv5D5AoJ92B2XiVFxTmt2u+EuUtDc23fnoa2E6SntoBb67K0RrPkUSr
WthXxJvOfZ/8kQ5uGbYx6d8c9El6yjGRg4qIULzAxUIEQmw9UVcvHEDg39Vr5yL0
RpxPqJTuZpv2cP9/UvAMJ1Cc0gYkPpF6S0ocemaFtjASwrZSMuIToQeTRUTrPjJx
IOFSyHsCAwEAAaOCAZAwggGMMHIGCCsGAQUFBwEBBGYwZDAxBggrBgEFBQcwAoYl
aHR0cDovL3Jvb3QtY2EuVGVsZWNvLmNvbS9yb290LWNhLmNydDAvBggrBgEFBQcw
AYYjaHR0cDovL29jc3Aucm9vdC1jYS5UZWxlY28uY29tOjkwODAwHwYDVR0jBBgw
FoAUT1zA4NMDTr2ljevqI90pQZLpLqswEgYDVR0TAQH/BAgwBgEB/wIBADA2BgNV
HR8ELzAtMCugKaAnhiVodHRwOi8vcm9vdC1jYS5UZWxlY28uY29tL3Jvb3QtY2Eu
Y3JsMB0GA1UdJQQWMBQGCCsGAQUFBwMCBggrBgEFBQcDATAOBgNVHQ8BAf8EBAMC
AQYwWwYDVR0eBFQwUqAeMA2CC2V4YW1wbGUuY29tMA2CC2V4YW1wbGUub3JnoTAw
CocIAAAAAAAAAAAwIocgAAAAAAAAAAAAAAAAAAAAAAAAAAAAAAAAAAAAAAAAAAAw
HQYDVR0OBBYEFHEwAIlIA9XziDlqkP/n4LGGY2yhMA0GCSqGSIb3DQEBCwUAA4IC
AQBoAqzSUo4W8U7m+qnc238W+unOqWhkCnfa7YKKubicoM2MbpgpAgx1qiOwMuWB
K3ukJm5AnmKJytqylJ4W26e9cno1bT3CUsBija1ZRYX2KA1K3NuLX0vYlP3+Ovsm
1/VwwbQG8j0LGnHutHYCHlqCRZuFyzC4L4RbCsO3fki/PnhAfyq6iNkIEqrh3Jf+
1DmXi3BEGemDGRRDEF0QPltVqb5YJwTqzChuV+Xl+nvtFon9onLyL+qe62f+S6xz
5YeGI6t8+WFPbrlMumNYOzmNbme5yFlfrobK1kk6yWnk+lYKH30rJKOV8BalrUh0
17Yw05+bHIH9JilNega0KBZ9Slf+2/KAxdSX+LSu+/7Otmo9dukMCGYUdgPRQ3cW
jtV7zCnsdx3ndcTEUcJehgpM9dJa40np9LxzapwIY0XD1AKUU/Z6hqCXSKhFyKGi
HuMe12Rdkuk/gW55+t/Cjr3lZRKnkZ7b5RkfFk7Hc3arOkVmqhlsjJB63vEBnP1C
otnIqqAoLCDA/p5+lmI4w7wHAGT0+UNuywYcvcPHC7yz1GAqZEI6HojpaknmVfYF
gNbTQzGpVnp1LNN3OF0F9S14zKZX5oMFPbPdyOJ/QDaetv5sQzd1SCou4ZTrbJ/b
51d7WE/WDYh5GAMblmWuZXd8Vmcy9ihNjVoB9fpNwDHy8Q==
-----END CERTIFICATE-----
