Certificate:
    Data:
        Version: 3 (0x2)
        Serial Number:
            09:1c:f0:ef:03:be:43:fa:60:e6:4e:48:38:92:f1:3f
        Signature Algorithm: sha256WithRSAEncryption
        Issuer: C=ES, O=Teleco, CN=Root CA
        Validity
            Not Before: Apr  4 15:01:13 2023 GMT
            Not After : Apr  1 15:01:13 2033 GMT
        Subject: C=ES, O=Teleco, CN=Client CA
        Subject Public Key Info:
            Public Key Algorithm: rsaEncryption
                RSA Public-Key: (4096 bit)
                Modulus:
                    00:a4:be:28:72:87:e7:c3:7d:d0:96:63:0b:f6:f8:
                    93:7a:0c:01:fc:aa:b3:4a:f3:bc:78:13:f0:fa:3e:
                    67:ce:7f:02:10:da:4f:ed:0a:77:e5:d3:ab:c6:6d:
                    44:3b:ec:69:fb:8a:c7:54:4a:ca:9c:66:3e:00:f4:
                    fd:f0:ac:58:7e:df:1e:de:03:e5:32:1f:cd:37:eb:
                    fd:4c:41:da:13:9a:15:84:8e:a8:8f:7d:d8:6a:7b:
                    b0:66:d3:2e:f3:bd:e6:2c:d1:d4:c6:00:33:17:61:
                    c2:4a:c6:62:e4:20:6f:d3:d3:fb:8a:65:9c:42:bf:
                    b2:ea:1a:63:0c:dd:5b:4d:b5:77:7e:d8:1a:d1:c3:
                    49:37:c9:9f:c9:ce:92:7f:d3:58:96:92:2e:7e:f4:
                    a0:70:c3:73:33:75:63:b0:7f:9e:4a:c8:3d:55:d6:
                    90:9b:d5:b9:8f:b9:7d:1a:ae:f2:b0:42:66:b6:a6:
                    1c:44:7c:97:70:25:d3:70:b2:42:93:86:a8:6e:de:
                    98:fc:c9:01:8c:3d:03:37:33:46:82:de:25:87:6a:
                    dd:56:4a:00:6c:ac:62:fe:a6:59:6e:c8:a7:9c:fe:
                    cc:67:8a:d1:ae:f2:6f:6c:a7:8e:c4:0b:2a:86:7b:
                    73:2e:b4:62:85:cc:ad:b0:d0:4a:61:b7:15:f0:c3:
                    98:bc:5c:54:ca:99:f3:ff:26:07:77:9b:74:52:b5:
                    52:13:28:67:20:ce:8c:dc:ba:f5:56:a9:e7:1f:0b:
                    df:ba:73:d1:48:57:ab:1f:da:f5:5b:62:e7:55:24:
                    6e:8a:29:d5:59:4a:4b:cd:ce:39:06:75:5d:8b:e1:
                    6d:3d:e5:ec:d3:83:5e:b2:f7:69:d3:f2:32:dd:c0:
                    f3:49:b1:bc:c0:65:a8:87:d4:2b:33:3d:61:a0:4f:
                    4b:af:4a:b1:16:2d:bc:94:a0:ea:21:f0:62:ab:12:
                    4b:00:8a:cd:99:c1:4f:a6:ac:bc:8c:3d:66:eb:cb:
                    ec:b8:94:a2:ed:c3:ca:85:71:86:9c:50:8e:bc:11:
                    45:ab:c2:a4:e2:56:e9:db:55:4f:99:31:0b:58:b9:
                    77:b9:29:b2:38:1d:e9:4a:d6:4c:16:60:d2:35:61:
                    d7:70:b5:c7:59:cb:84:56:37:a1:dd:66:70:90:06:
                    56:2f:ae:ed:35:d3:69:7e:bc:32:46:27:01:48:67:
                    23:bb:46:80:1c:a4:19:6d:b6:2c:9a:ea:4e:48:18:
                    9c:61:28:b9:1f:14:b3:85:ad:3c:f0:e9:95:30:cd:
                    84:73:7a:14:54:90:c6:38:3d:d8:73:9c:a3:35:38:
                    44:6d:4d:58:c6:32:7b:93:82:f8:f7:71:6b:db:1b:
                    da:43:e1
                Exponent: 65537 (0x10001)
        X509v3 extensions:
            Authority Information Access: 
                OCSP - URI:http://localhost:9080/

            X509v3 Authority Key Identifier: 
                keyid:FF:49:E2:E4:B8:A1:21:F1:7A:6A:1A:B6:5A:40:C0:E3:E7:D6:D6:5E

            X509v3 Basic Constraints: critical
                CA:TRUE, pathlen:0
            X509v3 CRL Distribution Points: 

                Full Name:
                  URI:http://root-ca.Teleco.com/root-ca.crl

            X509v3 Extended Key Usage: 
                TLS Web Client Authentication, TLS Web Server Authentication, OCSP Signing
            X509v3 Key Usage: critical
                Certificate Sign, CRL Sign
            X509v3 Name Constraints: 
                Permitted:
                  DNS:example.com
                  DNS:example.org
                Excluded:
                  IP:0.0.0.0/0.0.0.0
                  IP:0:0:0:0:0:0:0:0/0:0:0:0:0:0:0:0

            X509v3 Subject Key Identifier: 
                AF:F9:FE:86:F6:4B:37:FA:61:5A:78:C0:6B:00:62:E8:54:11:C8:23
    Signature Algorithm: sha256WithRSAEncryption
         01:d0:71:84:aa:5e:3d:87:8e:dd:b2:44:d5:d4:2b:31:b5:a5:
         8c:54:41:89:1e:4f:02:81:de:ae:cc:8a:81:79:05:bd:32:84:
         7a:45:79:95:a6:dd:d0:96:ba:bd:aa:f3:b1:e0:31:d0:6c:d9:
         6a:9e:42:1f:82:6b:8f:10:71:c8:9b:72:85:40:64:16:5b:33:
         2f:2d:33:23:35:23:47:22:b8:62:cc:5a:4d:61:2f:4e:61:aa:
         63:45:4f:f6:21:fb:43:e4:ba:56:c5:77:83:b6:05:ea:d9:68:
         c9:17:8f:1a:12:3e:04:0f:53:d7:00:c4:8d:2e:e0:cd:df:de:
         3d:d6:ef:b3:59:58:ba:6f:4a:aa:48:b5:12:5b:ff:54:d7:40:
         c7:0a:45:9b:8f:1a:9e:1d:18:c4:b0:2a:61:ca:84:b9:97:d5:
         57:12:02:78:13:51:d2:ec:27:32:b3:6a:01:43:4b:29:20:d9:
         d5:e1:1b:2e:f3:a6:52:be:b2:cf:84:83:8e:f3:4f:b6:73:ea:
         3c:56:fc:41:65:4f:eb:b6:e4:4f:77:ae:16:d6:8e:41:6f:c3:
         47:1b:95:0f:2d:1d:55:55:29:ef:2a:3a:4c:01:ad:59:e2:f4:
         fa:c3:7f:70:e0:e7:2c:ea:1d:ed:c8:56:83:30:ac:db:8b:29:
         8a:5b:5b:69:2c:30:2e:ec:c1:8b:66:ed:0b:a6:bd:1b:4a:ab:
         1a:b4:82:fc:f5:0d:8b:67:8b:4a:52:d2:35:e6:72:61:68:60:
         a3:f3:68:78:2d:f0:65:b8:d7:d8:75:df:e5:e8:4b:7a:32:a5:
         6f:2a:e8:ba:39:14:2c:1c:90:cf:e9:15:9f:81:84:e9:08:d3:
         f3:d5:09:28:f0:d9:42:56:7c:de:ec:9d:2d:a7:d3:ac:01:bf:
         21:4c:15:10:06:8b:3a:fa:9a:0f:45:e1:fc:91:03:dd:7d:34:
         da:6d:5d:89:a0:af:fc:ac:45:4a:d0:a4:c0:d1:e8:3e:2e:2c:
         11:3a:06:c5:cb:4a:17:32:55:70:b8:df:c3:c3:b1:b8:12:25:
         95:62:3d:03:57:16:3b:8d:67:24:91:55:1d:58:2c:cf:d1:40:
         35:f9:50:25:27:82:90:df:80:16:bc:8c:b5:d4:0a:77:ac:8f:
         94:02:5d:d3:3a:8c:24:a2:9a:d0:5b:c1:c2:2f:eb:2f:93:80:
         59:63:58:90:da:6b:c6:46:28:c9:e6:34:4f:10:86:75:75:9e:
         4a:c8:df:3e:ce:0b:0f:d4:3c:0b:dd:cf:2b:a8:6a:26:91:bd:
         12:f0:3c:6a:5b:62:da:30:6a:5f:b5:4e:80:06:79:17:79:23:
         b1:67:23:a3:16:80:77:6b
-----BEGIN CERTIFICATE-----
MIIGSDCCBDCgAwIBAgIQCRzw7wO+Q/pg5k5IOJLxPzANBgkqhkiG9w0BAQsFADAw
MQswCQYDVQQGEwJFUzEPMA0GA1UECgwGVGVsZWNvMRAwDgYDVQQDDAdSb290IENB
MB4XDTIzMDQwNDE1MDExM1oXDTMzMDQwMTE1MDExM1owMjELMAkGA1UEBhMCRVMx
DzANBgNVBAoMBlRlbGVjbzESMBAGA1UEAwwJQ2xpZW50IENBMIICIjANBgkqhkiG
9w0BAQEFAAOCAg8AMIICCgKCAgEApL4ocofnw33QlmML9viTegwB/KqzSvO8eBPw
+j5nzn8CENpP7Qp35dOrxm1EO+xp+4rHVErKnGY+APT98KxYft8e3gPlMh/NN+v9
TEHaE5oVhI6oj33YanuwZtMu873mLNHUxgAzF2HCSsZi5CBv09P7imWcQr+y6hpj
DN1bTbV3ftga0cNJN8mfyc6Sf9NYlpIufvSgcMNzM3VjsH+eSsg9VdaQm9W5j7l9
Gq7ysEJmtqYcRHyXcCXTcLJCk4aobt6Y/MkBjD0DNzNGgt4lh2rdVkoAbKxi/qZZ
bsinnP7MZ4rRrvJvbKeOxAsqhntzLrRihcytsNBKYbcV8MOYvFxUypnz/yYHd5t0
UrVSEyhnIM6M3Lr1VqnnHwvfunPRSFerH9r1W2LnVSRuiinVWUpLzc45BnVdi+Ft
PeXs04Nesvdp0/Iy3cDzSbG8wGWoh9QrMz1hoE9Lr0qxFi28lKDqIfBiqxJLAIrN
mcFPpqy8jD1m68vsuJSi7cPKhXGGnFCOvBFFq8Kk4lbp21VPmTELWLl3uSmyOB3p
StZMFmDSNWHXcLXHWcuEVjeh3WZwkAZWL67tNdNpfrwyRicBSGcju0aAHKQZbbYs
mupOSBicYSi5HxSzha088OmVMM2Ec3oUVJDGOD3Yc5yjNThEbU1YxjJ7k4L493Fr
2xvaQ+ECAwEAAaOCAVowggFWMDIGCCsGAQUFBwEBBCYwJDAiBggrBgEFBQcwAYYW
aHR0cDovL2xvY2FsaG9zdDo5MDgwLzAfBgNVHSMEGDAWgBT/SeLkuKEh8XpqGrZa
QMDj59bWXjASBgNVHRMBAf8ECDAGAQH/AgEAMDYGA1UdHwQvMC0wK6ApoCeGJWh0
dHA6Ly9yb290LWNhLlRlbGVjby5jb20vcm9vdC1jYS5jcmwwJwYDVR0lBCAwHgYI
KwYBBQUHAwIGCCsGAQUFBwMBBggrBgEFBQcDCTAOBgNVHQ8BAf8EBAMCAQYwWwYD
VR0eBFQwUqAeMA2CC2V4YW1wbGUuY29tMA2CC2V4YW1wbGUub3JnoTAwCocIAAAA
AAAAAAAwIocgAAAAAAAAAAAAAAAAAAAAAAAAAAAAAAAAAAAAAAAAAAAwHQYDVR0O
BBYEFK/5/ob2Szf6YVp4wGsAYuhUEcgjMA0GCSqGSIb3DQEBCwUAA4ICAQAB0HGE
ql49h47dskTV1CsxtaWMVEGJHk8Cgd6uzIqBeQW9MoR6RXmVpt3Qlrq9qvOx4DHQ
bNlqnkIfgmuPEHHIm3KFQGQWWzMvLTMjNSNHIrhizFpNYS9OYapjRU/2IftD5LpW
xXeDtgXq2WjJF48aEj4ED1PXAMSNLuDN39491u+zWVi6b0qqSLUSW/9U10DHCkWb
jxqeHRjEsCphyoS5l9VXEgJ4E1HS7Ccys2oBQ0spINnV4Rsu86ZSvrLPhIOO80+2
c+o8VvxBZU/rtuRPd64W1o5Bb8NHG5UPLR1VVSnvKjpMAa1Z4vT6w39w4Ocs6h3t
yFaDMKzbiymKW1tpLDAu7MGLZu0Lpr0bSqsatIL89Q2LZ4tKUtI15nJhaGCj82h4
LfBluNfYdd/l6Et6MqVvKui6ORQsHJDP6RWfgYTpCNPz1Qko8NlCVnze7J0tp9Os
Ab8hTBUQBos6+poPReH8kQPdfTTabV2JoK/8rEVK0KTA0eg+LiwROgbFy0oXMlVw
uN/Dw7G4EiWVYj0DVxY7jWckkVUdWCzP0UA1+VAlJ4KQ34AWvIy11Ap3rI+UAl3T
OowkoprQW8HCL+svk4BZY1iQ2mvGRijJ5jRPEIZ1dZ5KyN8+zgsP1DwL3c8rqGom
kb0S8DxqW2LaMGpftU6ABnkXeSOxZyOjFoB3aw==
-----END CERTIFICATE-----
