Certificate:
    Data:
        Version: 3 (0x2)
        Serial Number:
            09:1c:f0:ef:03:be:43:fa:60:e6:4e:48:38:92:f1:38
        Signature Algorithm: sha256WithRSAEncryption
        Issuer: C=ES, O=Teleco, CN=Root CA
        Validity
            Not Before: Apr  3 22:11:36 2023 GMT
            Not After : Mar 31 22:11:36 2033 GMT
        Subject: C=ES, O=Teleco, CN=Server CA
        Subject Public Key Info:
            Public Key Algorithm: rsaEncryption
                RSA Public-Key: (4096 bit)
                Modulus:
                    00:c5:37:6f:9e:2c:60:7f:bb:db:9c:ab:f9:55:f0:
                    13:bd:0f:df:68:87:8d:17:7a:31:97:43:9e:5b:9c:
                    d9:0a:ce:cc:07:6d:98:49:c2:d3:4e:87:e0:88:1c:
                    4a:11:61:60:f7:33:21:a0:f6:0d:ad:58:ac:e9:b1:
                    57:40:48:7b:23:f7:9b:28:2d:fd:62:ee:fd:32:b6:
                    a6:d8:87:80:5c:8b:ff:db:97:66:00:f1:9f:03:15:
                    94:13:63:af:f0:ff:ca:6f:05:63:e5:f3:03:10:32:
                    f0:0d:07:73:23:18:da:1f:80:bb:f6:09:b3:93:92:
                    40:ca:28:ea:0e:a3:ae:4d:8e:3d:f8:e1:85:ce:73:
                    92:66:06:0a:0c:44:4f:2f:93:3f:b3:6d:56:3f:61:
                    8e:3a:23:45:9a:9e:79:de:90:55:a0:a6:7a:19:58:
                    7a:6d:43:06:4e:e1:ca:c5:c3:1a:89:be:bb:3f:83:
                    9e:18:98:b1:18:ec:51:13:1c:4e:7f:a3:9c:3b:1d:
                    e2:ab:f5:4c:1f:4f:f1:a3:39:22:3c:68:59:22:f6:
                    41:55:20:30:be:28:17:6d:bf:e2:81:53:44:0a:07:
                    23:9c:f1:51:7d:fc:d3:4d:fb:03:b2:f4:76:2b:34:
                    5a:bb:c6:ca:c4:c2:05:1a:b5:8e:2f:72:ec:39:ab:
                    1d:38:b5:c5:8f:82:b3:a2:eb:d3:43:e5:1c:d5:ba:
                    de:93:ba:96:bc:c0:f6:02:dc:f7:36:01:b9:96:61:
                    00:37:27:82:5b:ba:2e:c7:a4:12:7b:af:41:3a:e1:
                    65:b0:6f:68:c7:71:dc:08:90:5e:4b:ed:99:7c:02:
                    31:3b:9d:36:9c:b7:2a:f1:79:7d:90:5a:2c:d0:d2:
                    4e:b5:ea:18:37:0a:e9:f2:83:ff:fd:c9:a9:8d:20:
                    a3:09:d0:e7:89:2f:6e:0a:f1:ba:b7:8e:6c:ca:5f:
                    e0:b1:f0:2f:17:cc:0b:d7:a8:7e:60:c6:5b:49:b2:
                    04:f8:b5:12:0c:1f:d9:d8:e8:f8:b4:9c:a1:de:cd:
                    2a:5f:19:8e:1a:c4:c9:5f:1b:31:c6:5a:69:8e:e0:
                    8f:75:65:04:f2:05:08:97:fb:93:34:01:e1:b0:4a:
                    37:31:65:7f:0b:c6:89:6e:18:09:6a:6f:6a:6a:68:
                    88:a9:d7:68:b1:43:a6:f3:d5:c5:80:43:b0:bc:ed:
                    6e:32:a3:ff:ec:c1:98:02:13:44:c0:e2:1c:a6:12:
                    b3:ea:fc:e5:39:e6:a9:fd:d7:75:99:21:1e:f6:67:
                    f9:a2:54:a4:53:42:a3:ec:d5:90:2a:bd:05:4d:86:
                    52:63:92:61:b0:ac:c9:78:f6:ae:70:9e:d2:ec:8b:
                    4c:6d:21
                Exponent: 65537 (0x10001)
        X509v3 extensions:
            Authority Information Access: 
                CA Issuers - URI:http://root-ca.Teleco.com/root-ca.crt
                OCSP - URI:http://ocsp.root-ca.Teleco.com:9080

            X509v3 Authority Key Identifier: 
                keyid:27:4E:9A:9C:1E:BC:88:77:BB:84:6A:38:8B:ED:DA:7E:1E:E5:46:42

            X509v3 Basic Constraints: critical
                CA:TRUE, pathlen:0
            X509v3 CRL Distribution Points: 

                Full Name:
                  URI:http://root-ca.Teleco.com/root-ca.crl

            X509v3 Extended Key Usage: 
                TLS Web Client Authentication, TLS Web Server Authentication
            X509v3 Key Usage: critical
                Certificate Sign, CRL Sign
            X509v3 Name Constraints: 
                Permitted:
                  DNS:example.com
                  DNS:example.org
                Excluded:
                  IP:0.0.0.0/0.0.0.0
                  IP:0:0:0:0:0:0:0:0/0:0:0:0:0:0:0:0

            X509v3 Subject Key Identifier: 
                E4:FC:75:33:2A:C1:8C:7D:EC:25:D9:A8:CF:F1:7B:44:70:5A:79:9F
    Signature Algorithm: sha256WithRSAEncryption
         bc:0f:fd:95:03:a5:1f:d1:99:e7:7e:77:4d:69:a4:dd:03:45:
         73:da:72:64:76:4a:19:6c:e1:fe:09:25:13:5c:63:44:65:21:
         34:ed:82:80:23:4c:4e:17:1f:46:83:d6:e7:ce:a0:4f:17:eb:
         9d:e1:83:48:46:67:38:3f:03:9a:5e:91:8a:ee:74:71:b8:58:
         57:fa:8d:3a:c4:e9:82:a0:a0:da:f3:1b:30:a6:05:eb:71:38:
         f3:1b:ff:d2:79:c9:67:50:d3:40:65:14:5e:25:fb:2e:ac:bf:
         c2:6e:5b:d7:63:11:ae:a7:cf:33:0b:5d:5d:d3:cb:e5:a8:df:
         9b:29:a5:35:74:f0:4d:0d:e9:6b:b0:81:89:a7:dd:f1:b8:f1:
         e1:fb:d9:e9:4e:63:40:d6:24:e7:3a:47:01:5e:f0:89:61:47:
         e9:01:bb:98:b5:43:db:84:fb:6d:94:30:86:26:20:31:ff:f7:
         a0:76:68:44:e8:07:cb:17:13:98:a3:0a:f8:99:9c:56:3c:a4:
         b3:33:ac:81:92:f0:23:06:67:21:a5:e1:ed:11:0f:13:24:57:
         f8:62:61:a8:1c:3d:c1:f2:b5:7a:74:6e:d7:77:ec:97:9d:0a:
         2b:a6:27:1d:37:6b:4d:4e:8f:a7:be:8e:52:ec:85:be:1a:14:
         a8:fe:86:35:ef:89:29:cb:5e:f3:84:55:91:c9:ee:7a:67:d5:
         71:38:70:26:7b:cc:65:88:9f:74:f7:0c:c0:f4:32:3e:59:78:
         48:b5:e9:d5:38:d9:03:5c:be:4f:2e:83:ff:e0:16:c7:bf:44:
         55:a0:9b:de:d9:88:9f:21:0d:1d:0f:37:33:c2:d2:58:e2:85:
         51:1d:89:91:37:18:80:9b:ca:f6:fa:7d:f4:23:5a:76:2b:98:
         9b:ff:c0:2c:36:b4:6a:f8:89:68:fc:56:7b:8d:5d:7c:d4:8c:
         a8:c4:1b:dc:d7:34:94:ae:73:17:ad:00:72:f8:9b:2e:2a:8e:
         2b:b6:4f:c0:61:2b:24:35:3b:28:a3:c1:bb:db:f6:bf:94:bc:
         15:2f:52:ba:72:4c:41:c6:9f:a4:15:a4:06:fe:d2:d3:e9:43:
         d3:79:bd:76:4b:d8:ed:08:46:1e:96:20:b2:01:33:48:ea:bf:
         ff:45:08:d2:f7:ad:cb:39:ea:a0:ef:fe:5f:90:a3:1d:40:72:
         19:e8:92:84:c4:e8:da:4a:7e:c2:da:28:c2:4f:be:fe:66:a8:
         1f:a2:cd:17:30:72:00:1e:87:b2:3a:13:ee:42:c7:c9:5c:3f:
         60:9e:fc:c7:5c:c4:c0:5d:96:f8:7b:e1:d4:aa:2a:6e:ec:e5:
         08:03:1e:81:50:17:ed:86
-----BEGIN CERTIFICATE-----
MIIGfjCCBGagAwIBAgIQCRzw7wO+Q/pg5k5IOJLxODANBgkqhkiG9w0BAQsFADAw
MQswCQYDVQQGEwJFUzEPMA0GA1UECgwGVGVsZWNvMRAwDgYDVQQDDAdSb290IENB
MB4XDTIzMDQwMzIyMTEzNloXDTMzMDMzMTIyMTEzNlowMjELMAkGA1UEBhMCRVMx
DzANBgNVBAoMBlRlbGVjbzESMBAGA1UEAwwJU2VydmVyIENBMIICIjANBgkqhkiG
9w0BAQEFAAOCAg8AMIICCgKCAgEAxTdvnixgf7vbnKv5VfATvQ/faIeNF3oxl0Oe
W5zZCs7MB22YScLTTofgiBxKEWFg9zMhoPYNrVis6bFXQEh7I/ebKC39Yu79Mram
2IeAXIv/25dmAPGfAxWUE2Ov8P/KbwVj5fMDEDLwDQdzIxjaH4C79gmzk5JAyijq
DqOuTY49+OGFznOSZgYKDERPL5M/s21WP2GOOiNFmp553pBVoKZ6GVh6bUMGTuHK
xcMaib67P4OeGJixGOxRExxOf6OcOx3iq/VMH0/xozkiPGhZIvZBVSAwvigXbb/i
gVNECgcjnPFRffzTTfsDsvR2KzRau8bKxMIFGrWOL3LsOasdOLXFj4KzouvTQ+Uc
1brek7qWvMD2Atz3NgG5lmEANyeCW7oux6QSe69BOuFlsG9ox3HcCJBeS+2ZfAIx
O502nLcq8Xl9kFos0NJOteoYNwrp8oP//cmpjSCjCdDniS9uCvG6t45syl/gsfAv
F8wL16h+YMZbSbIE+LUSDB/Z2Oj4tJyh3s0qXxmOGsTJXxsxxlppjuCPdWUE8gUI
l/uTNAHhsEo3MWV/C8aJbhgJam9qamiIqddosUOm89XFgEOwvO1uMqP/7MGYAhNE
wOIcphKz6vzlOeap/dd1mSEe9mf5olSkU0Kj7NWQKr0FTYZSY5JhsKzJePaucJ7S
7ItMbSECAwEAAaOCAZAwggGMMHIGCCsGAQUFBwEBBGYwZDAxBggrBgEFBQcwAoYl
aHR0cDovL3Jvb3QtY2EuVGVsZWNvLmNvbS9yb290LWNhLmNydDAvBggrBgEFBQcw
AYYjaHR0cDovL29jc3Aucm9vdC1jYS5UZWxlY28uY29tOjkwODAwHwYDVR0jBBgw
FoAUJ06anB68iHe7hGo4i+3afh7lRkIwEgYDVR0TAQH/BAgwBgEB/wIBADA2BgNV
HR8ELzAtMCugKaAnhiVodHRwOi8vcm9vdC1jYS5UZWxlY28uY29tL3Jvb3QtY2Eu
Y3JsMB0GA1UdJQQWMBQGCCsGAQUFBwMCBggrBgEFBQcDATAOBgNVHQ8BAf8EBAMC
AQYwWwYDVR0eBFQwUqAeMA2CC2V4YW1wbGUuY29tMA2CC2V4YW1wbGUub3JnoTAw
CocIAAAAAAAAAAAwIocgAAAAAAAAAAAAAAAAAAAAAAAAAAAAAAAAAAAAAAAAAAAw
HQYDVR0OBBYEFOT8dTMqwYx97CXZqM/xe0RwWnmfMA0GCSqGSIb3DQEBCwUAA4IC
AQC8D/2VA6Uf0ZnnfndNaaTdA0Vz2nJkdkoZbOH+CSUTXGNEZSE07YKAI0xOFx9G
g9bnzqBPF+ud4YNIRmc4PwOaXpGK7nRxuFhX+o06xOmCoKDa8xswpgXrcTjzG//S
eclnUNNAZRReJfsurL/CblvXYxGup88zC11d08vlqN+bKaU1dPBNDelrsIGJp93x
uPHh+9npTmNA1iTnOkcBXvCJYUfpAbuYtUPbhPttlDCGJiAx//egdmhE6AfLFxOY
owr4mZxWPKSzM6yBkvAjBmchpeHtEQ8TJFf4YmGoHD3B8rV6dG7Xd+yXnQorpicd
N2tNTo+nvo5S7IW+GhSo/oY174kpy17zhFWRye56Z9VxOHAme8xliJ909wzA9DI+
WXhItenVONkDXL5PLoP/4BbHv0RVoJve2YifIQ0dDzczwtJY4oVRHYmRNxiAm8r2
+n30I1p2K5ib/8AsNrRq+Ilo/FZ7jV181IyoxBvc1zSUrnMXrQBy+JsuKo4rtk/A
YSskNTsoo8G72/a/lLwVL1K6ckxBxp+kFaQG/tLT6UPTeb12S9jtCEYeliCyATNI
6r//RQjS963LOeqg7/5fkKMdQHIZ6JKExOjaSn7C2ijCT77+Zqgfos0XMHIAHoey
OhPuQsfJXD9gnvzHXMTAXZb4e+HUqipu7OUIAx6BUBfthg==
-----END CERTIFICATE-----
