Certificate:
    Data:
        Version: 3 (0x2)
        Serial Number:
            09:1c:f0:ef:03:be:43:fa:60:e6:4e:48:38:92:f1:49
        Signature Algorithm: sha256WithRSAEncryption
        Issuer: C=ES, O=Teleco, CN=Root CA
        Validity
            Not Before: Apr  5 09:40:41 2023 GMT
            Not After : Apr  2 09:40:41 2033 GMT
        Subject: C=ES, O=Teleco, CN=Server CA
        Subject Public Key Info:
            Public Key Algorithm: rsaEncryption
                RSA Public-Key: (4096 bit)
                Modulus:
                    00:a7:39:0e:c7:72:fc:27:49:58:99:17:c9:69:55:
                    30:b7:04:51:ad:0f:fe:69:12:9a:38:57:c3:11:91:
                    2c:bb:85:9b:b6:18:8c:18:d2:9e:9b:32:07:59:66:
                    00:89:0a:ec:7d:f6:5c:2c:0a:b9:cc:f0:1e:2d:fb:
                    45:2b:70:f6:3f:0e:53:9a:f9:2c:63:71:c0:8f:41:
                    c6:73:b6:41:dd:36:06:c4:ba:1d:05:07:77:bf:1e:
                    2b:de:a5:8f:40:98:71:42:fb:f0:26:ce:cf:c5:97:
                    54:e7:64:c5:31:c1:6a:e6:b1:92:c7:d6:3f:70:c6:
                    52:d5:72:23:2b:12:8a:0b:46:b5:a4:c1:76:1f:67:
                    82:a0:d7:0d:fc:23:3c:68:5e:80:d2:25:59:24:ac:
                    3e:d0:a9:25:35:a3:bc:9b:55:4c:2d:48:89:53:67:
                    60:1b:e3:8b:e2:e2:92:12:8e:ed:71:76:dd:a7:22:
                    4b:89:d0:17:1d:96:fb:6c:f0:ff:6b:5a:f8:e4:0c:
                    8c:04:67:f3:f6:2f:02:97:c7:bf:11:01:18:cb:8f:
                    a3:4c:d4:e3:2f:39:8d:d5:20:6d:0a:c9:99:46:0e:
                    2d:95:0d:52:e7:45:8b:e8:af:42:ea:7b:f7:e4:d3:
                    a1:17:10:28:ec:55:2f:aa:a2:c7:8b:ee:04:cf:e4:
                    1a:ca:a3:aa:da:23:72:20:53:23:0e:a1:21:f9:99:
                    cc:fb:18:d4:32:7c:65:69:55:a4:97:ad:ee:00:82:
                    ae:96:20:18:0b:22:c2:6c:98:19:72:cc:2a:8f:93:
                    bc:97:27:4c:be:e3:51:25:b2:89:ef:40:c4:10:1b:
                    d3:19:33:74:15:a6:88:21:20:9a:db:02:66:fe:7f:
                    c0:c6:33:03:ee:87:b2:df:3f:a5:28:94:d2:ac:2b:
                    51:5b:d3:98:74:1d:2d:a8:23:ca:bd:89:fa:20:43:
                    91:4f:d0:82:b1:b7:f7:e1:ef:d2:c8:d5:dd:16:66:
                    8b:1d:93:d2:ae:0f:d5:7e:83:8e:3a:71:ff:ed:d0:
                    6a:a5:c5:e1:59:98:98:83:bb:66:2c:75:c5:89:ce:
                    08:8e:bc:aa:7b:08:6e:c7:b7:9d:f5:f5:3f:26:a8:
                    c7:62:f7:34:ca:0b:78:a1:76:64:fa:43:b9:73:33:
                    a4:5c:8f:87:1b:77:92:57:4d:c0:13:c2:fe:56:0c:
                    e2:85:9a:65:7c:aa:bc:0f:27:3f:f5:87:a0:45:8a:
                    ef:60:a1:7e:14:4e:92:fb:73:c6:0a:87:0a:85:02:
                    0c:8c:6e:87:54:49:c4:5d:90:80:2a:bf:7c:9d:e5:
                    c9:61:88:47:2b:73:69:3a:28:15:64:65:b2:69:4e:
                    f4:7a:1d
                Exponent: 65537 (0x10001)
        X509v3 extensions:
            Authority Information Access: 
                CA Issuers - URI:http://root-ca.Teleco.com/root-ca.crt
                OCSP - URI:http://ocsp.root-ca.Teleco.com:9080

            X509v3 Authority Key Identifier: 
                keyid:4F:5C:C0:E0:D3:03:4E:BD:A5:8D:EB:EA:23:DD:29:41:92:E9:2E:AB

            X509v3 Basic Constraints: critical
                CA:TRUE, pathlen:0
            X509v3 CRL Distribution Points: 

                Full Name:
                  URI:http://root-ca.Teleco.com/root-ca.crl

            X509v3 Extended Key Usage: 
                TLS Web Client Authentication, TLS Web Server Authentication
            X509v3 Key Usage: critical
                Certificate Sign, CRL Sign
            X509v3 Subject Key Identifier: 
                46:D1:59:71:A8:1F:2F:91:13:0E:17:8E:BB:8E:AA:3F:2B:9D:9D:EC
    Signature Algorithm: sha256WithRSAEncryption
         84:8b:e6:b3:1b:18:0e:3d:33:e8:39:e6:82:0c:4f:65:48:a6:
         c6:9d:6e:b6:27:ef:00:cc:70:e7:b4:a6:f4:b4:88:4f:6d:ec:
         c0:50:c4:2b:51:fd:75:96:1b:35:87:14:67:21:1e:78:d2:3d:
         c6:b0:db:3a:9c:ed:19:7a:73:4b:9b:01:c1:8c:60:37:9b:cd:
         be:2b:a8:a6:cc:dc:ea:19:4f:bc:a4:c6:df:f7:aa:0e:77:ae:
         5d:a8:0b:1f:fc:54:93:54:2d:33:ab:92:87:c1:c1:1e:38:0f:
         f7:5f:65:fb:51:4f:36:7f:71:3c:30:80:47:0f:64:d1:36:83:
         62:9c:ea:80:d1:bd:a1:f3:ed:0b:e2:fa:4e:31:a9:80:e1:64:
         ed:0d:e9:00:42:62:c7:2b:64:d3:f1:61:ac:b7:f2:c8:fa:15:
         c6:97:f0:58:d6:b6:ba:dd:b8:f6:eb:09:36:7a:bf:63:3a:69:
         65:08:00:b4:d5:51:9e:57:07:91:87:d4:8f:11:9b:fd:6a:e5:
         5f:53:58:58:5a:35:34:99:18:99:23:a9:59:9d:d7:89:50:ae:
         02:11:ad:b9:02:e4:cd:7e:5a:f5:3b:a4:a0:ec:57:6b:fa:19:
         31:f5:46:c2:fb:ea:c6:04:45:38:c2:43:24:f6:ed:7c:41:51:
         df:58:8a:93:1e:79:b1:bd:18:4c:b8:f8:5f:18:65:df:5d:06:
         f6:7f:92:ea:30:59:21:5d:3c:5b:45:76:4c:9a:8f:ec:ac:f2:
         cc:c9:cc:25:92:ba:cb:f8:70:89:e8:db:52:6b:ba:fa:e5:b2:
         6a:bb:1c:93:79:03:cc:16:c5:f6:83:db:22:ec:21:fa:f0:f9:
         ce:f4:bd:35:9a:b0:c2:ba:b8:f3:d0:d1:12:49:45:e5:e0:4b:
         96:12:8e:76:11:8f:86:c6:08:2f:63:ef:d0:17:1c:4a:f9:8c:
         19:8b:c2:2e:d8:5c:be:58:eb:20:b7:b7:7e:62:12:9f:af:e3:
         e3:0c:1c:d9:27:16:85:ab:f7:85:a4:eb:d9:73:14:c9:13:da:
         88:d5:42:ff:6a:3d:11:5f:08:5b:bd:63:9c:d5:f6:f1:ff:33:
         08:e7:5a:05:26:64:bd:6a:28:68:ad:b4:73:d4:3b:ce:cd:35:
         ca:c5:5c:d6:b1:ec:0c:a7:f3:83:9b:7a:35:a1:ac:fc:5f:5b:
         84:73:29:a9:05:8c:ba:c3:91:4e:9b:7f:c2:a2:8e:b9:68:b4:
         a0:3c:96:fe:4a:56:7f:ee:9a:5c:2b:32:67:dc:27:d6:9f:dc:
         c4:c4:bd:c2:f2:37:87:b9:75:7b:00:80:62:51:39:3c:ff:e8:
         c0:a7:a5:f4:7b:6a:26:e5
-----BEGIN CERTIFICATE-----
MIIGITCCBAmgAwIBAgIQCRzw7wO+Q/pg5k5IOJLxSTANBgkqhkiG9w0BAQsFADAw
MQswCQYDVQQGEwJFUzEPMA0GA1UECgwGVGVsZWNvMRAwDgYDVQQDDAdSb290IENB
MB4XDTIzMDQwNTA5NDA0MVoXDTMzMDQwMjA5NDA0MVowMjELMAkGA1UEBhMCRVMx
DzANBgNVBAoMBlRlbGVjbzESMBAGA1UEAwwJU2VydmVyIENBMIICIjANBgkqhkiG
9w0BAQEFAAOCAg8AMIICCgKCAgEApzkOx3L8J0lYmRfJaVUwtwRRrQ/+aRKaOFfD
EZEsu4WbthiMGNKemzIHWWYAiQrsffZcLAq5zPAeLftFK3D2Pw5TmvksY3HAj0HG
c7ZB3TYGxLodBQd3vx4r3qWPQJhxQvvwJs7PxZdU52TFMcFq5rGSx9Y/cMZS1XIj
KxKKC0a1pMF2H2eCoNcN/CM8aF6A0iVZJKw+0KklNaO8m1VMLUiJU2dgG+OL4uKS
Eo7tcXbdpyJLidAXHZb7bPD/a1r45AyMBGfz9i8Cl8e/EQEYy4+jTNTjLzmN1SBt
CsmZRg4tlQ1S50WL6K9C6nv35NOhFxAo7FUvqqLHi+4Ez+QayqOq2iNyIFMjDqEh
+ZnM+xjUMnxlaVWkl63uAIKuliAYCyLCbJgZcswqj5O8lydMvuNRJbKJ70DEEBvT
GTN0FaaIISCa2wJm/n/AxjMD7oey3z+lKJTSrCtRW9OYdB0tqCPKvYn6IEORT9CC
sbf34e/SyNXdFmaLHZPSrg/VfoOOOnH/7dBqpcXhWZiYg7tmLHXFic4Ijryqewhu
x7ed9fU/JqjHYvc0ygt4oXZk+kO5czOkXI+HG3eSV03AE8L+VgzihZplfKq8Dyc/
9YegRYrvYKF+FE6S+3PGCocKhQIMjG6HVEnEXZCAKr98neXJYYhHK3NpOigVZGWy
aU70eh0CAwEAAaOCATMwggEvMHIGCCsGAQUFBwEBBGYwZDAxBggrBgEFBQcwAoYl
aHR0cDovL3Jvb3QtY2EuVGVsZWNvLmNvbS9yb290LWNhLmNydDAvBggrBgEFBQcw
AYYjaHR0cDovL29jc3Aucm9vdC1jYS5UZWxlY28uY29tOjkwODAwHwYDVR0jBBgw
FoAUT1zA4NMDTr2ljevqI90pQZLpLqswEgYDVR0TAQH/BAgwBgEB/wIBADA2BgNV
HR8ELzAtMCugKaAnhiVodHRwOi8vcm9vdC1jYS5UZWxlY28uY29tL3Jvb3QtY2Eu
Y3JsMB0GA1UdJQQWMBQGCCsGAQUFBwMCBggrBgEFBQcDATAOBgNVHQ8BAf8EBAMC
AQYwHQYDVR0OBBYEFEbRWXGoHy+REw4XjruOqj8rnZ3sMA0GCSqGSIb3DQEBCwUA
A4ICAQCEi+azGxgOPTPoOeaCDE9lSKbGnW62J+8AzHDntKb0tIhPbezAUMQrUf11
lhs1hxRnIR540j3GsNs6nO0ZenNLmwHBjGA3m82+K6imzNzqGU+8pMbf96oOd65d
qAsf/FSTVC0zq5KHwcEeOA/3X2X7UU82f3E8MIBHD2TRNoNinOqA0b2h8+0L4vpO
MamA4WTtDekAQmLHK2TT8WGst/LI+hXGl/BY1ra63bj26wk2er9jOmllCAC01VGe
VweRh9SPEZv9auVfU1hYWjU0mRiZI6lZndeJUK4CEa25AuTNflr1O6Sg7Fdr+hkx
9UbC++rGBEU4wkMk9u18QVHfWIqTHnmxvRhMuPhfGGXfXQb2f5LqMFkhXTxbRXZM
mo/srPLMycwlkrrL+HCJ6NtSa7r65bJquxyTeQPMFsX2g9si7CH68PnO9L01mrDC
urjz0NESSUXl4EuWEo52EY+GxggvY+/QFxxK+YwZi8Iu2Fy+WOsgt7d+YhKfr+Pj
DBzZJxaFq/eFpOvZcxTJE9qI1UL/aj0RXwhbvWOc1fbx/zMI51oFJmS9aihorbRz
1DvOzTXKxVzWsewMp/ODm3o1oaz8X1uEcympBYy6w5FOm3/Coo65aLSgPJb+SlZ/
7ppcKzJn3CfWn9zExL3C8jeHuXV7AIBiUTk8/+jAp6X0e2om5Q==
-----END CERTIFICATE-----
