Certificate:
    Data:
        Version: 3 (0x2)
        Serial Number:
            09:1c:f0:ef:03:be:43:fa:60:e6:4e:48:38:92:f1:22
        Signature Algorithm: sha256WithRSAEncryption
        Issuer: C=ES, O=Teleco, CN=Root CA
        Validity
            Not Before: Mar 26 09:14:38 2023 GMT
            Not After : Mar 25 09:14:38 2024 GMT
        Subject: C=ES, O=Teleco, CN=OCSP-Responder
        Subject Public Key Info:
            Public Key Algorithm: rsaEncryption
                RSA Public-Key: (2048 bit)
                Modulus:
                    00:bf:57:f4:82:f5:4a:09:a7:50:23:2a:7f:7f:e2:
                    dc:d1:0e:7e:67:c7:76:36:4c:35:ff:3d:ca:26:bb:
                    33:f5:f2:86:2c:d0:3f:3b:d2:e5:b2:13:e4:51:b2:
                    fc:70:c3:4e:cd:91:fd:1d:cb:98:92:32:41:5b:3b:
                    fa:d8:97:72:67:f3:70:16:05:2b:8d:98:13:6d:f6:
                    cf:20:99:a5:d7:aa:ea:b9:f6:3a:56:a5:bf:17:0a:
                    f4:d2:26:b8:ba:bf:78:69:1a:61:9b:3a:b8:ae:97:
                    a9:9c:cb:e5:17:58:09:64:fb:1a:12:86:9e:e5:50:
                    b1:70:9b:d7:cb:53:55:37:03:36:78:0c:99:0f:a1:
                    01:5a:f2:c2:60:58:c6:1b:19:6e:e7:f8:09:75:20:
                    56:ff:7b:9b:19:92:39:f4:7a:a3:17:ae:b1:bc:36:
                    8b:70:27:7f:00:d1:cc:33:98:72:59:33:5a:3f:45:
                    a6:1d:06:46:a8:ec:75:a4:95:02:06:f3:cb:98:9d:
                    31:20:80:3b:95:78:7a:e3:bf:1e:46:91:e4:93:86:
                    df:b1:b4:ec:1a:f9:56:c3:20:43:47:e8:f6:06:a5:
                    a7:01:a1:d1:fe:57:63:17:57:b3:79:51:8c:8c:57:
                    29:b5:c0:96:66:09:23:1d:74:d3:a0:75:9f:3b:96:
                    dc:25
                Exponent: 65537 (0x10001)
        X509v3 extensions:
            X509v3 Authority Key Identifier: 
                keyid:D4:1E:DD:8A:A4:43:77:15:E0:76:EC:F6:04:59:72:C8:26:3F:58:25

            X509v3 Basic Constraints: critical
                CA:FALSE
            X509v3 Extended Key Usage: 
                OCSP Signing
            X509v3 Key Usage: critical
                Digital Signature
            X509v3 Subject Key Identifier: 
                2B:26:50:E7:F2:5B:07:68:EE:CB:70:14:3A:AE:3F:B2:D5:E1:D0:E0
    Signature Algorithm: sha256WithRSAEncryption
         c0:af:37:6b:c8:7f:7f:47:d0:07:60:22:e0:f4:20:9c:f2:ee:
         0c:22:bc:b0:1a:f5:7e:4d:e3:0c:f7:c0:3f:db:94:19:10:f2:
         cc:16:b0:bd:cc:3a:39:84:22:b4:e4:8f:2b:19:84:b6:a3:d5:
         f0:71:16:85:d1:17:b0:35:f7:0f:eb:7e:85:b3:ff:cb:16:eb:
         61:06:ef:e5:8c:5b:79:a2:b1:b7:38:5d:71:7e:17:df:e1:2f:
         60:24:2c:50:bb:ab:64:0b:8f:fa:1e:ba:72:23:14:43:f6:5b:
         3d:e7:cf:fc:fa:69:a5:74:0a:e7:91:25:10:75:65:95:5e:eb:
         11:77:51:4f:7a:87:0f:a7:8d:28:b6:14:8c:af:e7:67:dc:55:
         28:e9:52:0f:29:9b:5d:19:20:d3:26:88:0a:e7:31:b7:dc:41:
         3e:d6:16:dd:1e:e6:96:bb:bf:56:28:81:a5:4f:46:8e:5d:50:
         4e:60:1b:3a:b0:d7:69:62:c6:1b:82:81:8a:6a:b4:d2:42:f3:
         6d:cc:a2:ad:8c:31:94:36:6d:e0:11:c3:e9:a9:fb:52:04:e0:
         23:4b:5a:0a:3d:d1:1d:13:9d:70:67:73:83:fe:8f:15:c9:b2:
         9d:73:16:52:db:3f:e6:82:58:82:83:ca:77:00:52:e2:a0:6e:
         7e:23:9a:44:69:80:67:fe:96:f1:df:44:b3:4e:49:a1:e0:1f:
         a9:9a:0d:78:db:be:27:6f:e9:4a:de:11:50:93:0b:84:76:bd:
         33:61:bf:16:ca:c0:73:cf:a5:9a:ae:35:87:40:ab:af:af:06:
         26:d8:7f:d1:62:00:16:ab:36:5b:16:43:c6:8c:6a:ed:d4:c9:
         64:a5:53:7a:6e:2c:37:b8:f8:4e:17:3b:d1:61:08:9f:11:57:
         d0:2c:65:c8:06:16:02:e1:47:54:ff:20:40:48:05:a2:6a:cf:
         0d:98:26:aa:92:9c:18:b9:df:87:51:a9:a3:1b:03:a7:c6:cf:
         0a:79:fa:d4:cc:1d:8e:56:4c:67:aa:76:8d:56:4b:0b:6d:c7:
         d1:fc:3c:f5:72:62:8c:c8:1e:07:90:af:4c:fc:6e:72:f6:34:
         48:7b:77:67:40:e4:c7:d9:2f:09:17:ef:3b:f1:41:12:d7:c8:
         ae:e1:e6:2b:b2:5e:d4:ef:bf:99:47:81:92:64:26:d5:b2:2f:
         57:17:80:dc:5b:48:d4:69:19:bb:8b:eb:98:e1:5f:5f:c7:67:
         19:36:9c:95:56:37:dc:5a:ea:45:43:53:d6:80:1e:b6:f5:53:
         fc:af:61:1d:cf:0d:00:c8:b5:1f:44:3c:f7:b1:12:49:bc:27:
         5a:1e:4c:e6:98:fc:85:87
-----BEGIN CERTIFICATE-----
MIIEZjCCAk6gAwIBAgIQCRzw7wO+Q/pg5k5IOJLxIjANBgkqhkiG9w0BAQsFADAw
MQswCQYDVQQGEwJFUzEPMA0GA1UECgwGVGVsZWNvMRAwDgYDVQQDDAdSb290IENB
MB4XDTIzMDMyNjA5MTQzOFoXDTI0MDMyNTA5MTQzOFowNzELMAkGA1UEBhMCRVMx
DzANBgNVBAoMBlRlbGVjbzEXMBUGA1UEAwwOT0NTUC1SZXNwb25kZXIwggEiMA0G
CSqGSIb3DQEBAQUAA4IBDwAwggEKAoIBAQC/V/SC9UoJp1AjKn9/4tzRDn5nx3Y2
TDX/PcomuzP18oYs0D870uWyE+RRsvxww07Nkf0dy5iSMkFbO/rYl3Jn83AWBSuN
mBNt9s8gmaXXquq59jpWpb8XCvTSJri6v3hpGmGbOriul6mcy+UXWAlk+xoShp7l
ULFwm9fLU1U3AzZ4DJkPoQFa8sJgWMYbGW7n+Al1IFb/e5sZkjn0eqMXrrG8Notw
J38A0cwzmHJZM1o/RaYdBkao7HWklQIG88uYnTEggDuVeHrjvx5GkeSTht+xtOwa
+VbDIENH6PYGpacBodH+V2MXV7N5UYyMVym1wJZmCSMddNOgdZ87ltwlAgMBAAGj
dTBzMB8GA1UdIwQYMBaAFNQe3YqkQ3cV4Hbs9gRZcsgmP1glMAwGA1UdEwEB/wQC
MAAwEwYDVR0lBAwwCgYIKwYBBQUHAwkwDgYDVR0PAQH/BAQDAgeAMB0GA1UdDgQW
BBQrJlDn8lsHaO7LcBQ6rj+y1eHQ4DANBgkqhkiG9w0BAQsFAAOCAgEAwK83a8h/
f0fQB2Ai4PQgnPLuDCK8sBr1fk3jDPfAP9uUGRDyzBawvcw6OYQitOSPKxmEtqPV
8HEWhdEXsDX3D+t+hbP/yxbrYQbv5YxbeaKxtzhdcX4X3+EvYCQsULurZAuP+h66
ciMUQ/ZbPefP/PpppXQK55ElEHVllV7rEXdRT3qHD6eNKLYUjK/nZ9xVKOlSDymb
XRkg0yaICucxt9xBPtYW3R7mlru/ViiBpU9Gjl1QTmAbOrDXaWLGG4KBimq00kLz
bcyirYwxlDZt4BHD6an7UgTgI0taCj3RHROdcGdzg/6PFcmynXMWUts/5oJYgoPK
dwBS4qBufiOaRGmAZ/6W8d9Es05JoeAfqZoNeNu+J2/pSt4RUJMLhHa9M2G/FsrA
c8+lmq41h0Crr68GJth/0WIAFqs2WxZDxoxq7dTJZKVTem4sN7j4Thc70WEInxFX
0CxlyAYWAuFHVP8gQEgFomrPDZgmqpKcGLnfh1GpoxsDp8bPCnn61MwdjlZMZ6p2
jVZLC23H0fw89XJijMgeB5CvTPxucvY0SHt3Z0Dkx9kvCRfvO/FBEtfIruHmK7Je
1O+/mUeBkmQm1bIvVxeA3FtI1GkZu4vrmOFfX8dnGTaclVY33FrqRUNT1oAetvVT
/K9hHc8NAMi1H0Q897ESSbwnWh5M5pj8hYc=
-----END CERTIFICATE-----
