Certificate:
    Data:
        Version: 3 (0x2)
        Serial Number:
            09:1c:f0:ef:03:be:43:fa:60:e6:4e:48:38:92:f1:45
        Signature Algorithm: sha256WithRSAEncryption
        Issuer: C=ES, O=Teleco, CN=Root CA
        Validity
            Not Before: Apr  4 21:57:33 2023 GMT
            Not After : Apr  1 21:57:33 2033 GMT
        Subject: C=ES, O=Teleco, CN=Server CA
        Subject Public Key Info:
            Public Key Algorithm: rsaEncryption
                RSA Public-Key: (4096 bit)
                Modulus:
                    00:cd:53:dd:dc:98:98:06:99:36:e9:0d:6e:f5:73:
                    3a:15:d8:84:00:fb:ee:27:10:c6:93:21:6e:02:33:
                    d2:16:e1:72:57:dc:33:bb:c8:9e:a1:52:73:f3:f5:
                    ed:1a:98:8e:5c:20:6a:6a:15:a2:65:49:e5:9f:16:
                    f6:02:7f:93:fe:ae:e1:21:47:b3:2b:43:94:b9:20:
                    db:c7:e0:15:da:53:27:61:55:98:93:ad:09:85:56:
                    f1:ea:65:59:63:a5:68:d0:b6:1f:bb:fb:cc:a2:69:
                    71:1f:7f:9e:76:9a:40:9d:96:61:3b:50:ba:a0:23:
                    3c:3e:2d:92:8d:32:b0:c9:28:7a:0a:42:7b:6d:9d:
                    63:1a:61:ee:35:0d:9e:f6:71:09:23:02:e4:63:f6:
                    8f:f4:93:af:29:a6:22:f8:3c:ef:e7:09:81:2b:c6:
                    d5:d0:44:d6:2c:ac:68:5b:86:45:20:05:2b:92:6a:
                    43:5e:00:c7:26:16:79:84:13:65:2f:d8:81:83:2d:
                    e6:3a:c4:44:19:13:36:a6:31:f6:c2:14:70:8b:82:
                    22:7d:fa:c1:d8:fb:8b:8b:b6:8d:9f:eb:f1:6d:11:
                    dc:a8:0b:7f:b7:64:2b:4f:78:b7:98:45:46:df:1d:
                    26:a7:c5:de:a5:32:0b:bd:de:60:11:a2:74:41:c6:
                    36:bd:13:1c:cf:5c:2b:02:41:60:0e:b9:92:b9:7b:
                    84:7f:c0:8d:9f:c1:fc:6e:33:50:93:c6:65:24:68:
                    2e:89:3d:92:c5:fa:2d:b5:78:61:56:89:35:2a:90:
                    3c:42:bb:59:73:1e:27:7e:2c:36:50:4d:4d:23:9b:
                    41:ac:fb:b3:a9:01:ec:ae:c7:0c:cb:1c:4a:67:b0:
                    dc:57:54:fa:a4:e6:05:b2:27:09:96:0e:ed:58:f2:
                    41:b0:42:77:a9:99:65:46:14:05:ce:76:a1:36:ad:
                    25:6f:c1:b2:62:ff:d4:29:34:94:7a:d5:8f:f6:80:
                    69:9d:65:09:90:1c:fd:cc:00:31:86:fc:24:5a:42:
                    15:0b:e3:b9:43:f3:3f:15:01:45:73:31:56:e2:e5:
                    ce:a5:7f:ef:fd:2b:f3:e3:10:74:25:aa:43:2f:7d:
                    98:62:0a:6f:40:e5:d6:b0:63:6d:92:b5:54:13:44:
                    f5:96:85:f4:c5:25:b1:1f:ff:85:d6:a5:5b:cd:58:
                    54:8e:4c:92:15:d9:99:be:09:54:b2:7f:e7:c7:a6:
                    08:e9:5a:7e:75:1d:a7:13:76:fb:2f:ac:39:00:da:
                    54:d0:67:de:86:21:36:c5:e3:c7:72:be:10:7f:72:
                    55:2c:74:6c:01:13:ba:4e:0f:96:83:81:ae:37:60:
                    a9:c6:69
                Exponent: 65537 (0x10001)
        X509v3 extensions:
            Authority Information Access: 
                CA Issuers - URI:http://root-ca.Teleco.com/root-ca.crt
                OCSP - URI:http://ocsp.root-ca.Teleco.com:9080

            X509v3 Authority Key Identifier: 
                keyid:4F:5C:C0:E0:D3:03:4E:BD:A5:8D:EB:EA:23:DD:29:41:92:E9:2E:AB

            X509v3 Basic Constraints: critical
                CA:TRUE, pathlen:0
            X509v3 CRL Distribution Points: 

                Full Name:
                  URI:http://root-ca.Teleco.com/root-ca.crl

            X509v3 Extended Key Usage: 
                TLS Web Client Authentication, TLS Web Server Authentication
            X509v3 Key Usage: critical
                Certificate Sign, CRL Sign
            X509v3 Name Constraints: 
                Permitted:
                  DNS:example.com
                  DNS:example.org
                Excluded:
                  IP:0.0.0.0/0.0.0.0
                  IP:0:0:0:0:0:0:0:0/0:0:0:0:0:0:0:0

            X509v3 Subject Key Identifier: 
                1B:2D:CA:AE:C2:F8:26:FD:92:78:C6:7C:42:C1:23:FE:27:1D:2A:2B
    Signature Algorithm: sha256WithRSAEncryption
         5d:1c:b8:d4:07:7c:8d:38:02:8f:3c:2e:6e:34:9c:de:ee:45:
         42:71:41:73:16:e6:82:cf:58:91:a0:51:8d:92:d6:11:64:98:
         05:cb:53:25:b8:14:7f:98:a2:74:6a:6e:94:0b:80:bd:64:58:
         95:ba:bd:ea:94:9e:0c:1b:b3:c2:ca:68:f0:85:f6:41:a0:ea:
         36:77:a0:c8:d5:24:31:c8:0e:e7:f1:bc:74:ce:77:81:d8:5a:
         88:c0:0f:80:22:d4:2e:e4:f7:ec:9f:8e:77:8b:47:58:27:9d:
         31:78:87:28:85:f6:53:9d:9f:38:6f:e1:f6:ab:a2:03:b9:c8:
         ce:72:21:10:50:97:27:40:55:3e:50:04:0c:57:28:13:40:a0:
         19:96:88:6f:b2:5f:e4:e1:ba:dc:1a:62:08:37:c5:47:ac:db:
         23:5a:47:05:36:8d:bf:96:cc:e2:2c:30:0a:77:33:f6:79:8e:
         7f:97:92:bb:4f:97:72:71:2a:07:c2:85:47:3a:12:23:74:6a:
         f6:e0:f9:e9:e2:2c:f6:34:23:5f:72:c8:dd:df:eb:67:75:6f:
         57:2c:ca:ab:e5:01:33:3a:a0:3e:22:43:68:e7:bd:3f:cb:e8:
         c1:c3:12:b0:84:c8:6b:2a:19:05:b4:2c:a9:90:49:03:84:b6:
         f5:44:0e:b2:8d:9f:7a:ec:87:f2:51:04:9b:b1:39:09:b9:37:
         53:4c:1b:f4:d4:a4:2a:9c:76:40:c1:dd:84:0f:ed:a8:50:38:
         3e:c0:eb:d3:78:9a:cb:6b:b1:51:83:33:fb:8a:2a:93:52:ce:
         9e:3b:e5:54:f2:b3:b5:32:8b:ca:fb:5b:7f:a8:c4:45:03:ea:
         5d:35:00:a8:5d:c2:d0:f6:23:59:0d:03:a9:ba:d7:0d:ac:88:
         49:79:59:d3:ed:54:1c:25:ca:c9:92:45:3d:5a:02:da:e6:13:
         71:81:e5:bd:60:a2:0e:e2:92:fb:9c:0d:5b:93:0a:dd:32:d1:
         4a:54:e1:66:e3:58:32:fb:42:66:58:07:2e:d6:60:52:d1:ac:
         d5:21:49:45:82:cb:b8:de:6f:b9:a9:55:54:2b:1c:39:24:34:
         43:c6:d6:81:2e:a8:98:88:f9:b2:26:30:73:b5:13:0f:39:29:
         3f:54:8f:7d:07:89:1a:a5:0b:bb:cc:a8:c9:d3:5c:07:ee:0d:
         e5:20:13:0e:c8:fb:cf:c3:37:37:f1:8f:4b:44:10:49:90:ee:
         2b:8c:c3:00:a9:8c:1f:45:b8:00:f1:67:35:1d:da:aa:f4:41:
         21:43:76:b1:85:d4:1d:e7:4a:ec:98:a0:16:62:b1:b9:80:1c:
         10:f4:27:a9:3b:fe:4e:19
-----BEGIN CERTIFICATE-----
MIIGfjCCBGagAwIBAgIQCRzw7wO+Q/pg5k5IOJLxRTANBgkqhkiG9w0BAQsFADAw
MQswCQYDVQQGEwJFUzEPMA0GA1UECgwGVGVsZWNvMRAwDgYDVQQDDAdSb290IENB
MB4XDTIzMDQwNDIxNTczM1oXDTMzMDQwMTIxNTczM1owMjELMAkGA1UEBhMCRVMx
DzANBgNVBAoMBlRlbGVjbzESMBAGA1UEAwwJU2VydmVyIENBMIICIjANBgkqhkiG
9w0BAQEFAAOCAg8AMIICCgKCAgEAzVPd3JiYBpk26Q1u9XM6FdiEAPvuJxDGkyFu
AjPSFuFyV9wzu8ieoVJz8/XtGpiOXCBqahWiZUnlnxb2An+T/q7hIUezK0OUuSDb
x+AV2lMnYVWYk60JhVbx6mVZY6Vo0LYfu/vMomlxH3+edppAnZZhO1C6oCM8Pi2S
jTKwySh6CkJ7bZ1jGmHuNQ2e9nEJIwLkY/aP9JOvKaYi+Dzv5wmBK8bV0ETWLKxo
W4ZFIAUrkmpDXgDHJhZ5hBNlL9iBgy3mOsREGRM2pjH2whRwi4IiffrB2PuLi7aN
n+vxbRHcqAt/t2QrT3i3mEVG3x0mp8XepTILvd5gEaJ0QcY2vRMcz1wrAkFgDrmS
uXuEf8CNn8H8bjNQk8ZlJGguiT2SxfottXhhVok1KpA8QrtZcx4nfiw2UE1NI5tB
rPuzqQHsrscMyxxKZ7DcV1T6pOYFsicJlg7tWPJBsEJ3qZllRhQFznahNq0lb8Gy
Yv/UKTSUetWP9oBpnWUJkBz9zAAxhvwkWkIVC+O5Q/M/FQFFczFW4uXOpX/v/Svz
4xB0JapDL32YYgpvQOXWsGNtkrVUE0T1loX0xSWxH/+F1qVbzVhUjkySFdmZvglU
sn/nx6YI6Vp+dR2nE3b7L6w5ANpU0GfehiE2xePHcr4Qf3JVLHRsARO6Tg+Wg4Gu
N2CpxmkCAwEAAaOCAZAwggGMMHIGCCsGAQUFBwEBBGYwZDAxBggrBgEFBQcwAoYl
aHR0cDovL3Jvb3QtY2EuVGVsZWNvLmNvbS9yb290LWNhLmNydDAvBggrBgEFBQcw
AYYjaHR0cDovL29jc3Aucm9vdC1jYS5UZWxlY28uY29tOjkwODAwHwYDVR0jBBgw
FoAUT1zA4NMDTr2ljevqI90pQZLpLqswEgYDVR0TAQH/BAgwBgEB/wIBADA2BgNV
HR8ELzAtMCugKaAnhiVodHRwOi8vcm9vdC1jYS5UZWxlY28uY29tL3Jvb3QtY2Eu
Y3JsMB0GA1UdJQQWMBQGCCsGAQUFBwMCBggrBgEFBQcDATAOBgNVHQ8BAf8EBAMC
AQYwWwYDVR0eBFQwUqAeMA2CC2V4YW1wbGUuY29tMA2CC2V4YW1wbGUub3JnoTAw
CocIAAAAAAAAAAAwIocgAAAAAAAAAAAAAAAAAAAAAAAAAAAAAAAAAAAAAAAAAAAw
HQYDVR0OBBYEFBstyq7C+Cb9knjGfELBI/4nHSorMA0GCSqGSIb3DQEBCwUAA4IC
AQBdHLjUB3yNOAKPPC5uNJze7kVCcUFzFuaCz1iRoFGNktYRZJgFy1MluBR/mKJ0
am6UC4C9ZFiVur3qlJ4MG7PCymjwhfZBoOo2d6DI1SQxyA7n8bx0zneB2FqIwA+A
ItQu5Pfsn453i0dYJ50xeIcohfZTnZ84b+H2q6IDucjOciEQUJcnQFU+UAQMVygT
QKAZlohvsl/k4brcGmIIN8VHrNsjWkcFNo2/lsziLDAKdzP2eY5/l5K7T5dycSoH
woVHOhIjdGr24Pnp4iz2NCNfcsjd3+tndW9XLMqr5QEzOqA+IkNo570/y+jBwxKw
hMhrKhkFtCypkEkDhLb1RA6yjZ967IfyUQSbsTkJuTdTTBv01KQqnHZAwd2ED+2o
UDg+wOvTeJrLa7FRgzP7iiqTUs6eO+VU8rO1MovK+1t/qMRFA+pdNQCoXcLQ9iNZ
DQOputcNrIhJeVnT7VQcJcrJkkU9WgLa5hNxgeW9YKIO4pL7nA1bkwrdMtFKVOFm
41gy+0JmWAcu1mBS0azVIUlFgsu43m+5qVVUKxw5JDRDxtaBLqiYiPmyJjBztRMP
OSk/VI99B4kapQu7zKjJ01wH7g3lIBMOyPvPwzc38Y9LRBBJkO4rjMMAqYwfRbgA
8Wc1Hdqq9EEhQ3axhdQd50rsmKAWYrG5gBwQ9CepO/5OGQ==
-----END CERTIFICATE-----
