Certificate:
    Data:
        Version: 3 (0x2)
        Serial Number:
            09:1c:f0:ef:03:be:43:fa:60:e6:4e:48:38:92:f1:5c
    Signature Algorithm: sha256WithRSAEncryption
        Issuer: C=ES, O=Teleco, CN=Root CA
        Validity
            Not Before: Apr  7 18:34:14 2023 GMT
            Not After : Apr  4 18:34:14 2033 GMT
        Subject: C=ES, O=Teleco, CN=servertls13
        Subject Public Key Info:
            Public Key Algorithm: rsaEncryption
                Public-Key: (1512 bit)
                Modulus:
                    00:95:84:26:b1:58:3f:57:0a:1f:48:a4:5a:ce:01:
                    f8:af:19:81:08:27:f0:98:08:24:a6:4b:ed:2e:9a:
                    43:30:df:b6:ed:4a:a2:8d:93:a1:74:e9:0a:fc:d5:
                    c8:23:c2:3b:b7:e6:fe:3a:18:4a:50:98:e7:f6:31:
                    95:8d:a4:72:aa:e2:78:00:16:55:08:ee:82:ee:92:
                    d6:4e:20:b2:90:3c:aa:1d:6d:ae:01:d1:d4:43:e6:
                    6a:39:c7:45:9a:74:6f:ba:1a:71:a8:5d:a1:b4:c2:
                    20:87:01:79:8d:17:3c:9c:17:fc:31:c5:e1:c1:17:
                    96:b9:ab:57:48:47:4e:b6:4f:40:36:19:d0:30:f7:
                    2d:bd:37:19:08:90:de:c3:9b:dc:04:a3:e7:49:da:
                    e4:cb:c7:7c:0d:86:fe:ae:9c:07:fe:e3:79:13:0b:
                    b9:75:c8:62:96:33:cd:9b:25:45:04:f0:2f:b3:13:
                    5a:85:8a:e2:4b:43:df:b4:8d:c5
                Exponent: 65537 (0x10001)
        X509v3 extensions:
            Authority Information Access: 
                CA Issuers - URI:http://root-ca.Teleco.com/root-ca.crt
                OCSP - URI:http://ocsp.root-ca.Teleco.com:9080

            X509v3 Authority Key Identifier: 
                keyid:BB:76:61:0A:4C:9B:87:48:87:E7:1A:23:CF:9F:4E:0C:86:02:7A:C6

            X509v3 Basic Constraints: critical
                CA:FALSE
            X509v3 CRL Distribution Points: 

                Full Name:
                  URI:http://root-ca.Teleco.com/root-ca.crl

            X509v3 Extended Key Usage: 
                TLS Web Client Authentication, TLS Web Server Authentication
            X509v3 Key Usage: critical
                Digital Signature, Key Encipherment
            X509v3 Subject Key Identifier: 
                03:45:05:D2:FA:2D:B3:C1:AB:B1:CC:81:5D:8E:A2:95:CB:E2:2E:8A
    Signature Algorithm: sha256WithRSAEncryption
         02:14:e2:c6:e5:a4:28:60:43:24:ea:d7:68:ec:5c:34:f2:c1:
         c1:b4:1a:5d:8c:20:62:7c:d4:33:8a:1d:08:d1:9b:88:a7:3e:
         30:fc:43:61:66:bf:c1:e7:15:75:38:bc:c1:0d:8a:65:15:f8:
         79:a3:ab:7c:49:f8:a1:f4:3e:5e:a7:7d:42:78:be:1c:ea:c3:
         79:a1:6d:b1:a4:80:0b:7e:be:a4:bf:c4:b4:5a:98:72:c9:08:
         22:11:63:fe:54:28:c2:e3:71:dc:4a:50:a6:98:ab:77:85:f3:
         6b:16:22:c3:4f:46:6b:ba:e5:ee:22:d1:cb:32:e6:d5:2c:3b:
         69:33:e1:bf:ae:ee:d8:f3:91:b0:a5:9f:27:ac:a2:d4:e8:8b:
         27:05:d1:aa:d2:4e:20:9c:e3:55:ca:3e:37:23:1d:2c:c1:db:
         5d:3d:0e:e5:4c:2c:82:ca:45:0a:5a:9c:91:b3:2e:6a:38:b0:
         58:80:dd:a1:0e:fc:3a:45:95:2c:5e:3c:45:d1:f5:14:a7:05:
         8f:40:a3:b6:bf:a3:8d:0a:e4:4e:0a:1b:bb:3b:ab:bf:67:63:
         da:e6:8b:d1:d0:01:19:a7:1f:eb:f6:87:4a:cd:16:00:4e:f9:
         fc:1b:75:c7:fe:6b:03:d8:51:b2:49:1c:75:d3:4c:28:13:a0:
         4e:95:5c:2c:d2:4f:1e:55:85:1c:b1:36:14:b8:f3:43:43:85:
         18:90:f4:7b:6f:6b:f5:26:ee:68:11:e6:03:12:44:ab:6f:00:
         47:1f:1a:79:01:19:b6:4d:5c:81:4a:0c:b1:84:b0:2a:b7:79:
         51:16:93:ff:f8:2d:2a:cf:3b:98:be:5c:9a:6f:1b:66:8e:5e:
         cb:33:b6:c1:0b:7a:a2:87:f8:6a:81:ae:ae:b9:fa:e7:34:63:
         4d:a1:1e:2e:0a:42:7d:61:c3:b4:d8:78:b3:b5:39:6a:5c:2c:
         26:37:27:6c:ec:4d:9d:0e:b1:69:91:5a:e8:cc:72:73:4d:96:
         c3:c0:e7:73:f9:ab:aa:c8:c9:a9:11:66:60:f0:6f:31:91:4a:
         e5:52:27:fe:af:0b:f6:55:2a:e0:97:6c:96:8b:2f:5d:e3:be:
         74:eb:da:26:66:c4:d9:2d:7f:d4:6c:1c:2e:80:f2:2d:be:a7:
         a5:a8:86:78:ab:8b:2d:4c:de:42:38:8f:17:de:4f:62:cf:ff:
         b8:5d:67:69:e9:5d:64:b3:86:03:13:4c:b9:dd:3f:4b:0d:4e:
         fc:25:e2:f9:da:4c:a9:05:4f:f5:0c:bb:fd:b9:20:ea:7d:cd:
         f8:bd:6c:91:68:83:e0:ae:47:0b:58:a2:0b:54:4f:65:81:4f:
         2f:26:45:7e:0c:fe:d4:12
-----BEGIN CERTIFICATE-----
MIIE1jCCAr6gAwIBAgIQCRzw7wO+Q/pg5k5IOJLxXDANBgkqhkiG9w0BAQsFADAw
MQswCQYDVQQGEwJFUzEPMA0GA1UECgwGVGVsZWNvMRAwDgYDVQQDDAdSb290IENB
MB4XDTIzMDQwNzE4MzQxNFoXDTMzMDQwNDE4MzQxNFowNDELMAkGA1UEBhMCRVMx
DzANBgNVBAoMBlRlbGVjbzEUMBIGA1UEAwwLc2VydmVydGxzMTMwgdwwDQYJKoZI
hvcNAQEBBQADgcoAMIHGAoG+AJWEJrFYP1cKH0ikWs4B+K8ZgQgn8JgIJKZL7S6a
QzDftu1Koo2ToXTpCvzVyCPCO7fm/joYSlCY5/YxlY2kcqrieAAWVQjugu6S1k4g
spA8qh1trgHR1EPmajnHRZp0b7oacahdobTCIIcBeY0XPJwX/DHF4cEXlrmrV0hH
TrZPQDYZ0DD3Lb03GQiQ3sOb3ASj50na5MvHfA2G/q6cB/7jeRMLuXXIYpYzzZsl
RQTwL7MTWoWK4ktD37SNxQIDAQABo4IBLTCCASkwcgYIKwYBBQUHAQEEZjBkMDEG
CCsGAQUFBzAChiVodHRwOi8vcm9vdC1jYS5UZWxlY28uY29tL3Jvb3QtY2EuY3J0
MC8GCCsGAQUFBzABhiNodHRwOi8vb2NzcC5yb290LWNhLlRlbGVjby5jb206OTA4
MDAfBgNVHSMEGDAWgBS7dmEKTJuHSIfnGiPPn04MhgJ6xjAMBgNVHRMBAf8EAjAA
MDYGA1UdHwQvMC0wK6ApoCeGJWh0dHA6Ly9yb290LWNhLlRlbGVjby5jb20vcm9v
dC1jYS5jcmwwHQYDVR0lBBYwFAYIKwYBBQUHAwIGCCsGAQUFBwMBMA4GA1UdDwEB
/wQEAwIFoDAdBgNVHQ4EFgQUA0UF0vots8GrscyBXY6ilcviLoowDQYJKoZIhvcN
AQELBQADggIBAAIU4sblpChgQyTq12jsXDTywcG0Gl2MIGJ81DOKHQjRm4inPjD8
Q2Fmv8HnFXU4vMENimUV+Hmjq3xJ+KH0Pl6nfUJ4vhzqw3mhbbGkgAt+vqS/xLRa
mHLJCCIRY/5UKMLjcdxKUKaYq3eF82sWIsNPRmu65e4i0csy5tUsO2kz4b+u7tjz
kbClnyesotToiycF0arSTiCc41XKPjcjHSzB2109DuVMLILKRQpanJGzLmo4sFiA
3aEO/DpFlSxePEXR9RSnBY9Ao7a/o40K5E4KG7s7q79nY9rmi9HQARmnH+v2h0rN
FgBO+fwbdcf+awPYUbJJHHXTTCgToE6VXCzSTx5VhRyxNhS480NDhRiQ9Htva/Um
7mgR5gMSRKtvAEcfGnkBGbZNXIFKDLGEsCq3eVEWk//4LSrPO5i+XJpvG2aOXssz
tsELeqKH+GqBrq65+uc0Y02hHi4KQn1hw7TYeLO1OWpcLCY3J2zsTZ0OsWmRWujM
cnNNlsPA53P5q6rIyakRZmDwbzGRSuVSJ/6vC/ZVKuCXbJaLL13jvnTr2iZmxNkt
f9RsHC6A8i2+p6Wohniriy1M3kI4jxfeT2LP/7hdZ2npXWSzhgMTTLndP0sNTvwl
4vnaTKkFT/UMu/25IOp9zfi9bJFog+CuRwtYogtUT2WBTy8mRX4M/tQS
-----END CERTIFICATE-----
