Certificate:
    Data:
        Version: 3 (0x2)
        Serial Number:
            09:1c:f0:ef:03:be:43:fa:60:e6:4e:48:38:92:f1:1e
        Signature Algorithm: sha256WithRSAEncryption
        Issuer: C=ES, O=Teleco, CN=Root CA
        Validity
            Not Before: Jan 11 18:01:47 2023 GMT
            Not After : Jan  8 18:01:47 2033 GMT
        Subject: C=ES, O=Teleco, CN=Server CA
        Subject Public Key Info:
            Public Key Algorithm: rsaEncryption
                RSA Public-Key: (4096 bit)
                Modulus:
                    00:da:e7:05:3f:5a:63:07:39:44:a1:18:f7:63:43:
                    30:ce:f2:af:e9:4b:b2:e6:40:5d:6d:cb:7b:26:10:
                    74:01:86:f7:f0:e9:08:94:3e:45:10:18:3b:86:16:
                    90:82:df:03:90:98:f0:0e:ee:04:db:35:8d:2a:a8:
                    82:ce:2a:4d:ab:db:f0:50:cb:a1:87:36:2e:e4:12:
                    90:4a:ed:41:85:df:13:2d:85:3d:09:54:d5:a2:6a:
                    7a:2a:5b:ac:bb:8a:d0:34:70:53:48:29:67:78:e0:
                    a2:ff:01:7e:cd:11:92:a9:56:93:4e:9f:58:d0:ff:
                    7a:fd:ed:ff:ef:f7:0d:1f:0b:3a:38:45:32:6c:2d:
                    72:e2:fc:66:1e:e7:2c:5a:49:4d:79:e3:43:94:ae:
                    be:ed:9c:c0:a1:bc:1a:50:2c:27:25:87:ac:30:d6:
                    9e:5a:24:b0:af:95:02:81:65:97:78:be:53:3b:84:
                    eb:12:bb:24:1a:23:b9:b5:88:63:fa:f1:8a:40:7e:
                    ff:3d:69:9b:cf:3a:2d:31:fc:6c:a5:68:e9:19:38:
                    fb:32:75:43:14:0c:8d:c6:8b:83:1d:2e:fb:78:a1:
                    ad:8e:28:ed:fe:cd:a1:4f:02:65:e1:c4:32:86:3f:
                    45:18:59:8c:3a:c0:73:ca:d6:ce:aa:d5:70:cb:ee:
                    8a:7a:d7:d6:71:80:a6:2f:48:1b:92:4f:b6:06:54:
                    55:36:e8:cf:29:69:0c:df:54:33:15:0c:1d:f8:c3:
                    08:be:f5:23:42:a7:69:ec:6e:de:04:61:2d:a6:78:
                    39:52:40:9c:8e:d5:81:11:93:0b:38:59:92:97:2e:
                    8f:07:64:c6:a2:2a:94:e3:33:0f:f9:b8:a0:17:64:
                    78:cb:31:b2:48:7a:ff:45:60:2e:5c:4a:3c:c8:3e:
                    98:9a:37:02:7c:89:9f:2b:b7:9b:77:25:82:b1:ac:
                    df:c5:2b:79:ef:e6:13:78:94:f2:4f:3c:30:99:b0:
                    18:b4:68:e7:ee:5e:6a:80:45:ff:ad:82:03:61:f5:
                    ae:c6:7a:ac:6f:05:f0:dc:8d:18:34:a6:77:65:35:
                    21:b5:b6:a3:ff:f3:af:15:6d:f8:68:65:50:d4:f4:
                    3c:a6:b0:0c:69:f6:7b:b4:50:16:9b:0d:79:ea:68:
                    5d:90:08:52:9c:53:60:fc:10:5a:93:e8:28:97:07:
                    e1:ee:5d:21:29:81:fc:77:7f:24:0b:42:2a:aa:1b:
                    42:06:ae:c2:18:7d:e5:a9:8c:1b:44:61:91:84:65:
                    bf:70:1b:bd:40:f0:c1:53:50:c7:6d:fb:e5:46:de:
                    3c:51:18:33:b2:58:32:40:81:bd:a3:84:e1:9d:a4:
                    46:d8:fd
                Exponent: 65537 (0x10001)
        X509v3 extensions:
            Authority Information Access: 
                CA Issuers - URI:http://root-ca.Teleco.com/root-ca.crt
                OCSP - URI:http://ocsp.root-ca.Teleco.com:9080

            X509v3 Authority Key Identifier: 
                keyid:6E:94:60:81:1F:BD:23:A6:14:8F:4D:39:9E:F1:F9:67:CB:CC:95:6B

            X509v3 Basic Constraints: critical
                CA:TRUE, pathlen:0
            X509v3 CRL Distribution Points: 

                Full Name:
                  URI:http://root-ca.Teleco.com/root-ca.crl

            X509v3 Extended Key Usage: 
                TLS Web Client Authentication, TLS Web Server Authentication
            X509v3 Key Usage: critical
                Certificate Sign, CRL Sign
            X509v3 Name Constraints: 
                Permitted:
                  DNS:example.com
                  DNS:example.org
                Excluded:
                  IP:0.0.0.0/0.0.0.0
                  IP:0:0:0:0:0:0:0:0/0:0:0:0:0:0:0:0

            X509v3 Subject Key Identifier: 
                16:A7:39:41:ED:0C:D0:FB:4C:62:16:3B:2F:BD:FE:C0:8A:6B:9D:94
    Signature Algorithm: sha256WithRSAEncryption
         3d:ec:0f:08:76:d0:1e:ca:5f:33:34:d5:a0:53:eb:82:e0:87:
         cd:3d:53:7b:ab:9b:cc:04:a1:3d:c2:78:17:33:00:8f:6b:a0:
         93:e5:69:1a:44:9a:63:d0:3b:89:69:50:04:37:75:45:be:b5:
         48:05:e8:46:6e:ae:c4:b6:ac:ca:e1:71:9d:ff:34:17:44:d8:
         bf:51:ae:7a:fd:62:a6:15:c1:a0:9f:64:cd:43:52:0b:58:58:
         4c:b6:3d:67:65:82:b5:67:b8:b4:7a:85:fe:6c:e4:1f:96:c5:
         e7:60:ca:0e:35:42:cd:9e:64:ad:3a:58:00:dc:45:9d:34:23:
         37:a5:1f:47:98:7e:5a:9c:dc:e6:b6:7c:b1:69:22:e5:0d:ad:
         07:49:9e:3a:f5:a3:e4:12:e0:81:78:0f:d0:a1:65:f3:15:bb:
         fe:d8:1a:b0:c4:f1:ff:e3:03:45:55:ff:bb:c9:ba:42:79:fe:
         57:87:fa:25:9c:42:ea:1c:52:3f:8d:3e:b2:5d:de:87:2b:3a:
         2e:aa:07:50:76:0f:10:65:bb:df:69:2a:4c:10:1e:d5:bd:37:
         e9:5d:d0:9b:50:ad:d5:23:83:e5:26:6f:0d:9b:23:a3:c5:af:
         3e:a4:c8:92:e6:08:5b:48:71:39:f5:ea:55:40:77:15:3e:46:
         72:36:d5:d9:94:5c:7e:6e:9f:36:9f:b1:f2:85:62:49:a0:4f:
         12:32:ab:df:73:06:a2:01:86:59:c4:11:1a:ea:be:58:9b:68:
         06:a9:dd:94:d5:0a:1a:66:9d:9c:d3:23:98:91:8c:9f:c5:8e:
         dc:fc:33:24:d9:70:41:29:d9:dc:2b:71:30:6d:5c:2a:20:ec:
         59:b9:91:d6:aa:7c:05:b0:e9:7c:b7:12:96:23:2e:a9:43:05:
         64:2a:8a:71:ca:0f:4f:e6:5a:74:73:2d:b4:09:ae:31:3d:95:
         8f:3a:24:13:a8:bc:24:51:8c:fa:4f:cb:f3:e7:e3:05:d9:b2:
         f1:5c:ae:be:7f:b7:f6:99:53:81:5c:7f:61:01:e3:e5:33:e0:
         79:98:4d:05:ec:5f:0a:c7:a7:b4:ae:67:5b:4b:3e:bc:a7:1e:
         6b:1d:2f:50:b0:d4:78:59:da:8d:ce:45:40:f9:0d:45:cc:29:
         4c:00:d9:9e:4d:e6:98:4b:a1:65:55:01:32:ff:a2:7c:2c:32:
         50:af:ea:69:91:eb:37:e7:e0:cf:60:5c:5d:eb:7b:5e:5d:13:
         e5:82:57:20:57:38:eb:85:8d:36:7f:49:b1:5c:a4:f5:8f:d2:
         53:de:a3:45:9f:6f:57:ea:d8:ad:07:53:e1:98:e1:d7:0b:6d:
         62:61:04:f4:60:2f:de:4b
-----BEGIN CERTIFICATE-----
MIIGfjCCBGagAwIBAgIQCRzw7wO+Q/pg5k5IOJLxHjANBgkqhkiG9w0BAQsFADAw
MQswCQYDVQQGEwJFUzEPMA0GA1UECgwGVGVsZWNvMRAwDgYDVQQDDAdSb290IENB
MB4XDTIzMDExMTE4MDE0N1oXDTMzMDEwODE4MDE0N1owMjELMAkGA1UEBhMCRVMx
DzANBgNVBAoMBlRlbGVjbzESMBAGA1UEAwwJU2VydmVyIENBMIICIjANBgkqhkiG
9w0BAQEFAAOCAg8AMIICCgKCAgEA2ucFP1pjBzlEoRj3Y0MwzvKv6Uuy5kBdbct7
JhB0AYb38OkIlD5FEBg7hhaQgt8DkJjwDu4E2zWNKqiCzipNq9vwUMuhhzYu5BKQ
Su1Bhd8TLYU9CVTVomp6Klusu4rQNHBTSClneOCi/wF+zRGSqVaTTp9Y0P96/e3/
7/cNHws6OEUybC1y4vxmHucsWklNeeNDlK6+7ZzAobwaUCwnJYesMNaeWiSwr5UC
gWWXeL5TO4TrErskGiO5tYhj+vGKQH7/PWmbzzotMfxspWjpGTj7MnVDFAyNxouD
HS77eKGtjijt/s2hTwJl4cQyhj9FGFmMOsBzytbOqtVwy+6KetfWcYCmL0gbkk+2
BlRVNujPKWkM31QzFQwd+MMIvvUjQqdp7G7eBGEtpng5UkCcjtWBEZMLOFmSly6P
B2TGoiqU4zMP+bigF2R4yzGySHr/RWAuXEo8yD6YmjcCfImfK7ebdyWCsazfxSt5
7+YTeJTyTzwwmbAYtGjn7l5qgEX/rYIDYfWuxnqsbwXw3I0YNKZ3ZTUhtbaj//Ov
FW34aGVQ1PQ8prAMafZ7tFAWmw156mhdkAhSnFNg/BBak+golwfh7l0hKYH8d38k
C0IqqhtCBq7CGH3lqYwbRGGRhGW/cBu9QPDBU1DHbfvlRt48URgzslgyQIG9o4Th
naRG2P0CAwEAAaOCAZAwggGMMHIGCCsGAQUFBwEBBGYwZDAxBggrBgEFBQcwAoYl
aHR0cDovL3Jvb3QtY2EuVGVsZWNvLmNvbS9yb290LWNhLmNydDAvBggrBgEFBQcw
AYYjaHR0cDovL29jc3Aucm9vdC1jYS5UZWxlY28uY29tOjkwODAwHwYDVR0jBBgw
FoAUbpRggR+9I6YUj005nvH5Z8vMlWswEgYDVR0TAQH/BAgwBgEB/wIBADA2BgNV
HR8ELzAtMCugKaAnhiVodHRwOi8vcm9vdC1jYS5UZWxlY28uY29tL3Jvb3QtY2Eu
Y3JsMB0GA1UdJQQWMBQGCCsGAQUFBwMCBggrBgEFBQcDATAOBgNVHQ8BAf8EBAMC
AQYwWwYDVR0eBFQwUqAeMA2CC2V4YW1wbGUuY29tMA2CC2V4YW1wbGUub3JnoTAw
CocIAAAAAAAAAAAwIocgAAAAAAAAAAAAAAAAAAAAAAAAAAAAAAAAAAAAAAAAAAAw
HQYDVR0OBBYEFBanOUHtDND7TGIWOy+9/sCKa52UMA0GCSqGSIb3DQEBCwUAA4IC
AQA97A8IdtAeyl8zNNWgU+uC4IfNPVN7q5vMBKE9wngXMwCPa6CT5WkaRJpj0DuJ
aVAEN3VFvrVIBehGbq7EtqzK4XGd/zQXRNi/Ua56/WKmFcGgn2TNQ1ILWFhMtj1n
ZYK1Z7i0eoX+bOQflsXnYMoONULNnmStOlgA3EWdNCM3pR9HmH5anNzmtnyxaSLl
Da0HSZ469aPkEuCBeA/QoWXzFbv+2BqwxPH/4wNFVf+7ybpCef5Xh/olnELqHFI/
jT6yXd6HKzouqgdQdg8QZbvfaSpMEB7VvTfpXdCbUK3VI4PlJm8NmyOjxa8+pMiS
5ghbSHE59epVQHcVPkZyNtXZlFx+bp82n7HyhWJJoE8SMqvfcwaiAYZZxBEa6r5Y
m2gGqd2U1QoaZp2c0yOYkYyfxY7c/DMk2XBBKdncK3EwbVwqIOxZuZHWqnwFsOl8
txKWIy6pQwVkKopxyg9P5lp0cy20Ca4xPZWPOiQTqLwkUYz6T8vz5+MF2bLxXK6+
f7f2mVOBXH9hAePlM+B5mE0F7F8Kx6e0rmdbSz68px5rHS9QsNR4WdqNzkVA+Q1F
zClMANmeTeaYS6FlVQEy/6J8LDJQr+ppkes35+DPYFxd63teXRPlglcgVzjrhY02
f0mxXKT1j9JT3qNFn29X6titB1PhmOHXC21iYQT0YC/eSw==
-----END CERTIFICATE-----
