Certificate:
    Data:
        Version: 3 (0x2)
        Serial Number:
            09:1c:f0:ef:03:be:43:fa:60:e6:4e:48:38:92:f1:2d
        Signature Algorithm: sha256WithRSAEncryption
        Issuer: C=ES, O=Teleco, CN=Root CA
        Validity
            Not Before: Mar 26 15:07:45 2023 GMT
            Not After : Mar 23 15:07:45 2033 GMT
        Subject: C=ES, O=Teleco, CN=Server CA
        Subject Public Key Info:
            Public Key Algorithm: rsaEncryption
                RSA Public-Key: (4096 bit)
                Modulus:
                    00:c6:e6:01:df:42:3d:cc:c0:ef:93:cc:f0:d5:2f:
                    73:1a:f9:6d:5f:8f:85:3c:26:eb:91:84:0c:cd:8d:
                    4e:4e:77:42:a1:42:5e:72:4c:05:f0:94:bf:00:cd:
                    ab:84:ba:bb:4c:df:7d:d8:9e:d7:81:a2:d1:51:cc:
                    fe:d1:4f:a4:04:e4:10:55:89:19:ee:5e:36:c7:c7:
                    b1:d2:01:64:50:c4:c8:81:f8:a5:81:7f:e9:a6:71:
                    31:d8:e3:23:78:c2:bd:2d:df:16:88:87:48:03:44:
                    c7:af:be:27:e5:3b:38:bb:b7:fa:0c:7b:4b:25:cc:
                    af:11:fa:7c:af:b8:34:dc:67:0e:f8:71:2a:dd:5c:
                    cf:ad:cd:42:27:9b:0c:ea:95:4b:d6:3c:b7:2e:80:
                    ef:e9:d4:47:66:f6:32:6c:57:14:f0:db:4b:a4:c4:
                    7c:eb:c5:61:82:85:5f:3f:77:b2:58:ad:db:f0:90:
                    b7:ba:2a:29:0d:7e:f6:f8:84:9e:57:a5:c4:b9:4b:
                    54:76:f3:dd:88:d9:39:a2:59:cd:bc:9a:b6:c9:21:
                    0d:95:de:82:a0:3a:7a:16:f3:92:a8:ea:28:fa:b9:
                    52:4b:f6:bb:82:6e:6d:3a:b1:dc:b3:ad:18:97:33:
                    86:2c:6f:ac:78:c9:41:21:4c:cd:8c:5e:ce:c9:cb:
                    4a:55:c7:9b:64:64:a3:eb:da:5a:5b:b7:9c:e0:74:
                    73:77:f4:58:92:23:c1:1e:dd:51:02:6f:6d:2e:26:
                    0e:4b:fc:f2:1f:be:52:5e:75:f1:2c:93:61:9d:f6:
                    53:eb:88:2f:9f:c9:4d:04:d8:48:d4:10:66:0a:1c:
                    c8:11:dd:28:09:ea:bc:5a:ed:97:8f:d2:19:65:0f:
                    63:3a:18:f0:16:21:c5:40:d1:f2:93:93:99:47:93:
                    5f:3d:74:d6:9a:ba:8d:f0:62:5b:32:c9:64:bc:48:
                    94:16:2f:6c:40:a6:0c:bc:78:f1:e6:ce:87:09:62:
                    c1:21:ec:0e:c9:0d:68:d0:2c:75:ab:d7:92:cb:69:
                    9e:f7:ba:65:98:c7:26:9c:90:6e:fd:fc:66:08:c6:
                    de:77:10:09:8f:b8:3b:b6:d4:87:4f:32:76:d8:c5:
                    fd:f9:85:3d:07:c7:57:0c:54:2a:a2:21:92:5b:66:
                    eb:7a:4f:d0:3b:61:8c:19:a9:7e:42:15:32:1a:3a:
                    6a:6e:cb:ee:6c:61:0b:cf:6e:cb:9d:44:c0:45:d4:
                    ad:82:fb:7b:a4:3a:ae:1b:37:34:f9:ac:4a:f8:82:
                    fe:a1:bb:68:06:2b:a6:93:5b:8e:43:2a:fe:2e:93:
                    e3:e7:6c:a6:c7:de:22:c3:6a:42:96:fb:2f:e4:c8:
                    83:fb:5b
                Exponent: 65537 (0x10001)
        X509v3 extensions:
            Authority Information Access: 
                OCSP - URI:http://localhost:9080/

            X509v3 Authority Key Identifier: 
                keyid:8A:F1:16:09:2A:B1:57:D6:A1:B9:1E:BA:5F:5F:E6:81:DA:98:B4:F9

            X509v3 Basic Constraints: critical
                CA:TRUE, pathlen:0
            X509v3 CRL Distribution Points: 

                Full Name:
                  URI:http://root-ca.Teleco.com/root-ca.crl

            X509v3 Extended Key Usage: 
                TLS Web Client Authentication, TLS Web Server Authentication
            X509v3 Key Usage: critical
                Certificate Sign, CRL Sign
            X509v3 Name Constraints: 
                Permitted:
                  DNS:example.com
                  DNS:example.org
                Excluded:
                  IP:0.0.0.0/0.0.0.0
                  IP:0:0:0:0:0:0:0:0/0:0:0:0:0:0:0:0

            X509v3 Subject Key Identifier: 
                DC:EE:AB:69:5B:4B:89:BA:E4:FD:27:CF:7F:29:C8:4E:CD:BE:83:EB
    Signature Algorithm: sha256WithRSAEncryption
         59:83:bd:53:ab:d7:f0:f8:3d:a9:51:c4:6b:ae:0b:68:f9:eb:
         f8:90:23:2d:f8:85:ca:99:3f:5c:9b:fe:c9:51:49:22:70:05:
         cf:fc:40:eb:56:31:c0:68:29:d6:52:49:28:41:a9:71:ff:64:
         34:d2:61:62:c1:50:10:98:7f:ea:5d:fc:f2:49:cf:8a:83:fc:
         82:d1:08:66:58:c5:aa:a4:1a:88:3f:b9:ec:f0:fc:33:ae:cb:
         a4:0b:af:84:a6:61:b7:9c:36:0d:5f:55:75:42:c2:f0:e4:07:
         e0:af:97:0f:3a:79:41:49:c3:9b:c4:f4:01:93:90:1d:0f:cd:
         02:a7:eb:6f:60:2f:17:a8:67:c0:27:9b:33:0d:58:08:47:c5:
         ca:db:6c:72:9a:41:d8:fa:4c:cd:73:ac:b1:b1:49:c7:bc:61:
         46:f3:b7:53:c0:ab:5b:fc:03:50:74:de:d1:96:89:9a:d6:71:
         eb:44:4e:1f:48:fe:63:0c:cb:6b:d0:ca:21:69:27:9a:b8:02:
         82:d9:34:2a:f1:dc:21:7b:76:3c:ae:14:a5:bf:fe:6f:b3:2e:
         30:d5:eb:53:0f:30:ae:f9:6b:40:4d:97:0f:43:a7:fc:09:3f:
         40:f2:51:03:cc:c2:5f:29:69:ff:b8:d1:80:45:09:d6:0d:75:
         8f:ac:15:e1:81:84:40:58:4c:ba:33:4e:23:48:e4:4f:74:ef:
         ae:3b:8d:05:ac:0b:11:e7:32:ed:2c:03:2e:5e:bc:78:d0:91:
         e5:0f:c0:2c:53:be:70:c2:bf:7d:4e:1c:16:d1:96:c9:90:b3:
         82:8e:37:39:3c:47:3f:ad:9e:dd:16:be:cc:66:ca:f7:0f:de:
         7d:1f:c2:26:da:3b:77:75:0c:3e:a2:a8:43:af:49:ff:f0:ef:
         3f:56:cd:2a:0d:f5:a2:c7:a4:b2:0b:b7:40:df:35:48:63:8d:
         c0:be:52:f4:22:a4:53:f9:2f:6d:10:30:e6:96:b6:43:0b:ae:
         c5:6f:f0:76:e8:a2:72:ce:8d:11:11:54:5e:e2:ac:10:53:ed:
         5a:04:e3:62:83:e5:3d:b8:63:d8:c5:49:c4:25:89:09:a7:34:
         6d:f3:2c:5e:6e:e7:00:84:c0:49:e8:ae:98:23:49:43:f8:18:
         dd:06:b6:d7:10:0d:14:29:1a:16:7a:5c:6f:a1:92:1c:c7:88:
         d3:fd:2c:ee:33:b3:3c:b7:7d:d6:1f:bc:e8:67:52:59:54:45:
         55:89:32:74:8d:68:6a:b2:08:bd:5f:3e:2c:66:0b:b6:c3:61:
         a1:67:7e:e4:de:80:a0:4c:28:9a:f0:20:ee:d5:74:84:79:f4:
         22:2a:e6:b5:24:ec:7a:31
-----BEGIN CERTIFICATE-----
MIIGPjCCBCagAwIBAgIQCRzw7wO+Q/pg5k5IOJLxLTANBgkqhkiG9w0BAQsFADAw
MQswCQYDVQQGEwJFUzEPMA0GA1UECgwGVGVsZWNvMRAwDgYDVQQDDAdSb290IENB
MB4XDTIzMDMyNjE1MDc0NVoXDTMzMDMyMzE1MDc0NVowMjELMAkGA1UEBhMCRVMx
DzANBgNVBAoMBlRlbGVjbzESMBAGA1UEAwwJU2VydmVyIENBMIICIjANBgkqhkiG
9w0BAQEFAAOCAg8AMIICCgKCAgEAxuYB30I9zMDvk8zw1S9zGvltX4+FPCbrkYQM
zY1OTndCoUJeckwF8JS/AM2rhLq7TN992J7XgaLRUcz+0U+kBOQQVYkZ7l42x8ex
0gFkUMTIgfilgX/ppnEx2OMjeMK9Ld8WiIdIA0THr74n5Ts4u7f6DHtLJcyvEfp8
r7g03GcO+HEq3VzPrc1CJ5sM6pVL1jy3LoDv6dRHZvYybFcU8NtLpMR868VhgoVf
P3eyWK3b8JC3uiopDX72+ISeV6XEuUtUdvPdiNk5olnNvJq2ySENld6CoDp6FvOS
qOoo+rlSS/a7gm5tOrHcs60YlzOGLG+seMlBIUzNjF7OyctKVcebZGSj69paW7ec
4HRzd/RYkiPBHt1RAm9tLiYOS/zyH75SXnXxLJNhnfZT64gvn8lNBNhI1BBmChzI
Ed0oCeq8Wu2Xj9IZZQ9jOhjwFiHFQNHyk5OZR5NfPXTWmrqN8GJbMslkvEiUFi9s
QKYMvHjx5s6HCWLBIewOyQ1o0Cx1q9eSy2me97plmMcmnJBu/fxmCMbedxAJj7g7
ttSHTzJ22MX9+YU9B8dXDFQqoiGSW2brek/QO2GMGal+QhUyGjpqbsvubGELz27L
nUTARdStgvt7pDquGzc0+axK+IL+obtoBiumk1uOQyr+LpPj52ymx94iw2pClvsv
5MiD+1sCAwEAAaOCAVAwggFMMDIGCCsGAQUFBwEBBCYwJDAiBggrBgEFBQcwAYYW
aHR0cDovL2xvY2FsaG9zdDo5MDgwLzAfBgNVHSMEGDAWgBSK8RYJKrFX1qG5Hrpf
X+aB2pi0+TASBgNVHRMBAf8ECDAGAQH/AgEAMDYGA1UdHwQvMC0wK6ApoCeGJWh0
dHA6Ly9yb290LWNhLlRlbGVjby5jb20vcm9vdC1jYS5jcmwwHQYDVR0lBBYwFAYI
KwYBBQUHAwIGCCsGAQUFBwMBMA4GA1UdDwEB/wQEAwIBBjBbBgNVHR4EVDBSoB4w
DYILZXhhbXBsZS5jb20wDYILZXhhbXBsZS5vcmehMDAKhwgAAAAAAAAAADAihyAA
AAAAAAAAAAAAAAAAAAAAAAAAAAAAAAAAAAAAAAAAADAdBgNVHQ4EFgQU3O6raVtL
ibrk/SfPfynITs2+g+swDQYJKoZIhvcNAQELBQADggIBAFmDvVOr1/D4PalRxGuu
C2j56/iQIy34hcqZP1yb/slRSSJwBc/8QOtWMcBoKdZSSShBqXH/ZDTSYWLBUBCY
f+pd/PJJz4qD/ILRCGZYxaqkGog/uezw/DOuy6QLr4SmYbecNg1fVXVCwvDkB+Cv
lw86eUFJw5vE9AGTkB0PzQKn629gLxeoZ8AnmzMNWAhHxcrbbHKaQdj6TM1zrLGx
Sce8YUbzt1PAq1v8A1B03tGWiZrWcetETh9I/mMMy2vQyiFpJ5q4AoLZNCrx3CF7
djyuFKW//m+zLjDV61MPMK75a0BNlw9Dp/wJP0DyUQPMwl8paf+40YBFCdYNdY+s
FeGBhEBYTLozTiNI5E907647jQWsCxHnMu0sAy5evHjQkeUPwCxTvnDCv31OHBbR
lsmQs4KONzk8Rz+tnt0WvsxmyvcP3n0fwibaO3d1DD6iqEOvSf/w7z9WzSoN9aLH
pLILt0DfNUhjjcC+UvQipFP5L20QMOaWtkMLrsVv8HboonLOjRERVF7irBBT7VoE
42KD5T24Y9jFScQliQmnNG3zLF5u5wCEwEnorpgjSUP4GN0GttcQDRQpGhZ6XG+h
khzHiNP9LO4zszy3fdYfvOhnUllURVWJMnSNaGqyCL1fPixmC7bDYaFnfuTegKBM
KJrwIO7VdIR59CIq5rUk7Hox
-----END CERTIFICATE-----
