Certificate:
    Data:
        Version: 3 (0x2)
        Serial Number:
            09:1c:f0:ef:03:be:43:fa:60:e6:4e:48:38:92:f1:44
        Signature Algorithm: sha256WithRSAEncryption
        Issuer: C=ES, O=Teleco, CN=Root CA
        Validity
            Not Before: Apr  4 21:55:27 2023 GMT
            Not After : Apr  1 21:55:27 2033 GMT
        Subject: C=ES, O=Teleco, CN=Client CA
        Subject Public Key Info:
            Public Key Algorithm: rsaEncryption
                RSA Public-Key: (4096 bit)
                Modulus:
                    00:b1:c0:50:db:a5:af:f3:17:67:d4:c6:fa:02:9d:
                    00:ef:56:cb:cd:d0:f6:31:dc:d4:65:dc:8f:64:a1:
                    e8:c6:28:f5:ca:d1:d6:73:2f:8b:28:2d:a5:3e:b8:
                    53:24:19:7f:fd:2f:34:ce:2f:97:97:b8:c9:03:5b:
                    7e:a0:1f:8e:18:86:b5:d8:7a:34:1a:88:f3:a4:5f:
                    8a:3d:fe:1b:03:31:b2:f9:2b:8e:cc:af:1b:24:7d:
                    89:36:4c:98:28:cd:36:b5:bb:6e:22:3a:4c:2d:df:
                    9a:0e:67:4a:65:c4:77:a0:d0:da:5a:22:49:6a:af:
                    b3:2b:00:53:b5:ce:78:b5:2e:99:9a:9c:81:99:9d:
                    76:76:b3:08:92:5a:dd:b0:d8:52:8c:a0:f9:f8:03:
                    cb:96:a1:f5:15:c1:68:49:9a:14:5a:a1:f2:95:77:
                    d4:d4:50:db:3f:50:42:15:e6:0b:2f:d7:b6:f1:02:
                    66:af:d5:8d:ef:f9:e9:1e:3a:f7:2d:7b:98:79:7a:
                    ed:c8:3d:04:64:42:1c:1f:9a:78:ab:0f:87:f0:93:
                    24:8d:81:96:76:78:a3:2e:4a:c9:7a:76:fc:e8:e2:
                    01:83:31:1c:4a:7c:60:c5:f1:54:83:4a:7c:c6:a7:
                    c7:26:38:c8:3d:c7:2a:76:5f:a2:b1:eb:7f:7f:5f:
                    ed:d7:7b:7e:58:7a:37:1a:42:dc:60:4b:2d:58:4a:
                    31:1d:4d:ba:37:f3:0e:91:ab:54:0b:3a:06:5f:33:
                    58:18:69:1b:dd:0a:c0:ca:01:49:c9:4f:97:bd:5f:
                    52:53:a2:62:23:aa:c4:f1:51:2a:bb:93:e9:2e:64:
                    fb:0c:3f:bb:c7:67:60:db:13:37:c8:4d:b2:41:c7:
                    00:65:0d:c8:ef:5b:7d:29:45:dc:ea:a5:8d:ef:5b:
                    c8:a4:1c:3a:20:1e:12:ad:2d:f5:a6:80:f3:22:78:
                    eb:67:87:43:9b:7e:11:0f:b0:01:31:9e:b8:e1:43:
                    16:d0:4c:18:13:02:1d:da:14:3d:be:94:f8:14:7b:
                    5f:fa:a3:2c:1a:d9:4d:84:21:be:e1:e7:b8:f8:98:
                    da:a5:b6:0f:27:bc:d2:aa:2c:90:13:6c:b8:a0:f7:
                    94:9f:34:c8:96:4b:2c:39:18:e1:b1:fe:c7:1e:05:
                    a5:e8:19:bc:5a:d8:10:fa:8a:85:f6:f8:5c:93:fd:
                    97:9a:c0:94:98:e0:39:12:4d:73:74:85:f6:44:b2:
                    24:8a:51:7c:fd:99:ff:e7:a6:8d:06:aa:07:ce:5e:
                    46:51:5c:dc:4b:2e:e3:12:9a:cf:02:13:7e:3c:55:
                    7a:39:f4:87:67:1b:0a:c4:2f:49:4d:34:15:0e:23:
                    01:67:01
                Exponent: 65537 (0x10001)
        X509v3 extensions:
            Authority Information Access: 
                CA Issuers - URI:http://root-ca.Teleco.com/root-ca.crt
                OCSP - URI:http://ocsp.root-ca.Teleco.com:9080

            X509v3 Authority Key Identifier: 
                keyid:4F:5C:C0:E0:D3:03:4E:BD:A5:8D:EB:EA:23:DD:29:41:92:E9:2E:AB

            X509v3 Basic Constraints: critical
                CA:TRUE, pathlen:0
            X509v3 CRL Distribution Points: 

                Full Name:
                  URI:http://root-ca.Teleco.com/root-ca.crl

            X509v3 Extended Key Usage: 
                TLS Web Client Authentication, TLS Web Server Authentication
            X509v3 Key Usage: critical
                Certificate Sign, CRL Sign
            X509v3 Name Constraints: 
                Permitted:
                  DNS:example.com
                  DNS:example.org
                Excluded:
                  IP:0.0.0.0/0.0.0.0
                  IP:0:0:0:0:0:0:0:0/0:0:0:0:0:0:0:0

            X509v3 Subject Key Identifier: 
                EE:2A:3D:FD:93:CA:A2:9F:58:48:6A:57:2B:3F:28:D5:BD:6D:C6:26
    Signature Algorithm: sha256WithRSAEncryption
         0a:96:fb:31:7d:98:e3:16:52:27:ff:5d:60:d5:c1:2e:5c:3d:
         fd:db:4f:db:3b:ea:4f:e1:7b:31:6d:37:ec:fa:a0:b7:d1:cd:
         2b:79:3a:cf:a7:86:d7:ac:7b:f4:b0:f9:3e:a2:68:52:67:25:
         8a:eb:04:c1:51:8a:f2:4a:41:3b:df:fc:f9:3e:e2:83:d7:b4:
         35:8a:15:69:27:00:b3:09:70:74:1e:ec:f5:bf:c8:ce:4c:80:
         b0:ac:4c:b9:7e:1d:16:ba:5d:f2:01:09:df:24:b9:8b:cf:93:
         4f:a7:ca:0c:ec:02:1c:97:1d:9c:73:ae:d1:8d:0c:08:fe:40:
         5f:b1:04:d1:5e:b6:49:f1:ef:cc:17:50:9a:9a:f5:cb:ef:6f:
         1c:a5:ad:b1:22:15:ba:d4:22:d9:02:5e:1c:cc:69:66:76:af:
         e2:25:39:14:80:11:d9:ca:c9:06:b8:cf:1b:9c:c8:ea:49:8d:
         c4:2f:0e:c7:71:b4:a0:58:c7:12:2f:e6:96:31:ea:15:f9:48:
         7f:c4:a5:37:6f:45:4c:4e:cb:84:80:a2:f0:42:9c:e7:2e:48:
         71:cb:7a:05:d6:64:51:db:fe:62:8a:79:cf:c0:07:97:a3:32:
         88:60:2f:43:2f:2e:bc:d6:69:43:d0:57:b7:87:eb:41:e2:a6:
         6f:7c:bc:46:60:31:4f:bf:3f:02:99:52:fa:d4:fd:27:b9:39:
         e4:72:b3:56:85:51:a0:58:5c:c1:49:ed:95:27:0d:a5:06:2b:
         b9:cb:3d:fe:8e:d0:b1:71:1e:15:40:36:4e:15:22:5a:2f:64:
         63:38:82:4c:3d:ff:2b:24:95:ca:88:f9:d3:b9:78:95:26:e0:
         6b:7a:f3:41:31:6b:36:34:ba:da:dc:77:8c:2a:05:e4:d2:5b:
         d5:10:be:99:da:f7:c4:1e:35:94:59:b8:c8:bd:9a:b7:e0:5b:
         5e:70:5e:49:31:b1:e2:7f:81:37:1b:be:ca:92:8e:44:2a:68:
         d8:bd:f9:ed:e3:c0:a4:0a:2e:96:54:b7:bd:0d:13:a1:98:09:
         35:4e:e5:8d:2a:3d:be:85:63:44:ae:92:20:8d:5e:d4:7f:99:
         7e:7e:95:04:7f:c3:25:dd:c6:f5:57:7c:82:64:72:48:67:c1:
         14:39:4b:71:82:f7:19:5b:6b:fa:a6:ac:5d:c6:d9:8d:ec:2f:
         39:2f:04:02:f8:16:ec:f8:3e:9b:9f:22:50:f9:1b:17:c8:c3:
         3e:e2:59:c8:62:05:6b:d0:ce:c3:17:00:0a:1f:fc:47:e7:57:
         50:86:c9:50:5a:0b:b4:cc:3f:6f:ea:5b:d7:18:f9:02:bf:e3:
         4b:58:87:7e:54:bb:d0:67
-----BEGIN CERTIFICATE-----
MIIGfjCCBGagAwIBAgIQCRzw7wO+Q/pg5k5IOJLxRDANBgkqhkiG9w0BAQsFADAw
MQswCQYDVQQGEwJFUzEPMA0GA1UECgwGVGVsZWNvMRAwDgYDVQQDDAdSb290IENB
MB4XDTIzMDQwNDIxNTUyN1oXDTMzMDQwMTIxNTUyN1owMjELMAkGA1UEBhMCRVMx
DzANBgNVBAoMBlRlbGVjbzESMBAGA1UEAwwJQ2xpZW50IENBMIICIjANBgkqhkiG
9w0BAQEFAAOCAg8AMIICCgKCAgEAscBQ26Wv8xdn1Mb6Ap0A71bLzdD2MdzUZdyP
ZKHoxij1ytHWcy+LKC2lPrhTJBl//S80zi+Xl7jJA1t+oB+OGIa12Ho0GojzpF+K
Pf4bAzGy+SuOzK8bJH2JNkyYKM02tbtuIjpMLd+aDmdKZcR3oNDaWiJJaq+zKwBT
tc54tS6ZmpyBmZ12drMIklrdsNhSjKD5+APLlqH1FcFoSZoUWqHylXfU1FDbP1BC
FeYLL9e28QJmr9WN7/npHjr3LXuYeXrtyD0EZEIcH5p4qw+H8JMkjYGWdnijLkrJ
enb86OIBgzEcSnxgxfFUg0p8xqfHJjjIPccqdl+iset/f1/t13t+WHo3GkLcYEst
WEoxHU26N/MOkatUCzoGXzNYGGkb3QrAygFJyU+XvV9SU6JiI6rE8VEqu5PpLmT7
DD+7x2dg2xM3yE2yQccAZQ3I71t9KUXc6qWN71vIpBw6IB4SrS31poDzInjrZ4dD
m34RD7ABMZ644UMW0EwYEwId2hQ9vpT4FHtf+qMsGtlNhCG+4ee4+JjapbYPJ7zS
qiyQE2y4oPeUnzTIlkssORjhsf7HHgWl6Bm8WtgQ+oqF9vhck/2XmsCUmOA5Ek1z
dIX2RLIkilF8/Zn/56aNBqoHzl5GUVzcSy7jEprPAhN+PFV6OfSHZxsKxC9JTTQV
DiMBZwECAwEAAaOCAZAwggGMMHIGCCsGAQUFBwEBBGYwZDAxBggrBgEFBQcwAoYl
aHR0cDovL3Jvb3QtY2EuVGVsZWNvLmNvbS9yb290LWNhLmNydDAvBggrBgEFBQcw
AYYjaHR0cDovL29jc3Aucm9vdC1jYS5UZWxlY28uY29tOjkwODAwHwYDVR0jBBgw
FoAUT1zA4NMDTr2ljevqI90pQZLpLqswEgYDVR0TAQH/BAgwBgEB/wIBADA2BgNV
HR8ELzAtMCugKaAnhiVodHRwOi8vcm9vdC1jYS5UZWxlY28uY29tL3Jvb3QtY2Eu
Y3JsMB0GA1UdJQQWMBQGCCsGAQUFBwMCBggrBgEFBQcDATAOBgNVHQ8BAf8EBAMC
AQYwWwYDVR0eBFQwUqAeMA2CC2V4YW1wbGUuY29tMA2CC2V4YW1wbGUub3JnoTAw
CocIAAAAAAAAAAAwIocgAAAAAAAAAAAAAAAAAAAAAAAAAAAAAAAAAAAAAAAAAAAw
HQYDVR0OBBYEFO4qPf2TyqKfWEhqVys/KNW9bcYmMA0GCSqGSIb3DQEBCwUAA4IC
AQAKlvsxfZjjFlIn/11g1cEuXD3920/bO+pP4XsxbTfs+qC30c0reTrPp4bXrHv0
sPk+omhSZyWK6wTBUYrySkE73/z5PuKD17Q1ihVpJwCzCXB0Huz1v8jOTICwrEy5
fh0Wul3yAQnfJLmLz5NPp8oM7AIclx2cc67RjQwI/kBfsQTRXrZJ8e/MF1CamvXL
728cpa2xIhW61CLZAl4czGlmdq/iJTkUgBHZyskGuM8bnMjqSY3ELw7HcbSgWMcS
L+aWMeoV+Uh/xKU3b0VMTsuEgKLwQpznLkhxy3oF1mRR2/5iinnPwAeXozKIYC9D
Ly681mlD0Fe3h+tB4qZvfLxGYDFPvz8CmVL61P0nuTnkcrNWhVGgWFzBSe2VJw2l
Biu5yz3+jtCxcR4VQDZOFSJaL2RjOIJMPf8rJJXKiPnTuXiVJuBrevNBMWs2NLra
3HeMKgXk0lvVEL6Z2vfEHjWUWbjIvZq34FtecF5JMbHif4E3G77Kko5EKmjYvfnt
48CkCi6WVLe9DROhmAk1TuWNKj2+hWNErpIgjV7Uf5l+fpUEf8Ml3cb1V3yCZHJI
Z8EUOUtxgvcZW2v6pqxdxtmN7C85LwQC+Bbs+D6bnyJQ+RsXyMM+4lnIYgVr0M7D
FwAKH/xH51dQhslQWgu0zD9v6lvXGPkCv+NLWId+VLvQZw==
-----END CERTIFICATE-----
