Certificate:
    Data:
        Version: 3 (0x2)
        Serial Number:
            09:1c:f0:ef:03:be:43:fa:60:e6:4e:48:38:92:f1:3e
        Signature Algorithm: sha256WithRSAEncryption
        Issuer: C=ES, O=Teleco, CN=Root CA
        Validity
            Not Before: Apr  4 14:57:08 2023 GMT
            Not After : Apr  1 14:57:08 2033 GMT
        Subject: C=ES, O=Teleco, CN=Root CA
        Subject Public Key Info:
            Public Key Algorithm: rsaEncryption
                RSA Public-Key: (4096 bit)
                Modulus:
                    00:e8:5d:1a:01:55:5f:68:f2:5d:d4:c2:d1:3e:d7:
                    b3:9a:59:7b:63:14:5e:e1:01:82:f2:f6:10:b7:b7:
                    73:c6:e3:61:d5:5c:e3:23:9e:b5:6f:c0:8d:b3:d6:
                    c3:58:cf:58:70:b8:28:b9:06:97:64:1f:c7:f5:7c:
                    a4:d5:b2:b8:c3:7f:7a:79:cd:2d:9f:46:db:17:3e:
                    ea:dc:30:9d:64:41:49:5e:ca:38:02:19:b9:d6:9f:
                    67:69:71:cf:cc:60:07:98:27:1a:05:6a:53:9b:a5:
                    4f:56:a0:35:7d:48:fb:09:22:21:32:19:1e:c5:0c:
                    e7:3b:18:b1:3f:ec:24:9d:02:eb:0c:9f:6a:d2:d7:
                    c2:6e:ff:6e:e3:3c:35:58:99:a2:e1:6a:33:03:71:
                    0a:45:69:60:8b:3c:a4:a3:ba:6b:ae:80:d5:7d:ec:
                    1b:76:00:d5:f5:63:d0:5a:44:c6:13:33:93:42:34:
                    29:fc:0c:8f:c0:c4:66:57:7c:7e:83:e2:83:31:4a:
                    bb:fb:b1:c7:28:6b:30:17:6c:9f:fe:24:b0:81:52:
                    f4:ea:f9:cf:a2:dd:aa:67:f6:98:69:30:25:bb:80:
                    69:a7:a6:f4:42:7c:09:d0:28:39:51:c1:44:92:f1:
                    54:d4:07:d6:13:e1:29:21:5f:33:ce:52:ff:30:ec:
                    38:f4:0b:b2:6c:b4:98:bf:01:1a:e6:cc:95:e3:f6:
                    e2:cf:7d:d8:4f:82:45:fd:0b:b6:1b:74:23:5f:a6:
                    79:9d:af:51:ae:20:f2:fd:c8:b5:ca:c3:f6:9f:7d:
                    21:36:0b:c5:85:7f:3e:74:fe:d1:92:5d:c8:fa:00:
                    63:52:8a:a8:76:da:02:79:94:c3:45:ce:0d:77:28:
                    cd:6a:1e:9c:db:0b:9e:42:75:0f:92:72:d7:b0:3e:
                    49:67:9e:a5:57:4d:47:2e:a2:95:2e:a0:ec:11:5a:
                    91:21:9f:c9:2c:58:ef:70:53:3c:3a:9c:e5:f3:00:
                    a1:6a:71:42:e3:6a:cd:36:c1:b0:00:73:d4:5b:74:
                    e7:b5:12:f1:1d:f0:dd:1e:dc:ef:67:7d:c4:ab:07:
                    b3:11:dd:4d:b9:c8:85:69:0a:93:d4:18:d7:ce:16:
                    15:0a:02:81:74:22:1d:72:21:d3:1b:ee:f9:20:7c:
                    00:88:ae:4f:10:91:59:04:69:e5:9e:46:be:92:c7:
                    e3:b8:e4:f8:df:e4:e4:e8:eb:b4:91:0d:13:1d:d7:
                    13:10:6c:e4:e1:ea:64:b8:36:0c:9d:58:a6:43:4f:
                    99:15:42:dc:8d:35:d7:c4:55:55:3a:7b:6e:b9:37:
                    25:c7:5b:58:63:55:8b:55:46:4c:51:21:e0:01:80:
                    36:b3:d7
                Exponent: 65537 (0x10001)
        X509v3 extensions:
            X509v3 Basic Constraints: critical
                CA:TRUE
            X509v3 Key Usage: critical
                Certificate Sign, CRL Sign
            X509v3 Subject Key Identifier: 
                FF:49:E2:E4:B8:A1:21:F1:7A:6A:1A:B6:5A:40:C0:E3:E7:D6:D6:5E
    Signature Algorithm: sha256WithRSAEncryption
         dd:24:ef:ec:42:60:a1:ec:e3:b1:cf:0d:a7:1d:dc:5a:3c:91:
         54:4d:c3:bd:03:2b:fc:32:9b:54:a7:74:e0:5c:08:f5:53:3a:
         9e:70:66:a2:29:2d:02:57:ad:be:d2:14:be:78:22:30:9b:7a:
         b7:28:6d:d9:2e:0e:d6:5f:3d:9c:41:4a:39:ef:4f:65:f2:5b:
         67:1e:f9:b1:de:86:d2:1f:34:93:26:3b:7b:f3:16:7d:2e:fb:
         d8:89:e6:d9:bd:1d:c8:8c:ff:44:a2:da:5c:cd:80:a4:cb:b5:
         3e:ed:5e:c9:a9:5a:8a:bd:90:8f:f4:ba:85:a9:27:3d:03:35:
         2a:05:b0:09:e1:e5:15:20:5a:1f:79:94:8b:88:02:d8:02:13:
         02:db:b2:8b:7f:06:22:e5:a0:91:21:42:0c:22:25:35:2e:b4:
         6c:5d:39:bc:89:50:e9:a9:53:05:3a:d9:d9:04:84:4c:f8:92:
         66:37:92:d5:c0:41:14:47:74:98:19:91:ac:e7:0b:4f:0b:49:
         37:5d:a0:5d:1b:1e:8f:53:43:50:fb:95:ae:9f:94:65:75:be:
         3f:86:03:3a:02:f3:37:75:e2:1c:27:32:20:a6:a2:ad:d3:2d:
         37:28:26:7f:19:16:94:d2:63:10:c9:de:f7:f7:7a:0d:4b:10:
         0b:95:8c:f5:1c:2f:c9:b1:44:22:b7:77:d0:fb:9f:48:f7:2c:
         10:1c:e3:52:79:42:30:8b:f3:1e:84:ef:a8:f2:a9:c9:74:f2:
         48:2d:5f:0f:2d:62:95:b8:96:a6:38:1b:34:7b:b7:6d:65:92:
         5d:19:64:02:69:b6:a6:66:94:42:ce:6e:f9:f8:14:77:86:df:
         45:80:42:3d:b1:41:f2:03:b2:7e:f0:99:a1:72:86:08:3a:a6:
         6c:58:2f:7d:e7:7c:80:3e:d5:74:ae:bf:b0:13:0a:11:06:9a:
         ef:ca:d2:88:33:63:ba:9a:c3:0c:ae:23:ec:ba:a4:c5:d1:86:
         6c:a3:5e:84:32:25:29:45:e2:10:91:c2:ac:08:02:e3:ab:94:
         24:6f:4e:91:c0:cc:90:df:81:36:37:79:cf:66:5d:c1:80:91:
         4d:d7:7b:ee:da:1e:40:ee:66:49:9c:e5:d2:c5:1e:32:1e:c6:
         12:01:dc:22:3d:c5:b6:5a:94:50:ca:98:b4:b5:89:81:1f:53:
         9a:a1:21:5e:5a:72:65:f6:39:11:95:55:f4:b6:2d:dd:05:45:
         b0:1c:07:2e:18:bb:44:9d:1f:3b:fe:9b:81:63:5c:6f:5c:25:
         2d:f6:9c:85:f2:59:07:39:98:f9:c2:6c:e1:55:1a:a4:a1:56:
         94:fb:94:86:f6:2d:8e:69
-----BEGIN CERTIFICATE-----
MIIFLDCCAxSgAwIBAgIQCRzw7wO+Q/pg5k5IOJLxPjANBgkqhkiG9w0BAQsFADAw
MQswCQYDVQQGEwJFUzEPMA0GA1UECgwGVGVsZWNvMRAwDgYDVQQDDAdSb290IENB
MB4XDTIzMDQwNDE0NTcwOFoXDTMzMDQwMTE0NTcwOFowMDELMAkGA1UEBhMCRVMx
DzANBgNVBAoMBlRlbGVjbzEQMA4GA1UEAwwHUm9vdCBDQTCCAiIwDQYJKoZIhvcN
AQEBBQADggIPADCCAgoCggIBAOhdGgFVX2jyXdTC0T7Xs5pZe2MUXuEBgvL2ELe3
c8bjYdVc4yOetW/AjbPWw1jPWHC4KLkGl2Qfx/V8pNWyuMN/ennNLZ9G2xc+6tww
nWRBSV7KOAIZudafZ2lxz8xgB5gnGgVqU5ulT1agNX1I+wkiITIZHsUM5zsYsT/s
JJ0C6wyfatLXwm7/buM8NViZouFqMwNxCkVpYIs8pKO6a66A1X3sG3YA1fVj0FpE
xhMzk0I0KfwMj8DEZld8foPigzFKu/uxxyhrMBdsn/4ksIFS9Or5z6Ldqmf2mGkw
JbuAaaem9EJ8CdAoOVHBRJLxVNQH1hPhKSFfM85S/zDsOPQLsmy0mL8BGubMleP2
4s992E+CRf0Ltht0I1+meZ2vUa4g8v3ItcrD9p99ITYLxYV/PnT+0ZJdyPoAY1KK
qHbaAnmUw0XODXcozWoenNsLnkJ1D5Jy17A+SWeepVdNRy6ilS6g7BFakSGfySxY
73BTPDqc5fMAoWpxQuNqzTbBsABz1Ft057US8R3w3R7c72d9xKsHsxHdTbnIhWkK
k9QY184WFQoCgXQiHXIh0xvu+SB8AIiuTxCRWQRp5Z5GvpLH47jk+N/k5OjrtJEN
Ex3XExBs5OHqZLg2DJ1YpkNPmRVC3I0118RVVTp7brk3JcdbWGNVi1VGTFEh4AGA
NrPXAgMBAAGjQjBAMA8GA1UdEwEB/wQFMAMBAf8wDgYDVR0PAQH/BAQDAgEGMB0G
A1UdDgQWBBT/SeLkuKEh8XpqGrZaQMDj59bWXjANBgkqhkiG9w0BAQsFAAOCAgEA
3STv7EJgoezjsc8Npx3cWjyRVE3DvQMr/DKbVKd04FwI9VM6nnBmoiktAletvtIU
vngiMJt6tyht2S4O1l89nEFKOe9PZfJbZx75sd6G0h80kyY7e/MWfS772Inm2b0d
yIz/RKLaXM2ApMu1Pu1eyalair2Qj/S6haknPQM1KgWwCeHlFSBaH3mUi4gC2AIT
Atuyi38GIuWgkSFCDCIlNS60bF05vIlQ6alTBTrZ2QSETPiSZjeS1cBBFEd0mBmR
rOcLTwtJN12gXRsej1NDUPuVrp+UZXW+P4YDOgLzN3XiHCcyIKairdMtNygmfxkW
lNJjEMne9/d6DUsQC5WM9RwvybFEIrd30PufSPcsEBzjUnlCMIvzHoTvqPKpyXTy
SC1fDy1ilbiWpjgbNHu3bWWSXRlkAmm2pmaUQs5u+fgUd4bfRYBCPbFB8gOyfvCZ
oXKGCDqmbFgvfed8gD7VdK6/sBMKEQaa78rSiDNjuprDDK4j7LqkxdGGbKNehDIl
KUXiEJHCrAgC46uUJG9OkcDMkN+BNjd5z2ZdwYCRTdd77toeQO5mSZzl0sUeMh7G
EgHcIj3FtlqUUMqYtLWJgR9TmqEhXlpyZfY5EZVV9LYt3QVFsBwHLhi7RJ0fO/6b
gWNcb1wlLfachfJZBzmY+cJs4VUapKFWlPuUhvYtjmk=
-----END CERTIFICATE-----
