Certificate:
    Data:
        Version: 3 (0x2)
        Serial Number:
            09:1c:f0:ef:03:be:43:fa:60:e6:4e:48:38:92:f1:43
        Signature Algorithm: sha256WithRSAEncryption
        Issuer: C=ES, O=Teleco, CN=Root CA
        Validity
            Not Before: Apr  4 21:53:15 2023 GMT
            Not After : Apr  3 21:53:15 2024 GMT
        Subject: C=ES, O=Teleco, CN=OCSP Responder
        Subject Public Key Info:
            Public Key Algorithm: rsaEncryption
                RSA Public-Key: (2048 bit)
                Modulus:
                    00:a9:60:75:b5:23:ac:00:ee:84:4b:cb:af:55:14:
                    76:5e:be:c6:15:06:44:04:d8:8f:21:8f:97:81:17:
                    3d:32:39:d1:42:bc:60:7e:9f:28:d5:dd:ea:73:46:
                    0c:96:34:c9:83:53:e7:83:46:2e:14:ec:36:45:39:
                    9e:85:16:cb:07:5f:79:3a:ca:78:b2:5c:8a:bc:49:
                    01:99:93:aa:ff:b5:2f:2c:2e:d4:8d:08:63:66:0a:
                    6c:2c:ca:5e:7b:93:4b:dd:c7:2a:1a:e4:8a:d0:53:
                    5c:76:4f:89:c3:fd:3f:cb:5d:2a:b8:73:f3:3e:ad:
                    20:7e:8a:b2:34:3e:72:79:7f:71:72:11:30:5e:85:
                    48:da:aa:8c:12:09:5c:eb:07:19:70:69:d7:88:a1:
                    82:e3:40:d5:79:f4:b0:39:e1:d1:c8:f3:51:43:f6:
                    1f:4f:f3:ad:14:35:61:a0:1c:07:4c:ea:da:a3:a9:
                    4d:55:7f:04:7b:1e:9e:18:e3:a7:7f:5e:35:60:74:
                    e7:bd:9d:3c:70:3e:79:79:c7:d9:0b:1b:62:26:33:
                    58:8e:9d:07:8b:0d:98:0c:bd:f4:f7:b2:69:be:4e:
                    a3:27:43:15:ef:31:4b:29:b3:23:4a:39:ec:52:f8:
                    ac:44:5b:f1:c2:0c:b9:9c:de:89:e0:4c:15:8a:d6:
                    07:c3
                Exponent: 65537 (0x10001)
        X509v3 extensions:
            X509v3 Authority Key Identifier: 
                keyid:4F:5C:C0:E0:D3:03:4E:BD:A5:8D:EB:EA:23:DD:29:41:92:E9:2E:AB

            X509v3 Basic Constraints: critical
                CA:FALSE
            X509v3 Extended Key Usage: 
                OCSP Signing
            X509v3 Key Usage: critical
                Digital Signature
            X509v3 Subject Key Identifier: 
                94:B5:D9:62:D2:B0:F0:6C:3B:AE:AC:91:6D:C7:FC:0C:77:83:F8:DA
    Signature Algorithm: sha256WithRSAEncryption
         85:ec:7e:c2:a4:fb:c2:59:49:a8:5a:84:fb:c2:bd:38:51:de:
         bd:dd:59:4c:ba:83:9c:66:80:ed:5b:81:90:99:01:b6:ec:dc:
         35:28:37:9c:dc:c2:d0:63:9a:29:83:a5:89:8f:7e:85:e6:c0:
         d2:cd:36:9d:52:66:f2:22:95:5b:f5:53:d0:a0:0e:90:9e:24:
         08:69:68:87:de:1c:90:63:27:b1:1d:45:bc:ce:90:12:0b:20:
         1a:d9:f9:39:dd:9a:1e:a4:67:2b:89:4c:95:f1:b3:03:4d:27:
         b6:93:74:bf:69:19:fc:a1:ba:8d:35:99:cb:36:fd:6a:ba:73:
         d1:61:35:ff:58:03:8b:2d:81:d6:6c:89:28:aa:1a:0e:03:59:
         06:69:7c:ac:fe:61:17:f2:2a:eb:a1:df:3f:d6:2e:8a:3d:e5:
         18:1d:9d:69:3f:9f:87:24:96:b9:74:cd:58:29:32:50:60:40:
         1b:f0:71:a9:a8:20:57:a5:f2:ed:1b:4f:73:03:a5:0b:9c:2a:
         4f:1b:18:37:a5:4f:03:f7:3f:b8:e1:ac:0c:d6:bd:31:10:86:
         c3:83:fa:56:3f:22:b6:ee:d8:a5:16:46:da:82:dd:b1:37:74:
         eb:e5:c9:50:ca:2d:5a:ed:ca:32:a7:ab:33:0f:82:cd:77:02:
         e8:53:74:2d:d1:eb:3c:1d:e5:2d:85:f1:1b:d8:76:88:1d:69:
         c1:2e:0d:6f:59:3d:df:52:a5:7c:37:95:8b:7e:d5:21:ee:c9:
         20:e9:ab:29:e7:7e:cb:8d:f1:59:2d:9a:c2:2b:99:e4:f1:ed:
         7b:da:9f:4a:eb:4b:6b:dd:5e:12:4b:14:ba:08:94:f3:d9:7d:
         41:26:46:11:59:f8:c7:98:fc:50:43:d9:a8:a5:e8:c0:3d:99:
         f3:2e:0e:13:48:51:d0:64:9f:28:c5:fe:60:e0:3d:19:ca:ef:
         9b:52:82:72:5e:20:0b:07:5d:ce:f7:6f:b0:dc:de:ba:fd:3f:
         b2:27:08:d6:a8:d5:02:72:9e:c1:09:be:08:38:14:5c:fa:e8:
         10:32:af:69:aa:bf:43:0a:b5:19:42:65:4c:ef:b2:ea:61:0a:
         64:9a:b7:56:61:cb:a1:46:e9:a8:0b:b5:b8:9c:c3:a1:93:d9:
         04:a7:4e:5e:76:3c:c5:c7:42:95:7b:85:a2:93:56:01:49:04:
         c7:f0:1b:b0:8d:76:64:cf:7d:e5:04:7d:31:53:60:79:99:35:
         e9:f7:7e:17:04:9d:fc:3f:ea:17:2e:48:9c:6d:c6:84:4b:26:
         02:bd:48:45:0c:62:5c:77:6c:72:da:d0:ff:f8:6c:3d:97:e6:
         63:d5:fa:51:5d:71:04:7e
-----BEGIN CERTIFICATE-----
MIIEZjCCAk6gAwIBAgIQCRzw7wO+Q/pg5k5IOJLxQzANBgkqhkiG9w0BAQsFADAw
MQswCQYDVQQGEwJFUzEPMA0GA1UECgwGVGVsZWNvMRAwDgYDVQQDDAdSb290IENB
MB4XDTIzMDQwNDIxNTMxNVoXDTI0MDQwMzIxNTMxNVowNzELMAkGA1UEBhMCRVMx
DzANBgNVBAoMBlRlbGVjbzEXMBUGA1UEAwwOT0NTUCBSZXNwb25kZXIwggEiMA0G
CSqGSIb3DQEBAQUAA4IBDwAwggEKAoIBAQCpYHW1I6wA7oRLy69VFHZevsYVBkQE
2I8hj5eBFz0yOdFCvGB+nyjV3epzRgyWNMmDU+eDRi4U7DZFOZ6FFssHX3k6yniy
XIq8SQGZk6r/tS8sLtSNCGNmCmwsyl57k0vdxyoa5IrQU1x2T4nD/T/LXSq4c/M+
rSB+irI0PnJ5f3FyETBehUjaqowSCVzrBxlwadeIoYLjQNV59LA54dHI81FD9h9P
860UNWGgHAdM6tqjqU1VfwR7Hp4Y46d/XjVgdOe9nTxwPnl5x9kLG2ImM1iOnQeL
DZgMvfT3smm+TqMnQxXvMUspsyNKOexS+KxEW/HCDLmc3ongTBWK1gfDAgMBAAGj
dTBzMB8GA1UdIwQYMBaAFE9cwODTA069pY3r6iPdKUGS6S6rMAwGA1UdEwEB/wQC
MAAwEwYDVR0lBAwwCgYIKwYBBQUHAwkwDgYDVR0PAQH/BAQDAgeAMB0GA1UdDgQW
BBSUtdli0rDwbDuurJFtx/wMd4P42jANBgkqhkiG9w0BAQsFAAOCAgEAhex+wqT7
wllJqFqE+8K9OFHevd1ZTLqDnGaA7VuBkJkBtuzcNSg3nNzC0GOaKYOliY9+hebA
0s02nVJm8iKVW/VT0KAOkJ4kCGloh94ckGMnsR1FvM6QEgsgGtn5Od2aHqRnK4lM
lfGzA00ntpN0v2kZ/KG6jTWZyzb9arpz0WE1/1gDiy2B1myJKKoaDgNZBml8rP5h
F/Iq66HfP9Yuij3lGB2daT+fhySWuXTNWCkyUGBAG/BxqaggV6Xy7RtPcwOlC5wq
TxsYN6VPA/c/uOGsDNa9MRCGw4P6Vj8itu7YpRZG2oLdsTd06+XJUMotWu3KMqer
Mw+CzXcC6FN0LdHrPB3lLYXxG9h2iB1pwS4Nb1k931KlfDeVi37VIe7JIOmrKed+
y43xWS2awiuZ5PHte9qfSutLa91eEksUugiU89l9QSZGEVn4x5j8UEPZqKXowD2Z
8y4OE0hR0GSfKMX+YOA9Gcrvm1KCcl4gCwddzvdvsNzeuv0/sicI1qjVAnKewQm+
CDgUXProEDKvaaq/Qwq1GUJlTO+y6mEKZJq3VmHLoUbpqAu1uJzDoZPZBKdOXnY8
xcdClXuFopNWAUkEx/AbsI12ZM995QR9MVNgeZk16fd+FwSd/D/qFy5InG3GhEsm
Ar1IRQxiXHdsctrQ//hsPZfmY9X6UV1xBH4=
-----END CERTIFICATE-----
