Certificate:
    Data:
        Version: 3 (0x2)
        Serial Number:
            09:1c:f0:ef:03:be:43:fa:60:e6:4e:48:38:92:f1:31
        Signature Algorithm: sha256WithRSAEncryption
        Issuer: C=ES, O=Teleco, CN=Root CA
        Validity
            Not Before: Apr  3 16:01:41 2023 GMT
            Not After : Mar 31 16:01:41 2033 GMT
        Subject: C=ES, O=Teleco, CN=Server CA
        Subject Public Key Info:
            Public Key Algorithm: rsaEncryption
                RSA Public-Key: (4096 bit)
                Modulus:
                    00:c0:c5:e3:9d:64:b1:96:9f:a2:da:bb:51:76:8e:
                    c5:88:17:f6:45:5b:1d:7b:4a:40:33:17:6a:40:4d:
                    60:f9:79:32:0c:84:1d:58:ef:f6:26:f8:45:d4:c0:
                    65:18:60:7a:74:7c:5e:97:8e:7c:d0:80:b4:d2:12:
                    8a:e7:d1:04:ed:85:d4:ce:f0:b2:61:a2:fc:1d:73:
                    af:a9:ff:46:0d:f1:65:b4:ed:f7:50:6a:c5:02:a3:
                    b3:22:5b:60:7f:bc:4e:09:7f:0f:ee:60:e2:9c:b4:
                    98:2d:ef:02:bd:8d:ba:3b:9f:9d:66:3b:f3:bf:01:
                    38:ee:32:3e:59:d5:5f:b4:34:a3:b4:f2:10:35:05:
                    16:e6:4b:03:9c:56:a0:97:0c:79:13:42:86:a6:6a:
                    b1:88:02:19:94:9e:2c:11:79:56:44:66:be:6c:8e:
                    72:b7:47:12:8d:84:c6:41:ad:b0:8c:f4:f8:6c:a7:
                    c6:b1:90:77:ca:83:c5:39:e0:d7:ec:c4:08:33:12:
                    32:24:25:3f:c3:ee:94:9f:49:e1:f1:83:f2:1c:c1:
                    82:cb:70:e5:47:86:4f:59:89:15:b5:5a:5c:b1:3e:
                    7c:97:48:dc:cb:56:dd:b5:1c:c2:f5:6d:9a:10:3c:
                    c4:90:0f:94:8c:7b:5c:37:74:e6:30:e4:a0:17:0e:
                    ec:1d:1f:29:ac:4f:f3:0b:19:8c:1e:e2:e9:d5:1b:
                    ce:4d:a3:8a:48:79:5e:0b:73:fc:0a:5a:56:c1:41:
                    db:60:b8:bc:8c:f6:d9:96:3d:ad:b8:af:55:ff:cc:
                    b4:81:b0:87:7f:d8:c8:59:bf:c6:5e:58:8c:32:b3:
                    ab:92:0a:c3:a5:8c:c7:5c:65:d0:fe:4a:d6:6b:13:
                    a6:93:6c:65:26:3d:a0:fb:74:4c:ff:2c:19:df:a3:
                    e6:02:88:63:58:a9:e7:49:44:31:e2:13:e7:95:90:
                    8f:0a:f2:b7:33:92:9a:a3:22:9a:13:16:a4:33:e7:
                    5f:ca:0a:ac:6d:a8:6e:34:2b:da:54:3d:18:f8:5b:
                    25:df:4d:24:2e:a1:4a:e4:cc:64:40:6f:64:5f:f0:
                    c0:5e:c2:ea:5e:42:87:83:f0:30:ab:af:24:8f:a4:
                    ec:62:ea:d3:66:77:fd:cc:14:f3:f0:d8:e9:c6:2d:
                    aa:e6:b0:21:ce:81:61:57:38:20:7d:f5:aa:0f:13:
                    cc:92:97:93:d4:78:8e:d8:6b:9b:61:36:82:6b:c6:
                    29:1d:19:b9:ef:33:70:72:2b:cd:c6:6e:68:53:10:
                    a7:cc:ce:02:ff:27:42:d7:08:5f:bd:5a:f0:f2:b8:
                    f5:e9:f6:83:21:8d:03:76:99:39:7c:87:7c:8c:9a:
                    44:d5:33
                Exponent: 65537 (0x10001)
        X509v3 extensions:
            Authority Information Access: 
                OCSP - URI:http://localhost:9080/

            X509v3 Authority Key Identifier: 
                keyid:8A:F1:16:09:2A:B1:57:D6:A1:B9:1E:BA:5F:5F:E6:81:DA:98:B4:F9

            X509v3 Basic Constraints: critical
                CA:TRUE, pathlen:0
            X509v3 CRL Distribution Points: 

                Full Name:
                  URI:http://root-ca.Teleco.com/root-ca.crl

            X509v3 Extended Key Usage: 
                TLS Web Client Authentication, TLS Web Server Authentication
            X509v3 Key Usage: critical
                Certificate Sign, CRL Sign
            X509v3 Name Constraints: 
                Permitted:
                  DNS:example.com
                  DNS:example.org
                Excluded:
                  IP:0.0.0.0/0.0.0.0
                  IP:0:0:0:0:0:0:0:0/0:0:0:0:0:0:0:0

            X509v3 Subject Key Identifier: 
                B9:0F:28:6B:E6:58:8D:64:D8:20:D6:F6:44:BD:5B:45:59:1B:74:2D
    Signature Algorithm: sha256WithRSAEncryption
         36:a2:ab:38:59:6d:78:4e:80:37:33:58:97:df:10:8e:27:33:
         40:3f:a3:b6:f3:cd:f7:39:50:6c:e2:f0:c4:eb:33:57:c1:2d:
         09:d0:c1:b9:73:24:65:f1:de:ae:27:e6:9d:db:fc:5a:30:3c:
         e9:dd:ed:1c:fb:90:65:93:f2:39:02:29:21:29:cb:04:f1:bd:
         a7:f9:5d:18:c6:7c:1a:8c:46:1c:da:f7:ab:26:80:cb:04:db:
         0c:5f:83:69:61:36:3a:22:84:8c:f4:76:b9:a8:cc:f7:75:b6:
         15:03:24:21:2f:81:b9:02:53:7a:fe:4a:04:dd:67:b6:c2:6d:
         b0:d5:1d:ec:d5:ef:67:c2:fb:dc:dc:7c:71:ae:4c:3e:5b:07:
         e7:a4:f3:e0:94:ba:91:f1:d1:16:4a:0d:e8:cc:c0:f6:ff:0e:
         c6:38:2c:e1:8a:d2:27:0e:9d:e1:72:d8:2c:f6:ef:1e:f4:c2:
         5f:b6:ce:6d:cd:51:38:83:5b:76:76:12:b7:f3:16:5a:62:e3:
         71:0a:dc:52:c1:8c:e8:4a:6c:65:bb:44:34:74:51:2b:6c:2d:
         fa:1c:2d:39:6f:4c:61:74:6a:66:51:d8:64:bd:3c:21:d7:a7:
         fd:06:7e:ea:5f:e6:d6:96:3a:4d:98:86:5f:78:25:97:26:cc:
         27:a7:dc:5d:8d:08:c5:ef:e6:34:f2:82:c8:ec:54:f2:f5:26:
         e1:df:8f:99:26:47:71:07:f3:53:ef:1c:86:c4:c1:39:df:b3:
         81:75:61:f7:bc:1c:49:f1:2c:a3:15:47:e5:48:93:a6:c0:b0:
         3f:7d:5d:f9:dc:af:1a:05:c4:93:eb:57:ee:7b:12:26:c9:3f:
         60:fc:94:0d:5c:b6:b6:d8:84:90:c1:20:32:54:33:ad:fe:e5:
         31:b2:1f:90:bd:e6:a0:c0:c5:3d:d3:92:ea:60:8d:ba:33:a2:
         7f:31:87:48:ac:cf:4f:77:d3:d0:07:98:84:ee:45:a1:bc:f5:
         72:e6:43:77:72:46:87:f1:71:4b:f2:f8:04:42:3a:f6:80:e6:
         5f:7d:51:10:3e:60:fa:ba:5f:0e:45:8b:6a:47:62:38:1d:1d:
         66:c5:04:30:63:06:63:7f:4b:a9:a5:e9:f4:a5:ec:11:60:22:
         c5:ac:be:38:f0:69:3c:b4:ba:55:49:8c:e6:6d:b6:00:c2:83:
         8a:fd:5c:c8:1b:10:ba:11:8a:41:25:91:1d:1b:3d:e7:f4:4b:
         ea:ef:c0:83:49:5b:0c:19:4c:ba:be:1a:ad:4e:db:ff:c7:7a:
         70:b5:7b:53:41:16:e0:bd:ed:60:95:38:dc:20:67:90:03:be:
         cb:e9:19:4c:89:5c:67:90
-----BEGIN CERTIFICATE-----
MIIGPjCCBCagAwIBAgIQCRzw7wO+Q/pg5k5IOJLxMTANBgkqhkiG9w0BAQsFADAw
MQswCQYDVQQGEwJFUzEPMA0GA1UECgwGVGVsZWNvMRAwDgYDVQQDDAdSb290IENB
MB4XDTIzMDQwMzE2MDE0MVoXDTMzMDMzMTE2MDE0MVowMjELMAkGA1UEBhMCRVMx
DzANBgNVBAoMBlRlbGVjbzESMBAGA1UEAwwJU2VydmVyIENBMIICIjANBgkqhkiG
9w0BAQEFAAOCAg8AMIICCgKCAgEAwMXjnWSxlp+i2rtRdo7FiBf2RVsde0pAMxdq
QE1g+XkyDIQdWO/2JvhF1MBlGGB6dHxel4580IC00hKK59EE7YXUzvCyYaL8HXOv
qf9GDfFltO33UGrFAqOzIltgf7xOCX8P7mDinLSYLe8CvY26O5+dZjvzvwE47jI+
WdVftDSjtPIQNQUW5ksDnFaglwx5E0KGpmqxiAIZlJ4sEXlWRGa+bI5yt0cSjYTG
Qa2wjPT4bKfGsZB3yoPFOeDX7MQIMxIyJCU/w+6Un0nh8YPyHMGCy3DlR4ZPWYkV
tVpcsT58l0jcy1bdtRzC9W2aEDzEkA+UjHtcN3TmMOSgFw7sHR8prE/zCxmMHuLp
1RvOTaOKSHleC3P8ClpWwUHbYLi8jPbZlj2tuK9V/8y0gbCHf9jIWb/GXliMMrOr
kgrDpYzHXGXQ/krWaxOmk2xlJj2g+3RM/ywZ36PmAohjWKnnSUQx4hPnlZCPCvK3
M5KaoyKaExakM+dfygqsbahuNCvaVD0Y+Fsl300kLqFK5MxkQG9kX/DAXsLqXkKH
g/Awq68kj6TsYurTZnf9zBTz8Njpxi2q5rAhzoFhVzggffWqDxPMkpeT1HiO2Gub
YTaCa8YpHRm57zNwcivNxm5oUxCnzM4C/ydC1whfvVrw8rj16faDIY0Ddpk5fId8
jJpE1TMCAwEAAaOCAVAwggFMMDIGCCsGAQUFBwEBBCYwJDAiBggrBgEFBQcwAYYW
aHR0cDovL2xvY2FsaG9zdDo5MDgwLzAfBgNVHSMEGDAWgBSK8RYJKrFX1qG5Hrpf
X+aB2pi0+TASBgNVHRMBAf8ECDAGAQH/AgEAMDYGA1UdHwQvMC0wK6ApoCeGJWh0
dHA6Ly9yb290LWNhLlRlbGVjby5jb20vcm9vdC1jYS5jcmwwHQYDVR0lBBYwFAYI
KwYBBQUHAwIGCCsGAQUFBwMBMA4GA1UdDwEB/wQEAwIBBjBbBgNVHR4EVDBSoB4w
DYILZXhhbXBsZS5jb20wDYILZXhhbXBsZS5vcmehMDAKhwgAAAAAAAAAADAihyAA
AAAAAAAAAAAAAAAAAAAAAAAAAAAAAAAAAAAAAAAAADAdBgNVHQ4EFgQUuQ8oa+ZY
jWTYINb2RL1bRVkbdC0wDQYJKoZIhvcNAQELBQADggIBADaiqzhZbXhOgDczWJff
EI4nM0A/o7bzzfc5UGzi8MTrM1fBLQnQwblzJGXx3q4n5p3b/FowPOnd7Rz7kGWT
8jkCKSEpywTxvaf5XRjGfBqMRhza96smgMsE2wxfg2lhNjoihIz0drmozPd1thUD
JCEvgbkCU3r+SgTdZ7bCbbDVHezV72fC+9zcfHGuTD5bB+ek8+CUupHx0RZKDejM
wPb/DsY4LOGK0icOneFy2Cz27x70wl+2zm3NUTiDW3Z2ErfzFlpi43EK3FLBjOhK
bGW7RDR0UStsLfocLTlvTGF0amZR2GS9PCHXp/0Gfupf5taWOk2Yhl94JZcmzCen
3F2NCMXv5jTygsjsVPL1JuHfj5kmR3EH81PvHIbEwTnfs4F1Yfe8HEnxLKMVR+VI
k6bAsD99XfncrxoFxJPrV+57EibJP2D8lA1ctrbYhJDBIDJUM63+5TGyH5C95qDA
xT3Tkupgjbozon8xh0isz09309AHmITuRaG89XLmQ3dyRofxcUvy+ARCOvaA5l99
URA+YPq6Xw5Fi2pHYjgdHWbFBDBjBmN/S6ml6fSl7BFgIsWsvjjwaTy0ulVJjOZt
tgDCg4r9XMgbELoRikElkR0bPef0S+rvwINJWwwZTLq+Gq1O2//HenC1e1NBFuC9
7WCVONwgZ5ADvsvpGUyJXGeQ
-----END CERTIFICATE-----
