Certificate:
    Data:
        Version: 3 (0x2)
        Serial Number:
            09:1c:f0:ef:03:be:43:fa:60:e6:4e:48:38:92:f1:4e
        Signature Algorithm: sha256WithRSAEncryption
        Issuer: C=ES, O=Teleco, CN=Root CA
        Validity
            Not Before: Apr  5 16:21:40 2023 GMT
            Not After : Apr  2 16:21:40 2033 GMT
        Subject: C=ES, O=Teleco, CN=clienttls13
        Subject Public Key Info:
            Public Key Algorithm: rsaEncryption
                RSA Public-Key: (2048 bit)
                Modulus:
                    00:cb:55:cf:da:72:56:c7:c2:8f:fe:85:68:b7:e9:
                    26:ec:33:ed:b2:da:bb:5e:64:63:3a:10:f3:59:63:
                    ed:c6:62:7e:9b:35:c7:c6:6b:0c:d8:f4:ea:81:a9:
                    20:c0:2e:65:1f:f0:a7:67:94:8a:1d:61:b0:fa:e5:
                    71:ad:02:39:d9:ee:56:a4:fd:6d:a6:4a:f3:88:ce:
                    84:2b:47:2f:08:b1:8a:ac:3f:53:22:55:e1:6f:21:
                    c2:3c:01:1a:bc:93:79:72:d9:d5:eb:34:ee:50:5e:
                    49:14:86:a4:c8:27:62:69:18:6f:3c:4e:89:df:c9:
                    73:3d:3c:52:c0:76:47:43:ab:92:78:61:c0:d2:4a:
                    61:78:84:e6:50:72:43:f9:f4:7e:cd:67:50:5a:d3:
                    4d:77:23:61:80:4b:c2:d4:71:27:d0:fe:85:3b:b8:
                    ee:a7:e5:36:86:1b:a3:d1:53:41:cc:76:03:b7:6a:
                    d0:93:7d:f3:db:02:d3:ea:fe:b8:c1:98:86:63:53:
                    b2:31:af:eb:c8:f5:06:78:e7:28:ab:d3:c2:5e:59:
                    4a:14:c8:47:28:3d:19:6f:8a:84:1b:d2:a7:85:7f:
                    7d:85:c8:7e:f7:b8:f0:f9:1a:ba:5c:98:83:57:eb:
                    33:a2:db:5a:d8:0a:67:c8:08:93:4a:dd:10:41:22:
                    5a:bd
                Exponent: 65537 (0x10001)
        X509v3 extensions:
            Authority Information Access: 
                CA Issuers - URI:http://root-ca.Teleco.com/root-ca.crt
                OCSP - URI:http://ocsp.root-ca.Teleco.com:9080

            X509v3 Authority Key Identifier: 
                keyid:4F:5C:C0:E0:D3:03:4E:BD:A5:8D:EB:EA:23:DD:29:41:92:E9:2E:AB

            X509v3 Basic Constraints: critical
                CA:FALSE
            X509v3 CRL Distribution Points: 

                Full Name:
                  URI:http://root-ca.Teleco.com/root-ca.crl

            X509v3 Extended Key Usage: 
                TLS Web Client Authentication
            X509v3 Key Usage: critical
                Digital Signature
            X509v3 Subject Key Identifier: 
                57:35:3C:AC:E6:BE:D3:7F:30:58:35:28:33:2F:3C:B6:C4:65:09:DA
    Signature Algorithm: sha256WithRSAEncryption
         0b:98:45:a6:62:40:97:25:27:10:29:7a:15:78:d4:f5:8b:f2:
         5e:01:5b:6e:4a:fd:0c:da:e2:8e:d4:42:9f:d5:82:95:f6:e7:
         44:2b:20:6e:2f:a3:0c:ca:58:f1:08:2b:ba:3b:fd:71:99:f0:
         77:48:22:f0:6c:c1:ac:ba:fa:4c:74:0f:fc:a2:4a:4f:9e:2d:
         5c:63:48:ca:05:e2:b4:df:da:6a:c5:00:15:ee:00:c8:99:9f:
         be:4d:4a:fc:a2:6f:ef:55:35:49:0c:1a:96:6b:76:95:b7:b2:
         3c:56:17:1f:70:f5:d6:ef:6f:0d:8d:f2:95:dd:af:16:03:ed:
         43:0d:6e:a0:0b:4b:95:e9:ab:84:1b:5c:36:08:6c:0b:24:4e:
         f7:a4:87:36:0e:25:c0:3c:92:5d:99:29:a3:a1:20:68:2d:f7:
         05:52:f8:f5:f3:5e:f5:ef:2a:cb:6a:47:e9:54:ac:cd:cc:f4:
         ef:8f:dd:2f:9e:ae:d0:62:10:4c:80:90:6f:30:07:31:3f:0e:
         b3:f4:ee:52:c0:56:2d:db:ea:ab:4f:d2:66:33:46:f9:0b:3e:
         86:2b:90:31:a7:cc:2d:b1:d1:d2:3b:44:ff:31:4b:ac:40:8a:
         cb:aa:6f:7c:38:e6:7a:fd:79:ab:56:74:f8:2e:4e:0e:44:71:
         59:8d:89:1d:d6:f5:4d:d6:b3:05:12:7e:af:51:17:52:7e:9f:
         9e:9c:d1:db:44:e7:a5:1b:c3:f9:b2:61:6f:fb:2a:d4:2b:ea:
         c5:2d:15:61:e6:aa:07:25:d4:b3:70:79:d2:be:31:89:7c:15:
         79:24:dc:bc:78:43:9b:ae:9b:e2:6b:43:cb:eb:1f:9a:93:0f:
         5f:e8:49:9f:99:af:92:cd:ba:78:be:a4:e0:05:2d:0c:56:8c:
         52:fc:6f:c7:0f:c0:d9:40:70:10:a8:46:12:b1:b8:79:fb:aa:
         2c:33:77:88:53:bc:47:13:12:d2:58:de:34:d1:86:56:c9:78:
         c3:9f:c8:89:54:0d:54:d5:63:9e:a5:96:36:06:20:04:e0:8e:
         55:1e:e8:12:5b:13:6a:a8:1a:bb:48:ff:fa:9c:d7:b7:83:19:
         76:12:7e:2f:96:5a:86:6a:38:94:bd:63:00:f1:ee:8e:74:e9:
         96:db:fc:58:c9:b8:35:3f:5b:c1:8a:03:3f:d4:b8:ab:5c:79:
         59:d4:37:d1:07:95:7a:ae:d2:2e:9d:d6:1c:85:71:24:4f:d9:
         8b:58:92:82:14:c9:89:1e:33:24:68:5d:71:a9:54:b4:29:53:
         b5:cf:e2:cd:51:fc:75:ed:99:2d:c5:55:65:fa:58:5f:99:b7:
         e1:34:d9:ec:dd:e2:fb:2a
-----BEGIN CERTIFICATE-----
MIIFEzCCAvugAwIBAgIQCRzw7wO+Q/pg5k5IOJLxTjANBgkqhkiG9w0BAQsFADAw
MQswCQYDVQQGEwJFUzEPMA0GA1UECgwGVGVsZWNvMRAwDgYDVQQDDAdSb290IENB
MB4XDTIzMDQwNTE2MjE0MFoXDTMzMDQwMjE2MjE0MFowNDELMAkGA1UEBhMCRVMx
DzANBgNVBAoMBlRlbGVjbzEUMBIGA1UEAwwLY2xpZW50dGxzMTMwggEiMA0GCSqG
SIb3DQEBAQUAA4IBDwAwggEKAoIBAQDLVc/aclbHwo/+hWi36SbsM+2y2rteZGM6
EPNZY+3GYn6bNcfGawzY9OqBqSDALmUf8KdnlIodYbD65XGtAjnZ7lak/W2mSvOI
zoQrRy8IsYqsP1MiVeFvIcI8ARq8k3ly2dXrNO5QXkkUhqTIJ2JpGG88TonfyXM9
PFLAdkdDq5J4YcDSSmF4hOZQckP59H7NZ1Ba0013I2GAS8LUcSfQ/oU7uO6n5TaG
G6PRU0HMdgO3atCTffPbAtPq/rjBmIZjU7Ixr+vI9QZ45yir08JeWUoUyEcoPRlv
ioQb0qeFf32FyH73uPD5GrpcmINX6zOi21rYCmfICJNK3RBBIlq9AgMBAAGjggEj
MIIBHzByBggrBgEFBQcBAQRmMGQwMQYIKwYBBQUHMAKGJWh0dHA6Ly9yb290LWNh
LlRlbGVjby5jb20vcm9vdC1jYS5jcnQwLwYIKwYBBQUHMAGGI2h0dHA6Ly9vY3Nw
LnJvb3QtY2EuVGVsZWNvLmNvbTo5MDgwMB8GA1UdIwQYMBaAFE9cwODTA069pY3r
6iPdKUGS6S6rMAwGA1UdEwEB/wQCMAAwNgYDVR0fBC8wLTAroCmgJ4YlaHR0cDov
L3Jvb3QtY2EuVGVsZWNvLmNvbS9yb290LWNhLmNybDATBgNVHSUEDDAKBggrBgEF
BQcDAjAOBgNVHQ8BAf8EBAMCB4AwHQYDVR0OBBYEFFc1PKzmvtN/MFg1KDMvPLbE
ZQnaMA0GCSqGSIb3DQEBCwUAA4ICAQALmEWmYkCXJScQKXoVeNT1i/JeAVtuSv0M
2uKO1EKf1YKV9udEKyBuL6MMyljxCCu6O/1xmfB3SCLwbMGsuvpMdA/8okpPni1c
Y0jKBeK039pqxQAV7gDImZ++TUr8om/vVTVJDBqWa3aVt7I8VhcfcPXW728NjfKV
3a8WA+1DDW6gC0uV6auEG1w2CGwLJE73pIc2DiXAPJJdmSmjoSBoLfcFUvj18171
7yrLakfpVKzNzPTvj90vnq7QYhBMgJBvMAcxPw6z9O5SwFYt2+qrT9JmM0b5Cz6G
K5Axp8wtsdHSO0T/MUusQIrLqm98OOZ6/XmrVnT4Lk4ORHFZjYkd1vVN1rMFEn6v
URdSfp+enNHbROelG8P5smFv+yrUK+rFLRVh5qoHJdSzcHnSvjGJfBV5JNy8eEOb
rpvia0PL6x+akw9f6Emfma+Szbp4vqTgBS0MVoxS/G/HD8DZQHAQqEYSsbh5+6os
M3eIU7xHExLSWN400YZWyXjDn8iJVA1U1WOepZY2BiAE4I5VHugSWxNqqBq7SP/6
nNe3gxl2En4vllqGajiUvWMA8e6OdOmW2/xYybg1P1vBigM/1LirXHlZ1DfRB5V6
rtIundYchXEkT9mLWJKCFMmJHjMkaF1xqVS0KVO1z+LNUfx17ZktxVVl+lhfmbfh
NNns3eL7Kg==
-----END CERTIFICATE-----
