Certificate:
    Data:
        Version: 3 (0x2)
        Serial Number:
            09:1c:f0:ef:03:be:43:fa:60:e6:4e:48:38:92:f1:4b
        Signature Algorithm: sha256WithRSAEncryption
        Issuer: C=ES, O=Teleco, CN=Root CA
        Validity
            Not Before: Apr  5 16:19:22 2023 GMT
            Not After : Apr  2 16:19:22 2033 GMT
        Subject: C=ES, O=Teleco, CN=servertls13
        Subject Public Key Info:
            Public Key Algorithm: rsaEncryption
                RSA Public-Key: (1512 bit)
                Modulus:
                    00:95:84:26:b1:58:3f:57:0a:1f:48:a4:5a:ce:01:
                    f8:af:19:81:08:27:f0:98:08:24:a6:4b:ed:2e:9a:
                    43:30:df:b6:ed:4a:a2:8d:93:a1:74:e9:0a:fc:d5:
                    c8:23:c2:3b:b7:e6:fe:3a:18:4a:50:98:e7:f6:31:
                    95:8d:a4:72:aa:e2:78:00:16:55:08:ee:82:ee:92:
                    d6:4e:20:b2:90:3c:aa:1d:6d:ae:01:d1:d4:43:e6:
                    6a:39:c7:45:9a:74:6f:ba:1a:71:a8:5d:a1:b4:c2:
                    20:87:01:79:8d:17:3c:9c:17:fc:31:c5:e1:c1:17:
                    96:b9:ab:57:48:47:4e:b6:4f:40:36:19:d0:30:f7:
                    2d:bd:37:19:08:90:de:c3:9b:dc:04:a3:e7:49:da:
                    e4:cb:c7:7c:0d:86:fe:ae:9c:07:fe:e3:79:13:0b:
                    b9:75:c8:62:96:33:cd:9b:25:45:04:f0:2f:b3:13:
                    5a:85:8a:e2:4b:43:df:b4:8d:c5
                Exponent: 65537 (0x10001)
        X509v3 extensions:
            Authority Information Access: 
                CA Issuers - URI:http://root-ca.Teleco.com/root-ca.crt
                OCSP - URI:http://ocsp.root-ca.Teleco.com:9080

            X509v3 Authority Key Identifier: 
                keyid:4F:5C:C0:E0:D3:03:4E:BD:A5:8D:EB:EA:23:DD:29:41:92:E9:2E:AB

            X509v3 Basic Constraints: critical
                CA:FALSE
            X509v3 CRL Distribution Points: 

                Full Name:
                  URI:http://root-ca.Teleco.com/root-ca.crl

            X509v3 Extended Key Usage: 
                TLS Web Client Authentication, TLS Web Server Authentication
            X509v3 Key Usage: critical
                Digital Signature, Key Encipherment
            X509v3 Subject Key Identifier: 
                03:45:05:D2:FA:2D:B3:C1:AB:B1:CC:81:5D:8E:A2:95:CB:E2:2E:8A
    Signature Algorithm: sha256WithRSAEncryption
         44:76:32:38:e8:b1:37:73:cc:14:0b:12:21:a3:a9:97:b5:14:
         0e:89:ee:bf:0b:1f:94:d4:2f:57:1f:1c:ec:e6:0a:f7:25:13:
         7e:a3:c2:35:95:67:19:9a:1a:bc:49:fc:26:b4:79:7a:91:a3:
         b4:8f:e3:38:6f:7e:0c:d2:3a:d5:3d:5e:02:63:39:19:f4:38:
         d2:32:a6:51:ce:56:bd:bc:56:22:59:77:19:dd:45:33:a4:db:
         b7:54:9a:d5:64:af:b2:08:21:1f:39:f8:fd:9f:f8:ad:df:88:
         ef:fd:e4:29:00:65:d4:7d:92:52:93:ad:71:5b:78:2f:a8:66:
         c1:eb:d7:b1:c9:ce:94:95:27:98:d8:e5:26:21:b6:42:94:32:
         aa:fd:bc:25:08:bb:04:a9:80:5a:ec:d0:21:42:51:59:cd:c4:
         41:8a:08:cb:ab:9d:8e:0d:c6:b0:a9:b0:97:6f:ca:aa:ac:44:
         99:de:30:6f:89:e5:2b:79:bb:c9:ad:8d:60:60:3f:cf:91:15:
         15:62:52:02:7a:27:7f:87:cc:9b:41:24:17:72:2d:0f:c9:7e:
         62:84:16:60:35:aa:f4:86:ac:8a:c3:48:82:0a:a2:25:4f:92:
         da:eb:c1:08:47:33:a6:96:5a:bd:0c:de:a7:65:69:2d:28:8c:
         b5:5a:ff:1e:30:4d:59:30:0d:38:b4:ea:0f:02:f6:5e:f2:d1:
         a1:4f:a9:94:ea:ae:38:f1:4f:3a:2f:79:7c:d4:82:69:bb:a7:
         3f:5c:f6:af:6e:3d:45:ed:67:41:15:90:86:03:52:54:c7:f4:
         12:a5:fe:92:e7:e5:8b:43:c6:04:53:89:66:4b:eb:df:b9:66:
         9f:da:22:89:c8:d6:11:d6:ec:ce:b3:b0:7e:d6:37:cf:ee:72:
         e7:07:d7:f2:b7:16:b4:d2:20:34:94:99:11:75:8d:6e:fe:c3:
         21:a1:f4:7c:90:7b:81:50:8b:a8:f7:1a:72:b6:12:32:60:c6:
         fd:cd:4c:00:de:d8:86:6a:28:52:5b:22:6e:e5:cd:d6:cf:59:
         5a:89:5c:6f:0c:5b:f0:83:5c:a5:43:5e:5a:fe:55:3c:c0:5f:
         55:b8:80:66:f3:5c:a8:1e:4e:1d:56:25:42:d7:f8:ca:45:34:
         80:ca:05:50:55:3a:46:11:d0:4e:ef:17:1f:2f:73:bc:31:c4:
         66:37:81:f1:6e:00:c7:f6:ac:57:6a:93:47:18:2a:de:3c:7f:
         d8:b0:9c:39:0a:01:e5:80:d8:36:fd:9d:57:b3:3c:66:58:34:
         77:ae:53:89:32:61:a5:e9:9a:fa:23:89:dc:73:da:bd:67:f8:
         67:d4:25:ef:05:86:86:18
-----BEGIN CERTIFICATE-----
MIIE1jCCAr6gAwIBAgIQCRzw7wO+Q/pg5k5IOJLxSzANBgkqhkiG9w0BAQsFADAw
MQswCQYDVQQGEwJFUzEPMA0GA1UECgwGVGVsZWNvMRAwDgYDVQQDDAdSb290IENB
MB4XDTIzMDQwNTE2MTkyMloXDTMzMDQwMjE2MTkyMlowNDELMAkGA1UEBhMCRVMx
DzANBgNVBAoMBlRlbGVjbzEUMBIGA1UEAwwLc2VydmVydGxzMTMwgdwwDQYJKoZI
hvcNAQEBBQADgcoAMIHGAoG+AJWEJrFYP1cKH0ikWs4B+K8ZgQgn8JgIJKZL7S6a
QzDftu1Koo2ToXTpCvzVyCPCO7fm/joYSlCY5/YxlY2kcqrieAAWVQjugu6S1k4g
spA8qh1trgHR1EPmajnHRZp0b7oacahdobTCIIcBeY0XPJwX/DHF4cEXlrmrV0hH
TrZPQDYZ0DD3Lb03GQiQ3sOb3ASj50na5MvHfA2G/q6cB/7jeRMLuXXIYpYzzZsl
RQTwL7MTWoWK4ktD37SNxQIDAQABo4IBLTCCASkwcgYIKwYBBQUHAQEEZjBkMDEG
CCsGAQUFBzAChiVodHRwOi8vcm9vdC1jYS5UZWxlY28uY29tL3Jvb3QtY2EuY3J0
MC8GCCsGAQUFBzABhiNodHRwOi8vb2NzcC5yb290LWNhLlRlbGVjby5jb206OTA4
MDAfBgNVHSMEGDAWgBRPXMDg0wNOvaWN6+oj3SlBkukuqzAMBgNVHRMBAf8EAjAA
MDYGA1UdHwQvMC0wK6ApoCeGJWh0dHA6Ly9yb290LWNhLlRlbGVjby5jb20vcm9v
dC1jYS5jcmwwHQYDVR0lBBYwFAYIKwYBBQUHAwIGCCsGAQUFBwMBMA4GA1UdDwEB
/wQEAwIFoDAdBgNVHQ4EFgQUA0UF0vots8GrscyBXY6ilcviLoowDQYJKoZIhvcN
AQELBQADggIBAER2MjjosTdzzBQLEiGjqZe1FA6J7r8LH5TUL1cfHOzmCvclE36j
wjWVZxmaGrxJ/Ca0eXqRo7SP4zhvfgzSOtU9XgJjORn0ONIyplHOVr28ViJZdxnd
RTOk27dUmtVkr7IIIR85+P2f+K3fiO/95CkAZdR9klKTrXFbeC+oZsHr17HJzpSV
J5jY5SYhtkKUMqr9vCUIuwSpgFrs0CFCUVnNxEGKCMurnY4NxrCpsJdvyqqsRJne
MG+J5St5u8mtjWBgP8+RFRViUgJ6J3+HzJtBJBdyLQ/JfmKEFmA1qvSGrIrDSIIK
oiVPktrrwQhHM6aWWr0M3qdlaS0ojLVa/x4wTVkwDTi06g8C9l7y0aFPqZTqrjjx
TzoveXzUgmm7pz9c9q9uPUXtZ0EVkIYDUlTH9BKl/pLn5YtDxgRTiWZL69+5Zp/a
IonI1hHW7M6zsH7WN8/ucucH1/K3FrTSIDSUmRF1jW7+wyGh9HyQe4FQi6j3GnK2
EjJgxv3NTADe2IZqKFJbIm7lzdbPWVqJXG8MW/CDXKVDXlr+VTzAX1W4gGbzXKge
Th1WJULX+MpFNIDKBVBVOkYR0E7vFx8vc7wxxGY3gfFuAMf2rFdqk0cYKt48f9iw
nDkKAeWA2Db9nVezPGZYNHeuU4kyYaXpmvojidxz2r1n+GfUJe8FhoYY
-----END CERTIFICATE-----
