Certificate:
    Data:
        Version: 3 (0x2)
        Serial Number:
            09:1c:f0:ef:03:be:43:fa:60:e6:4e:48:38:92:f1:35
        Signature Algorithm: sha256WithRSAEncryption
        Issuer: C=ES, O=Teleco, CN=Root CA
        Validity
            Not Before: Apr  3 22:01:02 2023 GMT
            Not After : Mar 31 22:01:02 2033 GMT
        Subject: C=ES, O=Teleco, CN=Root CA
        Subject Public Key Info:
            Public Key Algorithm: rsaEncryption
                RSA Public-Key: (4096 bit)
                Modulus:
                    00:d1:aa:3f:b9:bf:7f:f1:39:a7:d0:27:98:b6:cb:
                    62:9b:14:3e:e9:91:bc:a5:71:aa:38:b3:a9:2e:76:
                    23:fa:ab:dc:44:85:36:7a:bb:77:0e:9f:8e:42:85:
                    e0:25:18:a3:ce:d2:6f:0c:80:1e:22:0b:31:ea:f5:
                    24:bd:fe:df:0e:40:c1:eb:29:35:05:b8:d3:21:e1:
                    15:84:ad:19:d2:78:8d:fb:30:99:03:0e:8a:37:52:
                    84:19:77:32:6d:db:81:67:6b:46:0b:bd:52:b3:ef:
                    77:1d:ba:43:98:b4:a9:56:bc:ec:7c:06:84:fb:21:
                    fc:72:37:5a:fa:eb:32:c0:6d:41:7b:2d:cc:74:d8:
                    ff:c3:c2:d8:b4:74:2d:41:82:bc:2f:03:63:22:7f:
                    29:27:86:d7:9c:2d:55:ca:5f:4a:ef:51:1a:94:67:
                    d4:a5:ec:52:f0:13:32:d6:7f:d7:41:f5:65:08:dc:
                    52:94:c5:a0:cd:7d:5c:12:3a:1d:17:48:c7:04:d1:
                    9e:57:f6:da:80:94:1d:af:f5:08:af:57:ba:2a:f7:
                    4f:5d:0f:75:36:e0:30:69:12:34:04:53:e3:4f:d8:
                    eb:d4:1f:0c:25:be:3a:99:a6:8a:dd:fc:cd:a4:d8:
                    10:b4:26:b2:48:2f:8f:1f:41:60:57:6a:bf:ae:d5:
                    0b:89:68:61:71:c3:0c:23:2f:77:c1:8a:13:93:da:
                    d9:f2:33:49:4c:05:35:e8:b9:c1:01:cc:4d:2d:73:
                    f9:c4:67:a7:76:63:fe:07:62:c7:af:48:9f:dc:dd:
                    4a:f0:ce:f8:dd:20:81:36:b7:2a:8f:9a:2e:ed:25:
                    af:8d:50:2b:02:5b:a2:8f:1b:16:ea:a1:ae:55:89:
                    a4:6f:14:e5:87:b6:2d:92:90:92:5c:75:c3:4a:48:
                    ee:69:92:b3:c7:82:e7:13:9e:90:4a:99:2a:f8:b3:
                    50:c1:02:ad:6d:37:4d:38:2a:13:43:32:49:81:47:
                    e0:f8:d6:4c:05:99:9e:af:19:cf:b8:79:70:2f:ac:
                    37:5e:26:72:72:4a:7d:f4:0a:16:78:47:c2:2e:1c:
                    0a:94:4e:2a:65:b8:67:9a:a2:d0:10:28:25:9e:ec:
                    09:d0:3d:a0:02:77:8a:dc:a2:11:8c:6a:88:08:a5:
                    26:ba:26:66:27:e6:55:94:15:88:3f:ed:24:d4:d8:
                    90:d5:bd:57:e4:e6:c4:f7:d8:a0:93:04:8c:db:0d:
                    12:d1:be:fe:5d:b1:e6:38:0c:2b:e3:41:d5:e1:b1:
                    6d:5d:59:02:85:3a:c7:14:b2:f9:3a:d4:71:af:92:
                    d9:30:25:8b:3c:aa:18:3c:29:46:68:81:0b:95:2f:
                    4f:39:4f
                Exponent: 65537 (0x10001)
        X509v3 extensions:
            Authority Information Access: 
                CA Issuers - URI:http://root-ca.Teleco.com/root-ca.crt
                OCSP - URI:http://ocsp.root-ca.Teleco.com:9080

            X509v3 Authority Key Identifier: 
                keyid:27:4E:9A:9C:1E:BC:88:77:BB:84:6A:38:8B:ED:DA:7E:1E:E5:46:42

            X509v3 Basic Constraints: critical
                CA:TRUE, pathlen:0
            X509v3 CRL Distribution Points: 

                Full Name:
                  URI:http://root-ca.Teleco.com/root-ca.crl

            X509v3 Extended Key Usage: 
                TLS Web Client Authentication, TLS Web Server Authentication
            X509v3 Key Usage: critical
                Certificate Sign, CRL Sign
            X509v3 Name Constraints: 
                Permitted:
                  DNS:example.com
                  DNS:example.org
                Excluded:
                  IP:0.0.0.0/0.0.0.0
                  IP:0:0:0:0:0:0:0:0/0:0:0:0:0:0:0:0

            X509v3 Subject Key Identifier: 
                76:48:9E:8D:E2:65:49:2F:3E:70:BF:9D:43:39:3E:B2:31:53:45:B6
    Signature Algorithm: sha256WithRSAEncryption
         45:87:05:12:ce:0b:a7:e7:48:9e:f8:33:b3:5b:6c:be:80:9f:
         a3:e9:d2:9b:81:82:55:68:ad:60:b9:30:d1:53:40:69:30:31:
         84:ac:d6:3d:85:fc:3f:0d:91:2b:ff:ea:18:d9:3a:ba:38:a4:
         45:7e:48:8e:8f:1e:b0:46:dc:86:74:cf:14:69:9c:f2:a4:f9:
         0b:92:ac:0d:f2:8d:a2:56:b8:61:9a:50:9d:ea:4d:42:2a:8f:
         f2:c5:65:ef:6d:33:ac:ad:69:4f:2d:55:f9:71:02:10:39:df:
         5f:90:00:61:18:03:6d:ab:43:96:92:75:81:dd:f7:fb:9d:f4:
         2c:6f:86:d5:fe:c7:03:07:3f:be:80:2e:6b:c6:8d:cf:7c:61:
         86:08:26:5b:46:b2:90:bf:69:9f:00:f5:30:19:fa:06:d4:5c:
         a6:4f:d5:14:e2:67:6c:09:ea:26:3a:7d:e4:6d:4f:4b:b1:0e:
         3d:2a:ea:37:b6:79:60:e2:7e:8b:74:d9:89:d6:c2:cf:11:4c:
         76:bb:e2:22:71:8d:dc:d7:e3:f4:e8:fe:4c:8e:fe:8b:f3:da:
         54:55:b2:fc:90:f8:4b:83:c7:71:10:77:4a:03:61:9b:2b:be:
         9d:6a:5e:af:66:96:56:06:97:73:c7:aa:29:55:db:23:a6:f5:
         6a:a9:e6:48:7d:b6:c7:77:44:97:a3:26:21:43:a1:c7:af:b7:
         2c:55:20:05:78:d7:40:20:f9:d3:15:c0:64:af:c6:f9:16:7b:
         0a:f1:5d:21:c1:77:23:40:f8:8f:24:54:ba:37:6c:45:bd:53:
         1b:93:7d:78:77:79:7b:06:a7:21:ae:0a:8c:fa:62:4a:ba:41:
         2c:90:e5:3f:06:02:00:e7:05:5d:7f:ee:e1:e5:07:a6:a0:23:
         bc:27:c4:99:b4:6d:9b:b4:0a:6d:3b:65:ab:b5:b9:e3:be:e4:
         9c:12:29:59:c1:ce:89:5a:bc:6b:c0:40:a3:5c:2f:c5:67:28:
         83:15:13:81:79:de:14:8d:5e:41:af:09:e9:e6:41:e4:5c:fe:
         cf:10:a4:d9:8c:da:a7:89:84:db:33:9d:04:49:a1:5b:ec:38:
         e5:cb:30:15:ca:65:63:c4:44:84:88:29:dc:0a:67:8e:87:35:
         63:89:bb:06:b6:8a:d3:52:81:83:2c:1d:9d:57:36:2b:3b:66:
         e9:85:d1:cb:7b:c5:eb:25:f9:e7:68:1c:f4:31:58:6f:32:55:
         1c:b0:2c:05:4b:51:4e:f6:ed:b5:14:a5:3b:e4:09:d5:dc:0a:
         54:48:7c:e0:2e:4d:ed:71:99:44:15:1f:53:8f:df:76:69:55:
         59:3f:c2:80:02:8b:24:06
-----BEGIN CERTIFICATE-----
MIIGfDCCBGSgAwIBAgIQCRzw7wO+Q/pg5k5IOJLxNTANBgkqhkiG9w0BAQsFADAw
MQswCQYDVQQGEwJFUzEPMA0GA1UECgwGVGVsZWNvMRAwDgYDVQQDDAdSb290IENB
MB4XDTIzMDQwMzIyMDEwMloXDTMzMDMzMTIyMDEwMlowMDELMAkGA1UEBhMCRVMx
DzANBgNVBAoMBlRlbGVjbzEQMA4GA1UEAwwHUm9vdCBDQTCCAiIwDQYJKoZIhvcN
AQEBBQADggIPADCCAgoCggIBANGqP7m/f/E5p9AnmLbLYpsUPumRvKVxqjizqS52
I/qr3ESFNnq7dw6fjkKF4CUYo87SbwyAHiILMer1JL3+3w5AwespNQW40yHhFYSt
GdJ4jfswmQMOijdShBl3Mm3bgWdrRgu9UrPvdx26Q5i0qVa87HwGhPsh/HI3Wvrr
MsBtQXstzHTY/8PC2LR0LUGCvC8DYyJ/KSeG15wtVcpfSu9RGpRn1KXsUvATMtZ/
10H1ZQjcUpTFoM19XBI6HRdIxwTRnlf22oCUHa/1CK9Xuir3T10PdTbgMGkSNART
40/Y69QfDCW+Opmmit38zaTYELQmskgvjx9BYFdqv67VC4loYXHDDCMvd8GKE5Pa
2fIzSUwFNei5wQHMTS1z+cRnp3Zj/gdix69In9zdSvDO+N0ggTa3Ko+aLu0lr41Q
KwJboo8bFuqhrlWJpG8U5Ye2LZKQklx1w0pI7mmSs8eC5xOekEqZKvizUMECrW03
TTgqE0MySYFH4PjWTAWZnq8Zz7h5cC+sN14mcnJKffQKFnhHwi4cCpROKmW4Z5qi
0BAoJZ7sCdA9oAJ3ityiEYxqiAilJromZifmVZQViD/tJNTYkNW9V+TmxPfYoJME
jNsNEtG+/l2x5jgMK+NB1eGxbV1ZAoU6xxSy+TrUca+S2TAlizyqGDwpRmiBC5Uv
TzlPAgMBAAGjggGQMIIBjDByBggrBgEFBQcBAQRmMGQwMQYIKwYBBQUHMAKGJWh0
dHA6Ly9yb290LWNhLlRlbGVjby5jb20vcm9vdC1jYS5jcnQwLwYIKwYBBQUHMAGG
I2h0dHA6Ly9vY3NwLnJvb3QtY2EuVGVsZWNvLmNvbTo5MDgwMB8GA1UdIwQYMBaA
FCdOmpwevIh3u4RqOIvt2n4e5UZCMBIGA1UdEwEB/wQIMAYBAf8CAQAwNgYDVR0f
BC8wLTAroCmgJ4YlaHR0cDovL3Jvb3QtY2EuVGVsZWNvLmNvbS9yb290LWNhLmNy
bDAdBgNVHSUEFjAUBggrBgEFBQcDAgYIKwYBBQUHAwEwDgYDVR0PAQH/BAQDAgEG
MFsGA1UdHgRUMFKgHjANggtleGFtcGxlLmNvbTANggtleGFtcGxlLm9yZ6EwMAqH
CAAAAAAAAAAAMCKHIAAAAAAAAAAAAAAAAAAAAAAAAAAAAAAAAAAAAAAAAAAAMB0G
A1UdDgQWBBR2SJ6N4mVJLz5wv51DOT6yMVNFtjANBgkqhkiG9w0BAQsFAAOCAgEA
RYcFEs4Lp+dInvgzs1tsvoCfo+nSm4GCVWitYLkw0VNAaTAxhKzWPYX8Pw2RK//q
GNk6ujikRX5Ijo8esEbchnTPFGmc8qT5C5KsDfKNola4YZpQnepNQiqP8sVl720z
rK1pTy1V+XECEDnfX5AAYRgDbatDlpJ1gd33+530LG+G1f7HAwc/voAua8aNz3xh
hggmW0aykL9pnwD1MBn6BtRcpk/VFOJnbAnqJjp95G1PS7EOPSrqN7Z5YOJ+i3TZ
idbCzxFMdrviInGN3Nfj9Oj+TI7+i/PaVFWy/JD4S4PHcRB3SgNhmyu+nWper2aW
VgaXc8eqKVXbI6b1aqnmSH22x3dEl6MmIUOhx6+3LFUgBXjXQCD50xXAZK/G+RZ7
CvFdIcF3I0D4jyRUujdsRb1TG5N9eHd5ewanIa4KjPpiSrpBLJDlPwYCAOcFXX/u
4eUHpqAjvCfEmbRtm7QKbTtlq7W5477knBIpWcHOiVq8a8BAo1wvxWcogxUTgXne
FI1eQa8J6eZB5Fz+zxCk2Yzap4mE2zOdBEmhW+w45cswFcplY8REhIgp3Apnjoc1
Y4m7BraK01KBgywdnVc2Kztm6YXRy3vF6yX552gc9DFYbzJVHLAsBUtRTvbttRSl
O+QJ1dwKVEh84C5N7XGZRBUfU4/fdmlVWT/CgAKLJAY=
-----END CERTIFICATE-----
