Certificate:
    Data:
        Version: 3 (0x2)
        Serial Number:
            09:1c:f0:ef:03:be:43:fa:60:e6:4e:48:38:92:f1:4f
        Signature Algorithm: sha256WithRSAEncryption
        Issuer: C=ES, O=Teleco, CN=Root CA
        Validity
            Not Before: Apr  5 16:21:47 2023 GMT
            Not After : Apr  2 16:21:47 2033 GMT
        Subject: C=ES, O=Teleco, CN=clienttls13
        Subject Public Key Info:
            Public Key Algorithm: rsaEncryption
                RSA Public-Key: (1512 bit)
                Modulus:
                    00:bd:45:e1:34:e1:82:3a:29:4b:73:8c:a3:1b:aa:
                    66:01:db:b5:84:a2:2d:37:49:15:6c:23:ad:5f:44:
                    bd:62:be:35:04:09:54:8a:f0:50:01:b1:30:04:38:
                    fc:ae:cd:e7:bf:93:78:88:70:0e:49:06:c5:36:de:
                    f7:7e:0d:1e:bd:12:d8:a9:4e:19:95:4f:6d:41:be:
                    6d:82:a4:53:d3:ca:95:34:81:40:dd:1c:11:1d:09:
                    d7:e6:25:87:a7:b9:1e:3c:7d:ca:8d:1a:e4:c7:e5:
                    80:34:a9:43:3f:79:82:c9:2b:6c:37:50:a1:fd:00:
                    52:58:ff:de:d5:2c:5c:c7:0a:59:2d:58:57:4f:73:
                    17:53:59:7b:9c:b8:1c:82:41:a4:55:fc:99:a4:02:
                    b7:fe:f3:22:7d:9b:38:81:df:09:b0:42:20:c7:0d:
                    4e:21:b3:bf:91:61:3f:e6:84:42:f0:56:e6:bf:1b:
                    c3:3f:f9:78:8c:48:3f:d5:bf:d1
                Exponent: 65537 (0x10001)
        X509v3 extensions:
            Authority Information Access: 
                CA Issuers - URI:http://root-ca.Teleco.com/root-ca.crt
                OCSP - URI:http://ocsp.root-ca.Teleco.com:9080

            X509v3 Authority Key Identifier: 
                keyid:4F:5C:C0:E0:D3:03:4E:BD:A5:8D:EB:EA:23:DD:29:41:92:E9:2E:AB

            X509v3 Basic Constraints: critical
                CA:FALSE
            X509v3 CRL Distribution Points: 

                Full Name:
                  URI:http://root-ca.Teleco.com/root-ca.crl

            X509v3 Extended Key Usage: 
                TLS Web Client Authentication
            X509v3 Key Usage: critical
                Digital Signature
            X509v3 Subject Key Identifier: 
                80:F8:D6:63:4B:03:9B:3B:53:0A:F9:1C:0E:8A:D5:D8:4F:27:72:AB
    Signature Algorithm: sha256WithRSAEncryption
         14:ce:fc:b8:d8:fa:c6:5e:f2:66:9a:ab:75:3e:36:a2:93:fa:
         fc:33:bc:da:92:c7:b3:7e:82:ab:e2:5f:12:54:a2:9f:32:5e:
         62:6a:58:67:18:7c:b6:e2:b1:ba:f5:b7:ab:fb:1e:59:ad:06:
         18:f3:e9:a5:2f:f0:26:e1:22:25:b6:9b:b6:19:d8:97:d8:dd:
         3e:58:aa:71:0d:c3:a1:8c:0f:a9:4f:8d:ed:c7:2c:d1:00:2b:
         fc:0c:e6:ed:87:63:ed:f5:d5:37:c4:20:2b:b3:af:7d:ef:a2:
         8f:c1:61:9d:69:d4:2f:69:54:b8:3b:57:35:32:a0:10:61:57:
         1c:78:08:a2:af:49:e5:c1:52:7e:81:c1:d0:a4:2e:08:1b:55:
         97:b9:a5:b3:fc:a6:5d:99:0f:89:2f:bc:e9:c0:5c:9a:33:a9:
         2f:fd:a7:4a:d6:2e:7a:b1:bb:93:2c:b3:67:9f:19:98:a4:bf:
         ea:e2:dc:af:75:2e:ce:62:b8:e3:94:47:d4:60:95:f1:de:0c:
         60:4f:83:0d:f2:68:84:48:c0:12:b5:79:c9:27:aa:e9:a1:53:
         6f:77:c2:da:b9:50:d1:09:ba:8b:37:a4:59:26:14:d9:0a:fe:
         d5:03:cb:14:da:f1:e4:81:84:ea:98:c9:84:32:2d:af:00:bd:
         06:96:94:26:14:95:f8:7e:a2:e5:b8:f7:cd:0c:4b:a5:89:52:
         b8:71:bb:7a:dd:c3:03:2a:a8:9e:2d:ed:12:df:a7:9a:26:44:
         d4:86:0b:65:12:09:1d:0a:d2:10:4f:bc:cf:17:80:2f:b9:74:
         93:c7:79:3c:15:18:8f:7a:d7:25:fd:b9:e3:24:b4:6e:7b:e6:
         41:dc:6f:56:fe:23:ba:c3:ed:1b:44:53:5d:e7:1c:74:2e:6a:
         6c:45:8c:de:04:a5:d8:65:44:79:a8:2a:81:7e:c4:6b:5e:29:
         7e:ae:b0:a0:15:42:11:93:6c:17:17:3a:00:68:d5:0c:8b:7d:
         33:e6:50:c3:5f:54:9f:b9:b7:90:e8:ee:69:fc:7a:1b:f3:52:
         4f:9e:58:a8:57:d1:1d:4e:2e:a8:2a:9f:47:ec:31:79:b6:38:
         d9:5d:97:d5:c9:3a:12:2c:5d:8c:0e:43:d9:0a:01:57:77:56:
         21:37:9b:59:f5:e6:0c:cc:8a:bd:36:3c:af:1d:90:4d:e1:17:
         b3:10:b4:17:12:bb:82:c6:7d:a4:fc:af:f1:26:ff:bd:1d:d7:
         13:28:16:77:33:34:72:7e:b1:27:6e:d8:fd:86:4f:42:e1:52:
         6a:51:43:15:f4:3c:3e:3c:b9:7d:09:eb:d0:70:df:14:7c:5b:
         fb:04:b8:2e:a6:06:d1:39
-----BEGIN CERTIFICATE-----
MIIEzDCCArSgAwIBAgIQCRzw7wO+Q/pg5k5IOJLxTzANBgkqhkiG9w0BAQsFADAw
MQswCQYDVQQGEwJFUzEPMA0GA1UECgwGVGVsZWNvMRAwDgYDVQQDDAdSb290IENB
MB4XDTIzMDQwNTE2MjE0N1oXDTMzMDQwMjE2MjE0N1owNDELMAkGA1UEBhMCRVMx
DzANBgNVBAoMBlRlbGVjbzEUMBIGA1UEAwwLY2xpZW50dGxzMTMwgdwwDQYJKoZI
hvcNAQEBBQADgcoAMIHGAoG+AL1F4TThgjopS3OMoxuqZgHbtYSiLTdJFWwjrV9E
vWK+NQQJVIrwUAGxMAQ4/K7N57+TeIhwDkkGxTbe934NHr0S2KlOGZVPbUG+bYKk
U9PKlTSBQN0cER0J1+Ylh6e5Hjx9yo0a5MflgDSpQz95gskrbDdQof0AUlj/3tUs
XMcKWS1YV09zF1NZe5y4HIJBpFX8maQCt/7zIn2bOIHfCbBCIMcNTiGzv5FhP+aE
QvBW5r8bwz/5eIxIP9W/0QIDAQABo4IBIzCCAR8wcgYIKwYBBQUHAQEEZjBkMDEG
CCsGAQUFBzAChiVodHRwOi8vcm9vdC1jYS5UZWxlY28uY29tL3Jvb3QtY2EuY3J0
MC8GCCsGAQUFBzABhiNodHRwOi8vb2NzcC5yb290LWNhLlRlbGVjby5jb206OTA4
MDAfBgNVHSMEGDAWgBRPXMDg0wNOvaWN6+oj3SlBkukuqzAMBgNVHRMBAf8EAjAA
MDYGA1UdHwQvMC0wK6ApoCeGJWh0dHA6Ly9yb290LWNhLlRlbGVjby5jb20vcm9v
dC1jYS5jcmwwEwYDVR0lBAwwCgYIKwYBBQUHAwIwDgYDVR0PAQH/BAQDAgeAMB0G
A1UdDgQWBBSA+NZjSwObO1MK+RwOitXYTydyqzANBgkqhkiG9w0BAQsFAAOCAgEA
FM78uNj6xl7yZpqrdT42opP6/DO82pLHs36Cq+JfElSinzJeYmpYZxh8tuKxuvW3
q/seWa0GGPPppS/wJuEiJbabthnYl9jdPliqcQ3DoYwPqU+N7ccs0QAr/Azm7Ydj
7fXVN8QgK7Ovfe+ij8FhnWnUL2lUuDtXNTKgEGFXHHgIoq9J5cFSfoHB0KQuCBtV
l7mls/ymXZkPiS+86cBcmjOpL/2nStYuerG7kyyzZ58ZmKS/6uLcr3UuzmK445RH
1GCV8d4MYE+DDfJohEjAErV5ySeq6aFTb3fC2rlQ0Qm6izekWSYU2Qr+1QPLFNrx
5IGE6pjJhDItrwC9BpaUJhSV+H6i5bj3zQxLpYlSuHG7et3DAyqoni3tEt+nmiZE
1IYLZRIJHQrSEE+8zxeAL7l0k8d5PBUYj3rXJf254yS0bnvmQdxvVv4jusPtG0RT
XeccdC5qbEWM3gSl2GVEeagqgX7Ea14pfq6woBVCEZNsFxc6AGjVDIt9M+ZQw19U
n7m3kOjuafx6G/NST55YqFfRHU4uqCqfR+wxebY42V2X1ck6EixdjA5D2QoBV3dW
ITebWfXmDMyKvTY8rx2QTeEXsxC0FxK7gsZ9pPyv8Sb/vR3XEygWdzM0cn6xJ27Y
/YZPQuFSalFDFfQ8Pjy5fQnr0HDfFHxb+wS4LqYG0Tk=
-----END CERTIFICATE-----
