Certificate:
    Data:
        Version: 3 (0x2)
        Serial Number:
            09:1c:f0:ef:03:be:43:fa:60:e6:4e:48:38:92:f1:2e
        Signature Algorithm: sha256WithRSAEncryption
        Issuer: C=ES, O=Teleco, CN=Root CA
        Validity
            Not Before: Apr  2 22:02:33 2023 GMT
            Not After : Mar 30 22:02:33 2033 GMT
        Subject: C=ES, O=Teleco, CN=Client CA
        Subject Public Key Info:
            Public Key Algorithm: rsaEncryption
                RSA Public-Key: (4096 bit)
                Modulus:
                    00:c9:81:5b:dc:f5:a5:dd:56:ff:72:62:28:e6:d4:
                    e5:07:aa:d3:5e:81:67:b7:37:81:8b:a4:a8:76:af:
                    46:28:ba:13:6d:ce:d7:ce:e1:ce:85:b7:b4:07:5c:
                    84:d0:9c:b5:5c:19:f8:e3:cd:69:15:dd:d8:4d:17:
                    22:2a:c9:87:51:1d:43:9d:36:9e:a4:0e:58:09:9b:
                    8a:45:ce:22:21:c1:5b:9c:a4:fb:ac:69:75:2d:d7:
                    dd:71:ec:6e:70:f0:d3:d5:12:8e:a1:88:81:7c:52:
                    fc:b0:82:48:53:53:0f:f0:fe:70:3b:83:ad:2a:f3:
                    b8:c8:17:bf:fa:47:06:5c:35:e3:20:86:18:a8:86:
                    a9:c1:a5:66:e8:8a:5b:0c:d7:a2:a7:18:84:f9:b1:
                    15:b8:4b:bd:ec:94:3e:09:32:d1:8c:c7:b9:8a:fa:
                    86:68:7e:bd:35:fa:13:f4:56:67:07:25:94:b5:87:
                    54:bb:39:e1:8f:31:34:b8:eb:18:66:85:f9:32:b0:
                    8f:7c:23:b2:76:37:33:0e:15:51:d2:9f:c4:3f:c4:
                    1e:49:66:10:b9:7f:6a:14:9b:34:d7:e9:3b:5f:3a:
                    ae:f6:7f:96:21:3a:a7:43:0d:f6:fe:6e:a0:65:5b:
                    a9:ae:e2:f8:f9:ee:da:71:23:f9:b0:68:b5:97:3b:
                    b8:28:81:5e:e3:33:ca:ff:52:cb:62:65:b4:3c:36:
                    a9:c3:26:5a:10:26:04:42:58:bb:2c:a1:cc:cf:b3:
                    90:bd:06:45:6e:9f:c8:2a:48:a7:40:29:2e:e9:1b:
                    a8:1f:fc:7c:ef:81:54:27:0b:ec:90:4d:9e:f6:af:
                    09:62:84:27:91:f4:31:81:8f:9e:60:74:54:76:e1:
                    cc:38:1e:3f:9b:f0:1c:a0:29:e4:68:75:49:97:38:
                    c9:cc:91:a5:a4:b3:e9:e7:ad:95:ed:c5:e2:47:2f:
                    9d:97:44:c9:81:b7:fd:3f:25:0d:db:97:55:e8:a9:
                    f9:a7:fc:bb:41:6d:73:0d:2b:54:dc:f0:f8:27:a1:
                    c6:10:6a:ff:2e:af:88:59:c3:a7:10:ee:bf:99:9b:
                    42:9d:b4:d5:c9:03:fd:a8:c4:a6:1d:b6:56:6c:b4:
                    a5:e4:03:fb:78:4d:d4:63:a6:68:1d:90:a6:86:b6:
                    33:16:37:50:38:0d:e6:db:9a:fd:19:17:22:b4:e3:
                    a9:ad:20:94:bc:15:d4:d6:26:27:ff:97:84:42:f0:
                    3c:4a:7c:2b:65:2b:9c:c0:aa:cf:ec:a7:10:55:2b:
                    a7:00:d1:74:52:ec:3e:a7:78:85:c6:3a:08:1f:e4:
                    b4:be:7e:cc:34:47:d8:5a:50:4a:20:42:5e:04:02:
                    0f:b9:e3
                Exponent: 65537 (0x10001)
        X509v3 extensions:
            Authority Information Access: 
                OCSP - URI:http://localhost:9080/

            X509v3 Authority Key Identifier: 
                keyid:8A:F1:16:09:2A:B1:57:D6:A1:B9:1E:BA:5F:5F:E6:81:DA:98:B4:F9

            X509v3 Basic Constraints: critical
                CA:TRUE, pathlen:0
            X509v3 CRL Distribution Points: 

                Full Name:
                  URI:http://root-ca.Teleco.com/root-ca.crl

            X509v3 Extended Key Usage: 
                TLS Web Client Authentication, TLS Web Server Authentication
            X509v3 Key Usage: critical
                Certificate Sign, CRL Sign
            X509v3 Name Constraints: 
                Permitted:
                  DNS:example.com
                  DNS:example.org
                Excluded:
                  IP:0.0.0.0/0.0.0.0
                  IP:0:0:0:0:0:0:0:0/0:0:0:0:0:0:0:0

            X509v3 Subject Key Identifier: 
                21:1A:9A:58:C6:3A:D4:5C:48:0C:43:21:96:DD:5B:D4:10:31:8F:00
    Signature Algorithm: sha256WithRSAEncryption
         49:42:37:aa:66:cb:b6:ba:1d:59:b8:43:df:50:6d:61:0f:7d:
         e8:8a:4f:e2:15:51:18:94:91:46:a4:69:8a:0b:2a:df:b0:72:
         f2:dc:e6:dd:81:d3:42:9e:6a:2b:f9:e7:53:91:c1:47:c4:36:
         51:7f:44:6e:ca:24:2d:99:d2:ae:eb:fd:8f:e2:d9:bc:eb:d6:
         1e:5c:05:f6:bc:f2:b6:43:6b:96:69:97:c5:16:20:ee:5f:2d:
         b5:50:10:8a:af:1b:da:c9:09:a4:9b:5c:bd:52:c5:d4:aa:28:
         43:24:fa:51:af:dc:d1:d6:4f:e4:13:a7:4b:64:8e:70:cc:d8:
         9b:0d:03:ae:3c:1f:27:e3:22:d2:23:0a:39:e1:db:26:68:58:
         0f:8f:f4:27:9f:a3:84:74:21:aa:87:f3:1d:06:d8:9c:5e:5c:
         e8:84:81:ac:0d:0c:1c:69:be:d4:15:7f:4e:22:75:97:f7:1a:
         50:98:41:0c:c3:0f:d6:9e:71:cf:3d:63:8d:b9:58:4c:68:51:
         7d:d5:72:3d:a4:cb:6e:ac:b8:3e:9c:c1:0e:94:3f:db:e2:8d:
         e3:06:7f:e4:be:bc:cc:6d:d4:af:7f:a0:07:b1:c5:02:54:51:
         32:d4:90:a5:ac:04:cc:94:27:ce:7e:8f:66:30:a7:8d:da:82:
         b4:05:6f:65:1a:17:ed:9a:9d:1a:e1:e7:cc:69:87:1f:da:2a:
         78:c3:11:f1:29:2e:4d:0e:d4:a8:02:76:11:ad:5d:53:b9:c2:
         12:1d:33:b5:5f:e4:b7:16:ea:f9:c0:ba:23:8d:de:98:22:78:
         de:75:de:41:da:3e:39:a2:93:8a:80:a1:8d:96:66:1a:42:37:
         8d:f5:a1:3e:b2:00:d1:c0:86:29:ac:a4:32:97:eb:a7:55:70:
         a5:64:67:e6:55:81:a6:14:73:71:cf:8c:45:e5:96:6f:89:8f:
         1d:cc:14:ca:93:da:ad:c6:cd:05:1c:17:7e:87:e4:13:44:e4:
         ac:1d:c9:47:b1:99:03:08:87:46:71:74:81:9e:26:0c:cd:d6:
         de:7d:8f:9e:4b:6e:90:0e:9a:0b:3b:e4:cb:43:08:b5:2c:07:
         17:0f:8e:7e:18:06:d4:c7:ba:21:4c:8d:d6:1f:1f:58:05:a6:
         a1:ed:01:8f:9c:c8:25:92:b3:54:0a:b0:b1:ed:ee:84:92:48:
         f9:2f:35:29:09:48:c0:2a:6c:1f:39:4c:97:78:33:9a:aa:04:
         70:13:2e:c5:a1:4e:b6:bc:7d:02:ac:d7:ec:e7:9f:82:5c:02:
         20:d6:f7:3d:7b:d3:90:e9:c6:c7:d5:8f:75:67:3c:97:45:66:
         d8:fd:f5:3c:a8:ac:f2:66
-----BEGIN CERTIFICATE-----
MIIGPjCCBCagAwIBAgIQCRzw7wO+Q/pg5k5IOJLxLjANBgkqhkiG9w0BAQsFADAw
MQswCQYDVQQGEwJFUzEPMA0GA1UECgwGVGVsZWNvMRAwDgYDVQQDDAdSb290IENB
MB4XDTIzMDQwMjIyMDIzM1oXDTMzMDMzMDIyMDIzM1owMjELMAkGA1UEBhMCRVMx
DzANBgNVBAoMBlRlbGVjbzESMBAGA1UEAwwJQ2xpZW50IENBMIICIjANBgkqhkiG
9w0BAQEFAAOCAg8AMIICCgKCAgEAyYFb3PWl3Vb/cmIo5tTlB6rTXoFntzeBi6So
dq9GKLoTbc7XzuHOhbe0B1yE0Jy1XBn4481pFd3YTRciKsmHUR1DnTaepA5YCZuK
Rc4iIcFbnKT7rGl1LdfdcexucPDT1RKOoYiBfFL8sIJIU1MP8P5wO4OtKvO4yBe/
+kcGXDXjIIYYqIapwaVm6IpbDNeipxiE+bEVuEu97JQ+CTLRjMe5ivqGaH69NfoT
9FZnByWUtYdUuznhjzE0uOsYZoX5MrCPfCOydjczDhVR0p/EP8QeSWYQuX9qFJs0
1+k7Xzqu9n+WITqnQw32/m6gZVupruL4+e7acSP5sGi1lzu4KIFe4zPK/1LLYmW0
PDapwyZaECYEQli7LKHMz7OQvQZFbp/IKkinQCku6RuoH/x874FUJwvskE2e9q8J
YoQnkfQxgY+eYHRUduHMOB4/m/AcoCnkaHVJlzjJzJGlpLPp562V7cXiRy+dl0TJ
gbf9PyUN25dV6Kn5p/y7QW1zDStU3PD4J6HGEGr/Lq+IWcOnEO6/mZtCnbTVyQP9
qMSmHbZWbLSl5AP7eE3UY6ZoHZCmhrYzFjdQOA3m25r9GRcitOOprSCUvBXU1iYn
/5eEQvA8SnwrZSucwKrP7KcQVSunANF0Uuw+p3iFxjoIH+S0vn7MNEfYWlBKIEJe
BAIPueMCAwEAAaOCAVAwggFMMDIGCCsGAQUFBwEBBCYwJDAiBggrBgEFBQcwAYYW
aHR0cDovL2xvY2FsaG9zdDo5MDgwLzAfBgNVHSMEGDAWgBSK8RYJKrFX1qG5Hrpf
X+aB2pi0+TASBgNVHRMBAf8ECDAGAQH/AgEAMDYGA1UdHwQvMC0wK6ApoCeGJWh0
dHA6Ly9yb290LWNhLlRlbGVjby5jb20vcm9vdC1jYS5jcmwwHQYDVR0lBBYwFAYI
KwYBBQUHAwIGCCsGAQUFBwMBMA4GA1UdDwEB/wQEAwIBBjBbBgNVHR4EVDBSoB4w
DYILZXhhbXBsZS5jb20wDYILZXhhbXBsZS5vcmehMDAKhwgAAAAAAAAAADAihyAA
AAAAAAAAAAAAAAAAAAAAAAAAAAAAAAAAAAAAAAAAADAdBgNVHQ4EFgQUIRqaWMY6
1FxIDEMhlt1b1BAxjwAwDQYJKoZIhvcNAQELBQADggIBAElCN6pmy7a6HVm4Q99Q
bWEPfeiKT+IVURiUkUakaYoLKt+wcvLc5t2B00Keaiv551ORwUfENlF/RG7KJC2Z
0q7r/Y/i2bzr1h5cBfa88rZDa5Zpl8UWIO5fLbVQEIqvG9rJCaSbXL1SxdSqKEMk
+lGv3NHWT+QTp0tkjnDM2JsNA648HyfjItIjCjnh2yZoWA+P9Cefo4R0IaqH8x0G
2JxeXOiEgawNDBxpvtQVf04idZf3GlCYQQzDD9aecc89Y425WExoUX3Vcj2ky26s
uD6cwQ6UP9vijeMGf+S+vMxt1K9/oAexxQJUUTLUkKWsBMyUJ85+j2Ywp43agrQF
b2UaF+2anRrh58xphx/aKnjDEfEpLk0O1KgCdhGtXVO5whIdM7Vf5LcW6vnAuiON
3pgieN513kHaPjmik4qAoY2WZhpCN431oT6yANHAhimspDKX66dVcKVkZ+ZVgaYU
c3HPjEXllm+Jjx3MFMqT2q3GzQUcF36H5BNE5KwdyUexmQMIh0ZxdIGeJgzN1t59
j55LbpAOmgs75MtDCLUsBxcPjn4YBtTHuiFMjdYfH1gFpqHtAY+cyCWSs1QKsLHt
7oSSSPkvNSkJSMAqbB85TJd4M5qqBHATLsWhTra8fQKs1+znn4JcAiDW9z1705Dp
xsfVj3VnPJdFZtj99TyorPJm
-----END CERTIFICATE-----
