Certificate:
    Data:
        Version: 3 (0x2)
        Serial Number:
            09:1c:f0:ef:03:be:43:fa:60:e6:4e:48:38:92:f1:25
        Signature Algorithm: sha256WithRSAEncryption
        Issuer: C=ES, O=Teleco, CN=Root CA
        Validity
            Not Before: Mar 26 11:47:19 2023 GMT
            Not After : Mar 23 11:47:19 2033 GMT
        Subject: C=ES, O=Teleco, CN=Root CA
        Subject Public Key Info:
            Public Key Algorithm: rsaEncryption
                RSA Public-Key: (4096 bit)
                Modulus:
                    00:b0:9d:f3:27:96:79:da:9c:bd:ce:5f:7a:81:ca:
                    fc:a6:74:ef:b9:ff:40:2a:8a:a7:01:29:b1:46:72:
                    35:71:68:40:c2:aa:82:5f:92:75:e8:2a:71:fb:60:
                    10:70:e1:66:f1:1e:1a:85:75:58:bc:8b:ca:cf:b2:
                    b9:e3:6e:4b:07:d9:c9:dc:45:64:bd:1c:5d:eb:46:
                    3b:6d:02:c1:8d:8f:4d:86:29:5d:57:ea:15:4e:ea:
                    0a:6d:d5:1a:f4:23:52:01:ab:cb:19:7d:44:60:aa:
                    72:64:64:74:e9:e7:57:a7:29:d2:98:58:00:77:30:
                    9b:f2:3e:51:77:4a:a7:da:b8:d7:d8:f5:48:ea:a1:
                    17:b5:d7:20:b6:67:b7:a7:44:6a:ea:56:a3:72:8c:
                    2f:2b:6f:d7:dd:74:43:2f:97:b9:95:55:94:01:ba:
                    c4:b2:ab:fc:7c:b8:ed:b5:8a:92:ca:b0:51:d6:95:
                    d1:95:7b:78:66:9b:a6:15:59:e8:1d:70:f0:58:85:
                    62:4e:bc:e9:53:6d:b0:b0:aa:74:c3:b6:13:bc:f4:
                    fd:0e:f5:19:7d:11:eb:0c:ff:b7:d4:dd:22:5e:20:
                    d7:e9:9a:20:0f:7d:7d:ee:f3:60:83:d1:6e:4b:61:
                    59:55:59:36:8c:2d:3c:81:61:6e:b1:72:23:d5:91:
                    28:cc:c6:58:1b:5f:57:01:d7:87:1c:86:40:65:75:
                    97:d1:d9:52:05:6c:04:4a:09:d1:f0:c5:1a:14:34:
                    4e:98:57:78:d5:64:e2:30:7e:06:fc:11:f8:d9:e1:
                    3f:e3:38:08:1b:d4:ef:cd:c7:0b:c3:0d:11:f1:67:
                    6d:80:c0:2a:48:f5:24:f0:a1:81:79:12:44:04:08:
                    2a:84:1f:57:bc:fe:44:1e:17:4e:25:50:e0:2f:5a:
                    1f:82:2e:8b:72:6e:c7:33:5f:02:13:69:04:e3:a4:
                    59:b3:4b:06:fa:52:36:a4:00:4a:9e:a0:7c:81:7b:
                    86:3f:ef:f5:3e:ef:b1:06:07:0d:f6:13:00:4e:69:
                    6c:44:73:7e:cc:ec:05:0a:f9:ef:0f:c5:99:23:08:
                    4c:e2:f7:fd:60:9a:b0:94:e5:17:cd:ff:36:76:5f:
                    c5:81:0e:2d:43:d6:cb:4a:14:76:4c:22:ec:7f:51:
                    e9:b9:28:dc:fa:af:3c:2a:42:06:91:3c:d4:e6:64:
                    76:f1:a1:42:57:f5:9f:b0:65:3c:9c:2b:fb:2b:91:
                    d2:40:68:f8:e5:16:b4:7b:dd:bb:02:1c:ec:47:c9:
                    ec:8b:2c:b9:1e:66:7f:7c:b4:fb:1b:79:06:3b:22:
                    c8:b1:0d:d5:65:40:41:70:3b:04:53:b4:1f:ba:84:
                    78:b5:e3
                Exponent: 65537 (0x10001)
        X509v3 extensions:
            X509v3 Basic Constraints: critical
                CA:TRUE
            X509v3 Key Usage: critical
                Certificate Sign, CRL Sign
            X509v3 Subject Key Identifier: 
                FC:8A:D5:BA:86:C1:7F:70:12:DE:5D:3F:C8:2A:AA:25:95:29:6D:0B
    Signature Algorithm: sha256WithRSAEncryption
         a3:12:4b:96:be:a3:93:ca:19:74:1f:54:3e:99:3d:b7:22:03:
         4f:60:9a:a0:cd:b5:34:56:a4:40:bc:6e:60:d2:60:f9:29:12:
         35:8e:35:0b:fe:a7:bc:7d:a4:f1:b8:27:fb:4f:a1:0b:67:4c:
         e1:a7:d0:dd:ed:42:be:7d:35:52:56:2d:4c:d6:e2:4e:4d:db:
         40:47:74:e9:75:c4:73:13:07:0a:56:b4:b7:47:9b:f6:a1:20:
         be:83:a2:de:6d:e9:fb:6c:81:ab:02:8f:4d:ea:6c:cf:9e:59:
         08:a6:9f:c0:eb:e5:05:71:b6:84:b8:6f:8b:c2:e6:50:76:ee:
         19:d4:ac:33:b7:14:ea:eb:a1:ea:c8:b1:fa:bc:87:40:ca:a1:
         79:1c:a4:cf:79:b7:9c:a5:b7:e4:bd:e2:cd:43:ff:e4:98:47:
         d7:a8:67:87:92:3b:c6:ac:7b:a3:e3:30:3c:10:be:b8:a8:04:
         06:ed:ba:15:d8:c5:83:54:ee:83:49:bd:a7:9c:48:d8:46:89:
         db:01:28:4b:55:1a:10:d3:62:8c:3d:22:d5:91:85:5d:67:47:
         e9:e8:89:98:59:0d:38:06:9a:13:89:7f:ac:75:b6:f9:c2:93:
         ee:eb:09:76:21:4a:06:a0:a8:02:b3:3e:5e:f1:c8:28:62:f8:
         0b:fa:18:ba:61:b5:4a:9e:da:52:2d:ec:a0:1a:64:0a:81:fc:
         da:45:08:fe:bd:97:76:6d:60:49:08:97:14:75:45:0a:12:c0:
         69:4e:ad:f5:c5:23:cf:7b:dc:c1:10:c8:fa:6a:02:e5:74:40:
         15:c9:b8:d5:5c:25:fb:55:ed:ba:bc:ea:2f:93:6b:2c:40:b2:
         e8:db:f8:cb:82:c4:d5:e9:ef:cc:ca:51:4d:ba:42:44:e0:b3:
         6c:eb:48:58:db:c3:59:51:40:9e:ae:0f:28:f0:a9:45:2e:ea:
         f3:f5:06:2e:8e:85:f0:33:28:8b:27:b4:ac:b1:2e:19:31:c8:
         0a:0e:60:a2:24:d7:ad:9b:03:d0:1a:3f:55:d5:75:a7:1c:c8:
         d9:51:85:c7:11:aa:f2:28:a4:b6:62:d5:83:e2:e2:a7:f9:a1:
         1b:32:56:4e:fd:82:f9:f7:ef:21:dc:f2:db:b2:dc:42:c2:df:
         c9:c2:ae:48:2b:62:5b:63:b5:c5:59:7a:c4:7c:a4:dd:32:1a:
         09:f2:0d:f0:74:2e:08:36:16:c8:6d:74:a3:a3:a8:43:9e:2e:
         2d:0e:46:15:a9:15:29:b2:8b:bd:13:e2:72:37:75:0b:45:e5:
         bb:85:39:4f:af:f7:5e:3a:b0:05:a3:09:64:6a:b5:15:10:01:
         02:b4:e2:04:bd:4f:5d:59
-----BEGIN CERTIFICATE-----
MIIFLDCCAxSgAwIBAgIQCRzw7wO+Q/pg5k5IOJLxJTANBgkqhkiG9w0BAQsFADAw
MQswCQYDVQQGEwJFUzEPMA0GA1UECgwGVGVsZWNvMRAwDgYDVQQDDAdSb290IENB
MB4XDTIzMDMyNjExNDcxOVoXDTMzMDMyMzExNDcxOVowMDELMAkGA1UEBhMCRVMx
DzANBgNVBAoMBlRlbGVjbzEQMA4GA1UEAwwHUm9vdCBDQTCCAiIwDQYJKoZIhvcN
AQEBBQADggIPADCCAgoCggIBALCd8yeWedqcvc5feoHK/KZ077n/QCqKpwEpsUZy
NXFoQMKqgl+SdegqcftgEHDhZvEeGoV1WLyLys+yueNuSwfZydxFZL0cXetGO20C
wY2PTYYpXVfqFU7qCm3VGvQjUgGryxl9RGCqcmRkdOnnV6cp0phYAHcwm/I+UXdK
p9q419j1SOqhF7XXILZnt6dEaupWo3KMLytv1910Qy+XuZVVlAG6xLKr/Hy47bWK
ksqwUdaV0ZV7eGabphVZ6B1w8FiFYk686VNtsLCqdMO2E7z0/Q71GX0R6wz/t9Td
Il4g1+maIA99fe7zYIPRbkthWVVZNowtPIFhbrFyI9WRKMzGWBtfVwHXhxyGQGV1
l9HZUgVsBEoJ0fDFGhQ0TphXeNVk4jB+BvwR+NnhP+M4CBvU783HC8MNEfFnbYDA
Kkj1JPChgXkSRAQIKoQfV7z+RB4XTiVQ4C9aH4Iui3JuxzNfAhNpBOOkWbNLBvpS
NqQASp6gfIF7hj/v9T7vsQYHDfYTAE5pbERzfszsBQr57w/FmSMITOL3/WCasJTl
F83/NnZfxYEOLUPWy0oUdkwi7H9R6bko3PqvPCpCBpE81OZkdvGhQlf1n7BlPJwr
+yuR0kBo+OUWtHvduwIc7EfJ7IssuR5mf3y0+xt5BjsiyLEN1WVAQXA7BFO0H7qE
eLXjAgMBAAGjQjBAMA8GA1UdEwEB/wQFMAMBAf8wDgYDVR0PAQH/BAQDAgEGMB0G
A1UdDgQWBBT8itW6hsF/cBLeXT/IKqollSltCzANBgkqhkiG9w0BAQsFAAOCAgEA
oxJLlr6jk8oZdB9UPpk9tyIDT2CaoM21NFakQLxuYNJg+SkSNY41C/6nvH2k8bgn
+0+hC2dM4afQ3e1Cvn01UlYtTNbiTk3bQEd06XXEcxMHCla0t0eb9qEgvoOi3m3p
+2yBqwKPTepsz55ZCKafwOvlBXG2hLhvi8LmUHbuGdSsM7cU6uuh6six+ryHQMqh
eRykz3m3nKW35L3izUP/5JhH16hnh5I7xqx7o+MwPBC+uKgEBu26FdjFg1Tug0m9
p5xI2EaJ2wEoS1UaENNijD0i1ZGFXWdH6eiJmFkNOAaaE4l/rHW2+cKT7usJdiFK
BqCoArM+XvHIKGL4C/oYumG1Sp7aUi3soBpkCoH82kUI/r2Xdm1gSQiXFHVFChLA
aU6t9cUjz3vcwRDI+moC5XRAFcm41Vwl+1XturzqL5NrLECy6Nv4y4LE1envzMpR
TbpCROCzbOtIWNvDWVFAnq4PKPCpRS7q8/UGLo6F8DMoiye0rLEuGTHICg5goiTX
rZsD0Bo/VdV1pxzI2VGFxxGq8iiktmLVg+Lip/mhGzJWTv2C+ffvIdzy27LcQsLf
ycKuSCtiW2O1xVl6xHyk3TIaCfIN8HQuCDYWyG10o6OoQ54uLQ5GFakVKbKLvRPi
cjd1C0Xlu4U5T6/3XjqwBaMJZGq1FRABArTiBL1PXVk=
-----END CERTIFICATE-----
