Certificate:
    Data:
        Version: 3 (0x2)
        Serial Number:
            09:1c:f0:ef:03:be:43:fa:60:e6:4e:48:38:92:f1:52
        Signature Algorithm: sha256WithRSAEncryption
        Issuer: C=ES, O=Teleco, CN=Root CA
        Validity
            Not Before: Apr  5 20:22:00 2023 GMT
            Not After : Apr  2 20:22:00 2033 GMT
        Subject: C=ES, O=Teleco, CN=clienttls13
        Subject Public Key Info:
            Public Key Algorithm: rsaEncryption
                RSA Public-Key: (1512 bit)
                Modulus:
                    00:bd:45:e1:34:e1:82:3a:29:4b:73:8c:a3:1b:aa:
                    66:01:db:b5:84:a2:2d:37:49:15:6c:23:ad:5f:44:
                    bd:62:be:35:04:09:54:8a:f0:50:01:b1:30:04:38:
                    fc:ae:cd:e7:bf:93:78:88:70:0e:49:06:c5:36:de:
                    f7:7e:0d:1e:bd:12:d8:a9:4e:19:95:4f:6d:41:be:
                    6d:82:a4:53:d3:ca:95:34:81:40:dd:1c:11:1d:09:
                    d7:e6:25:87:a7:b9:1e:3c:7d:ca:8d:1a:e4:c7:e5:
                    80:34:a9:43:3f:79:82:c9:2b:6c:37:50:a1:fd:00:
                    52:58:ff:de:d5:2c:5c:c7:0a:59:2d:58:57:4f:73:
                    17:53:59:7b:9c:b8:1c:82:41:a4:55:fc:99:a4:02:
                    b7:fe:f3:22:7d:9b:38:81:df:09:b0:42:20:c7:0d:
                    4e:21:b3:bf:91:61:3f:e6:84:42:f0:56:e6:bf:1b:
                    c3:3f:f9:78:8c:48:3f:d5:bf:d1
                Exponent: 65537 (0x10001)
        X509v3 extensions:
            Authority Information Access: 
                CA Issuers - URI:http://root-ca.Teleco.com/root-ca.crt
                OCSP - URI:http://ocsp.root-ca.Teleco.com:9080

            X509v3 Authority Key Identifier: 
                keyid:4F:5C:C0:E0:D3:03:4E:BD:A5:8D:EB:EA:23:DD:29:41:92:E9:2E:AB

            X509v3 Basic Constraints: critical
                CA:FALSE
            X509v3 CRL Distribution Points: 

                Full Name:
                  URI:http://root-ca.Teleco.com/root-ca.crl

            X509v3 Extended Key Usage: 
                TLS Web Client Authentication
            X509v3 Key Usage: critical
                Digital Signature
            X509v3 Subject Key Identifier: 
                80:F8:D6:63:4B:03:9B:3B:53:0A:F9:1C:0E:8A:D5:D8:4F:27:72:AB
    Signature Algorithm: sha256WithRSAEncryption
         93:d4:f8:bb:6b:47:f2:e5:9d:8f:ed:d4:63:a7:c3:c1:4c:ce:
         23:0e:38:9f:96:f0:c6:a3:10:54:50:27:94:10:08:aa:37:5c:
         5e:9f:09:34:24:7c:8e:56:fc:68:ad:f6:9d:50:86:59:22:a4:
         ef:b2:f4:57:7d:2d:35:f1:e8:8c:e3:82:11:3e:53:bf:a4:d9:
         a3:66:85:b0:37:e7:7d:bb:9d:b7:2d:1f:bf:85:bb:95:74:e9:
         c3:e5:b9:24:ca:a0:5a:17:9b:a9:ab:c7:c9:8c:92:09:75:d2:
         20:c8:4a:00:a1:c6:20:32:b4:37:c5:ba:81:45:44:74:23:2d:
         cf:86:fe:ce:46:0c:e4:b6:ea:39:58:13:fc:ec:26:05:20:8f:
         f4:de:43:3c:4f:8c:c5:1f:2a:42:f7:8b:f2:a3:2b:52:c9:b8:
         f5:d1:83:7c:d2:54:73:80:0c:33:63:e9:ca:24:4f:58:b9:8d:
         62:0a:4b:55:b7:28:f0:be:d4:8f:40:2b:2d:5f:c7:50:4a:d8:
         90:8b:c5:d8:4d:51:3c:22:19:6a:64:4e:6a:b1:82:ec:72:28:
         cd:77:77:39:00:dc:e0:1e:4b:89:48:5e:ef:2b:45:72:ca:3b:
         b0:d5:6d:07:d9:83:31:40:b4:c0:fe:e8:c4:81:09:88:15:d3:
         87:a4:c9:23:46:68:4d:d6:fb:1c:78:fa:7d:80:71:39:e8:b7:
         63:77:18:b1:26:0b:45:ba:c1:33:e3:be:f3:a7:19:bc:b3:40:
         b3:5d:cd:67:92:d7:b8:82:70:24:d3:75:c4:20:58:ca:97:6b:
         8b:ee:ef:d9:d6:10:8b:da:36:29:90:bd:d1:14:ed:bd:8c:bb:
         b0:8b:37:4c:aa:0f:7c:87:bf:52:57:08:7a:2f:0a:87:57:42:
         34:5b:5b:c7:c3:e3:ae:aa:04:40:06:bb:e3:cd:7f:5c:d9:9c:
         03:c9:6c:1b:81:7a:81:34:8f:c0:8a:43:d2:89:6e:aa:df:85:
         1e:6d:52:11:00:39:38:e1:01:07:4e:8c:9f:c0:d7:a2:53:a3:
         2a:f1:cd:48:11:3c:72:36:a7:7b:58:d4:51:1e:f4:64:9c:61:
         0f:e5:67:b3:d9:8b:15:60:e2:da:b0:10:fe:46:a7:35:d4:af:
         91:fc:00:23:4c:21:f3:4a:30:e0:2e:fe:a7:3f:83:06:9c:da:
         db:fa:1c:9f:ce:0b:80:9d:f4:cd:97:a1:af:08:8f:27:7b:0e:
         1d:4e:ab:88:75:a0:e9:65:38:72:46:e6:f3:e8:47:24:de:75:
         48:f0:4a:48:52:5a:f2:f7:bc:72:5f:36:0f:4e:00:12:3a:a4:
         66:3c:e3:4a:78:82:22:cb
-----BEGIN CERTIFICATE-----
MIIEzDCCArSgAwIBAgIQCRzw7wO+Q/pg5k5IOJLxUjANBgkqhkiG9w0BAQsFADAw
MQswCQYDVQQGEwJFUzEPMA0GA1UECgwGVGVsZWNvMRAwDgYDVQQDDAdSb290IENB
MB4XDTIzMDQwNTIwMjIwMFoXDTMzMDQwMjIwMjIwMFowNDELMAkGA1UEBhMCRVMx
DzANBgNVBAoMBlRlbGVjbzEUMBIGA1UEAwwLY2xpZW50dGxzMTMwgdwwDQYJKoZI
hvcNAQEBBQADgcoAMIHGAoG+AL1F4TThgjopS3OMoxuqZgHbtYSiLTdJFWwjrV9E
vWK+NQQJVIrwUAGxMAQ4/K7N57+TeIhwDkkGxTbe934NHr0S2KlOGZVPbUG+bYKk
U9PKlTSBQN0cER0J1+Ylh6e5Hjx9yo0a5MflgDSpQz95gskrbDdQof0AUlj/3tUs
XMcKWS1YV09zF1NZe5y4HIJBpFX8maQCt/7zIn2bOIHfCbBCIMcNTiGzv5FhP+aE
QvBW5r8bwz/5eIxIP9W/0QIDAQABo4IBIzCCAR8wcgYIKwYBBQUHAQEEZjBkMDEG
CCsGAQUFBzAChiVodHRwOi8vcm9vdC1jYS5UZWxlY28uY29tL3Jvb3QtY2EuY3J0
MC8GCCsGAQUFBzABhiNodHRwOi8vb2NzcC5yb290LWNhLlRlbGVjby5jb206OTA4
MDAfBgNVHSMEGDAWgBRPXMDg0wNOvaWN6+oj3SlBkukuqzAMBgNVHRMBAf8EAjAA
MDYGA1UdHwQvMC0wK6ApoCeGJWh0dHA6Ly9yb290LWNhLlRlbGVjby5jb20vcm9v
dC1jYS5jcmwwEwYDVR0lBAwwCgYIKwYBBQUHAwIwDgYDVR0PAQH/BAQDAgeAMB0G
A1UdDgQWBBSA+NZjSwObO1MK+RwOitXYTydyqzANBgkqhkiG9w0BAQsFAAOCAgEA
k9T4u2tH8uWdj+3UY6fDwUzOIw44n5bwxqMQVFAnlBAIqjdcXp8JNCR8jlb8aK32
nVCGWSKk77L0V30tNfHojOOCET5Tv6TZo2aFsDfnfbudty0fv4W7lXTpw+W5JMqg
WhebqavHyYySCXXSIMhKAKHGIDK0N8W6gUVEdCMtz4b+zkYM5LbqOVgT/OwmBSCP
9N5DPE+MxR8qQveL8qMrUsm49dGDfNJUc4AMM2PpyiRPWLmNYgpLVbco8L7Uj0Ar
LV/HUErYkIvF2E1RPCIZamROarGC7HIozXd3OQDc4B5LiUhe7ytFcso7sNVtB9mD
MUC0wP7oxIEJiBXTh6TJI0ZoTdb7HHj6fYBxOei3Y3cYsSYLRbrBM+O+86cZvLNA
s13NZ5LXuIJwJNN1xCBYypdri+7v2dYQi9o2KZC90RTtvYy7sIs3TKoPfIe/UlcI
ei8Kh1dCNFtbx8PjrqoEQAa7481/XNmcA8lsG4F6gTSPwIpD0oluqt+FHm1SEQA5
OOEBB06Mn8DXolOjKvHNSBE8cjane1jUUR70ZJxhD+Vns9mLFWDi2rAQ/kanNdSv
kfwAI0wh80ow4C7+pz+DBpza2/ocn84LgJ30zZehrwiPJ3sOHU6riHWg6WU4ckbm
8+hHJN51SPBKSFJa8ve8cl82D04AEjqkZjzjSniCIss=
-----END CERTIFICATE-----
