Certificate:
    Data:
        Version: 3 (0x2)
        Serial Number:
            09:1c:f0:ef:03:be:43:fa:60:e6:4e:48:38:92:f1:3c
        Signature Algorithm: sha256WithRSAEncryption
        Issuer: C=ES, O=Teleco, CN=Root CA
        Validity
            Not Before: Apr  4 09:29:34 2023 GMT
            Not After : Apr  1 09:29:34 2033 GMT
        Subject: C=ES, O=Teleco, CN=Server CA
        Subject Public Key Info:
            Public Key Algorithm: rsaEncryption
                RSA Public-Key: (4096 bit)
                Modulus:
                    00:b7:78:3d:fd:74:ab:25:56:b4:be:bc:b3:03:05:
                    37:06:89:e5:ce:d5:36:0a:2d:ac:d4:e6:ea:64:1a:
                    e4:fd:27:9d:c0:2f:1a:58:53:a9:18:f7:93:23:c7:
                    6c:42:0d:de:72:1d:20:93:0b:92:db:5d:d8:ba:ba:
                    01:9e:73:50:19:79:bf:45:90:a7:06:7d:7a:41:f0:
                    4c:9c:ea:d6:70:3a:44:05:bd:91:de:d7:2b:3c:e0:
                    c6:83:aa:16:d9:ac:36:a2:2f:88:42:7e:c9:d8:b2:
                    1e:38:04:54:16:2f:ce:db:c3:1b:07:d7:fb:f3:51:
                    d7:e5:f0:ed:9d:3e:ad:1f:96:f9:65:65:8f:1c:ed:
                    39:8a:c6:4d:40:78:ee:fa:9e:95:44:e7:c9:8d:44:
                    bf:0b:a0:7a:26:39:37:82:fe:a8:4f:7d:b9:48:9e:
                    30:4c:f8:7f:fd:a2:69:23:e7:7f:86:f1:3a:87:f0:
                    09:8a:e4:0a:10:13:25:bb:34:08:3e:e3:8f:fb:7b:
                    81:29:d1:c1:61:27:22:de:d7:4f:b6:70:fb:f8:b6:
                    7b:a0:9e:1b:43:a1:a4:9b:17:91:60:ab:2f:7f:70:
                    35:92:64:1a:2d:5b:3d:7a:e3:73:ba:d5:ed:80:60:
                    59:e7:83:87:8f:6d:58:ee:be:11:42:66:7f:21:a5:
                    c0:8f:2c:c2:2c:af:51:3a:82:15:0c:fe:8a:a7:9c:
                    97:43:2d:de:48:91:ad:6c:01:63:c8:9f:4a:0e:ce:
                    b9:0f:68:c5:12:dc:89:7d:72:13:99:ea:4e:a0:92:
                    18:28:3c:b6:86:8d:9e:4f:d2:44:c5:f3:3f:91:b0:
                    29:67:90:eb:d3:14:ef:15:ad:5f:1a:96:d2:c1:77:
                    7a:0f:06:ce:20:c1:8e:91:d1:b3:d9:ed:a3:42:50:
                    e0:6c:6e:27:03:f7:e1:76:55:17:48:de:8e:ad:6b:
                    ff:e2:ca:0a:78:0a:8b:75:b8:3d:22:53:6c:db:b9:
                    b3:ce:7e:17:c7:8e:b6:5c:00:fd:f6:57:11:07:dd:
                    30:78:15:dc:87:90:e8:10:bd:12:3f:51:ec:8b:54:
                    97:be:df:d7:95:51:2e:3e:d0:65:cb:2b:06:4d:16:
                    3d:4e:b5:6f:a9:54:9a:8e:09:7d:ed:d3:97:c0:ca:
                    ab:62:57:60:78:da:08:6d:dd:e4:42:30:14:81:38:
                    00:7c:cd:d6:cf:e9:65:1a:d4:5b:69:43:f5:8c:da:
                    22:e3:4d:fd:5c:cc:b0:c4:ad:f2:2a:e1:d5:aa:a9:
                    fc:e8:ab:5d:82:0a:f3:86:13:65:51:d1:30:41:2f:
                    f3:af:92:54:dd:53:51:62:e3:54:74:c6:b5:52:90:
                    de:7d:1f
                Exponent: 65537 (0x10001)
        X509v3 extensions:
            Authority Information Access: 
                OCSP - URI:http://localhost:9080/

            X509v3 Authority Key Identifier: 
                keyid:26:D4:03:3C:3C:B5:5B:E7:4B:E4:50:C0:AF:81:AD:5B:B4:88:C8:01

            X509v3 Basic Constraints: critical
                CA:TRUE, pathlen:0
            X509v3 CRL Distribution Points: 

                Full Name:
                  URI:http://root-ca.Teleco.com/root-ca.crl

            X509v3 Extended Key Usage: 
                TLS Web Client Authentication, TLS Web Server Authentication
            X509v3 Key Usage: critical
                Certificate Sign, CRL Sign
            X509v3 Name Constraints: 
                Permitted:
                  DNS:example.com
                  DNS:example.org
                Excluded:
                  IP:0.0.0.0/0.0.0.0
                  IP:0:0:0:0:0:0:0:0/0:0:0:0:0:0:0:0

            X509v3 Subject Key Identifier: 
                4E:AB:92:63:17:41:73:71:19:E1:6A:9C:61:C8:30:2C:ED:FE:40:67
    Signature Algorithm: sha256WithRSAEncryption
         72:69:36:25:e7:e5:02:7e:21:1e:f4:b8:29:2f:fb:ff:5d:c3:
         41:8f:34:4e:32:b0:0d:0d:a5:4d:94:6f:c6:73:ab:f7:61:30:
         80:fc:c8:0d:14:c2:23:45:8e:dd:0f:72:b5:fa:eb:83:99:cd:
         ce:45:db:30:d7:12:cd:71:94:6c:fd:91:bc:28:cc:a2:64:10:
         a4:65:12:15:84:a4:b5:08:5c:fb:76:4b:45:ed:5b:b0:51:38:
         4e:14:f1:7c:29:a8:14:13:68:05:08:76:ef:f1:ff:bb:1c:9e:
         eb:a7:df:f4:6c:24:c1:12:fb:2b:eb:f3:16:12:1a:b1:12:23:
         95:cd:44:4b:39:77:3f:56:2f:89:ca:f1:3f:ff:e6:3e:e2:a6:
         89:36:bb:7b:89:22:46:e0:b0:9e:ca:b3:6c:f0:2b:53:d4:e5:
         37:4b:15:74:32:7b:b4:48:72:9c:a8:c2:cb:52:c9:e4:95:4a:
         9a:37:a2:d4:27:37:57:75:6c:f8:96:57:76:24:ab:c8:9b:24:
         0c:e3:7f:e9:7f:b3:fe:f0:a0:23:03:02:d4:36:d3:c6:2f:d6:
         97:0d:69:bd:78:f2:a1:61:89:44:5f:9a:fb:87:5b:4b:51:57:
         53:71:6f:bf:5c:c1:1a:3e:8f:87:9b:e4:c5:97:25:3b:f7:f5:
         1a:6c:61:a8:25:8e:90:39:31:fa:3e:1c:60:77:4e:5e:d5:ae:
         c0:db:02:6e:1b:b8:23:b2:b6:df:b2:f1:5d:65:ce:b9:b1:8d:
         62:c1:0b:e3:89:f9:48:c8:fa:61:e9:0a:c9:c1:8d:f9:04:57:
         60:9e:1d:d7:22:e4:02:12:ac:8c:0e:a3:0b:74:99:66:e7:6a:
         63:47:df:13:6a:cd:c5:37:2d:b3:b5:79:9d:71:de:26:c4:83:
         00:27:67:bd:79:0f:c8:da:de:fd:3f:09:51:08:59:19:c9:8b:
         a9:09:16:22:cb:b8:1b:c5:1c:23:16:3b:1b:62:b7:02:8f:cb:
         60:2c:42:d3:e8:bf:09:0e:42:c2:c5:4f:3d:03:59:3b:21:07:
         b8:f4:f7:f1:65:00:f1:4a:65:60:48:41:88:18:bc:c8:48:d7:
         b4:07:c9:ec:a7:e9:e7:e9:ba:17:c3:d2:a9:be:f8:cc:55:13:
         5e:56:b3:a3:fa:c5:27:16:9d:c8:48:d2:b1:a1:c2:e6:81:d2:
         e3:db:43:b6:87:a0:4a:c6:cf:75:f5:fc:3d:25:da:d4:53:ad:
         45:12:a5:39:6f:71:81:cd:47:a7:5b:ed:d6:c0:be:bc:28:6b:
         92:e9:cc:fa:bc:45:d8:a3:25:a7:b4:9b:4b:05:cc:63:df:fc:
         aa:f0:d2:a3:39:2a:1a:1b
-----BEGIN CERTIFICATE-----
MIIGPjCCBCagAwIBAgIQCRzw7wO+Q/pg5k5IOJLxPDANBgkqhkiG9w0BAQsFADAw
MQswCQYDVQQGEwJFUzEPMA0GA1UECgwGVGVsZWNvMRAwDgYDVQQDDAdSb290IENB
MB4XDTIzMDQwNDA5MjkzNFoXDTMzMDQwMTA5MjkzNFowMjELMAkGA1UEBhMCRVMx
DzANBgNVBAoMBlRlbGVjbzESMBAGA1UEAwwJU2VydmVyIENBMIICIjANBgkqhkiG
9w0BAQEFAAOCAg8AMIICCgKCAgEAt3g9/XSrJVa0vryzAwU3BonlztU2Ci2s1Obq
ZBrk/SedwC8aWFOpGPeTI8dsQg3ech0gkwuS213YuroBnnNQGXm/RZCnBn16QfBM
nOrWcDpEBb2R3tcrPODGg6oW2aw2oi+IQn7J2LIeOARUFi/O28MbB9f781HX5fDt
nT6tH5b5ZWWPHO05isZNQHju+p6VROfJjUS/C6B6Jjk3gv6oT325SJ4wTPh//aJp
I+d/hvE6h/AJiuQKEBMluzQIPuOP+3uBKdHBYSci3tdPtnD7+LZ7oJ4bQ6GkmxeR
YKsvf3A1kmQaLVs9euNzutXtgGBZ54OHj21Y7r4RQmZ/IaXAjyzCLK9ROoIVDP6K
p5yXQy3eSJGtbAFjyJ9KDs65D2jFEtyJfXITmepOoJIYKDy2ho2eT9JExfM/kbAp
Z5Dr0xTvFa1fGpbSwXd6DwbOIMGOkdGz2e2jQlDgbG4nA/fhdlUXSN6OrWv/4soK
eAqLdbg9IlNs27mzzn4Xx462XAD99lcRB90weBXch5DoEL0SP1Hsi1SXvt/XlVEu
PtBlyysGTRY9TrVvqVSajgl97dOXwMqrYldgeNoIbd3kQjAUgTgAfM3Wz+llGtRb
aUP1jNoi4039XMywxK3yKuHVqqn86KtdggrzhhNlUdEwQS/zr5JU3VNRYuNUdMa1
UpDefR8CAwEAAaOCAVAwggFMMDIGCCsGAQUFBwEBBCYwJDAiBggrBgEFBQcwAYYW
aHR0cDovL2xvY2FsaG9zdDo5MDgwLzAfBgNVHSMEGDAWgBQm1AM8PLVb50vkUMCv
ga1btIjIATASBgNVHRMBAf8ECDAGAQH/AgEAMDYGA1UdHwQvMC0wK6ApoCeGJWh0
dHA6Ly9yb290LWNhLlRlbGVjby5jb20vcm9vdC1jYS5jcmwwHQYDVR0lBBYwFAYI
KwYBBQUHAwIGCCsGAQUFBwMBMA4GA1UdDwEB/wQEAwIBBjBbBgNVHR4EVDBSoB4w
DYILZXhhbXBsZS5jb20wDYILZXhhbXBsZS5vcmehMDAKhwgAAAAAAAAAADAihyAA
AAAAAAAAAAAAAAAAAAAAAAAAAAAAAAAAAAAAAAAAADAdBgNVHQ4EFgQUTquSYxdB
c3EZ4WqcYcgwLO3+QGcwDQYJKoZIhvcNAQELBQADggIBAHJpNiXn5QJ+IR70uCkv
+/9dw0GPNE4ysA0NpU2Ub8Zzq/dhMID8yA0UwiNFjt0PcrX664OZzc5F2zDXEs1x
lGz9kbwozKJkEKRlEhWEpLUIXPt2S0XtW7BROE4U8XwpqBQTaAUIdu/x/7scnuun
3/RsJMES+yvr8xYSGrESI5XNREs5dz9WL4nK8T//5j7ipok2u3uJIkbgsJ7Ks2zw
K1PU5TdLFXQye7RIcpyowstSyeSVSpo3otQnN1d1bPiWV3Ykq8ibJAzjf+l/s/7w
oCMDAtQ208Yv1pcNab148qFhiURfmvuHW0tRV1Nxb79cwRo+j4eb5MWXJTv39Rps
YagljpA5Mfo+HGB3Tl7VrsDbAm4buCOytt+y8V1lzrmxjWLBC+OJ+UjI+mHpCsnB
jfkEV2CeHdci5AISrIwOowt0mWbnamNH3xNqzcU3LbO1eZ1x3ibEgwAnZ715D8ja
3v0/CVEIWRnJi6kJFiLLuBvFHCMWOxtitwKPy2AsQtPovwkOQsLFTz0DWTshB7j0
9/FlAPFKZWBIQYgYvMhI17QHyeyn6efpuhfD0qm++MxVE15Ws6P6xScWnchI0rGh
wuaB0uPbQ7aHoErGz3X1/D0l2tRTrUUSpTlvcYHNR6db7dbAvrwoa5LpzPq8Rdij
Jae0m0sFzGPf/Krw0qM5Khob
-----END CERTIFICATE-----
