Certificate:
    Data:
        Version: 3 (0x2)
        Serial Number:
            09:1c:f0:ef:03:be:43:fa:60:e6:4e:48:38:92:f1:5d
    Signature Algorithm: sha256WithRSAEncryption
        Issuer: C=ES, O=Teleco, CN=Root CA
        Validity
            Not Before: Apr  7 18:34:34 2023 GMT
            Not After : Apr  4 18:34:34 2033 GMT
        Subject: C=ES, O=Teleco, CN=clienttls13
        Subject Public Key Info:
            Public Key Algorithm: rsaEncryption
                Public-Key: (1512 bit)
                Modulus:
                    00:bd:45:e1:34:e1:82:3a:29:4b:73:8c:a3:1b:aa:
                    66:01:db:b5:84:a2:2d:37:49:15:6c:23:ad:5f:44:
                    bd:62:be:35:04:09:54:8a:f0:50:01:b1:30:04:38:
                    fc:ae:cd:e7:bf:93:78:88:70:0e:49:06:c5:36:de:
                    f7:7e:0d:1e:bd:12:d8:a9:4e:19:95:4f:6d:41:be:
                    6d:82:a4:53:d3:ca:95:34:81:40:dd:1c:11:1d:09:
                    d7:e6:25:87:a7:b9:1e:3c:7d:ca:8d:1a:e4:c7:e5:
                    80:34:a9:43:3f:79:82:c9:2b:6c:37:50:a1:fd:00:
                    52:58:ff:de:d5:2c:5c:c7:0a:59:2d:58:57:4f:73:
                    17:53:59:7b:9c:b8:1c:82:41:a4:55:fc:99:a4:02:
                    b7:fe:f3:22:7d:9b:38:81:df:09:b0:42:20:c7:0d:
                    4e:21:b3:bf:91:61:3f:e6:84:42:f0:56:e6:bf:1b:
                    c3:3f:f9:78:8c:48:3f:d5:bf:d1
                Exponent: 65537 (0x10001)
        X509v3 extensions:
            Authority Information Access: 
                CA Issuers - URI:http://root-ca.Teleco.com/root-ca.crt
                OCSP - URI:http://ocsp.root-ca.Teleco.com:9080

            X509v3 Authority Key Identifier: 
                keyid:BB:76:61:0A:4C:9B:87:48:87:E7:1A:23:CF:9F:4E:0C:86:02:7A:C6

            X509v3 Basic Constraints: critical
                CA:FALSE
            X509v3 CRL Distribution Points: 

                Full Name:
                  URI:http://root-ca.Teleco.com/root-ca.crl

            X509v3 Extended Key Usage: 
                TLS Web Client Authentication
            X509v3 Key Usage: critical
                Digital Signature
            X509v3 Subject Key Identifier: 
                80:F8:D6:63:4B:03:9B:3B:53:0A:F9:1C:0E:8A:D5:D8:4F:27:72:AB
    Signature Algorithm: sha256WithRSAEncryption
         70:da:2a:be:76:dd:cd:46:e3:e4:9c:00:2d:8d:d0:33:95:dd:
         a3:f2:e3:14:25:e0:ea:c9:90:cc:23:85:83:42:35:ba:fc:76:
         73:d1:98:47:8d:0b:77:66:15:b4:77:ec:db:7d:70:16:07:18:
         e3:61:17:c6:77:d0:ad:a4:5e:2b:f7:33:6f:53:41:92:f3:5a:
         b0:08:82:f6:51:37:2a:53:c3:c8:e4:cc:6c:9b:b5:5d:e3:79:
         90:1f:ad:a3:da:19:a2:81:d5:1e:2c:5d:c6:22:92:20:e5:ee:
         63:3a:ce:7d:62:5e:0c:47:ff:29:cd:7f:67:3f:9e:8b:7b:7f:
         09:3f:a5:22:15:39:a2:da:41:50:4b:c7:ea:b6:39:3d:0a:94:
         df:27:a3:10:da:7b:61:e8:92:d5:36:25:27:0e:e4:02:72:20:
         00:dd:48:93:9f:3a:ac:de:13:a8:76:fc:2a:7f:1e:8d:1d:1c:
         4b:98:dc:59:c4:dc:1c:76:f3:b2:84:46:d7:b1:a6:94:97:3f:
         09:6e:86:6f:67:78:a4:e1:cb:22:bb:3c:d8:18:6c:c8:72:5d:
         e3:6f:e8:81:34:ad:b3:b2:b6:12:23:ac:15:97:1d:e1:56:fe:
         10:d2:28:64:77:b7:e9:78:ab:bc:35:f4:33:a7:1b:1d:5d:b2:
         bb:8f:83:91:f4:7f:ea:e1:98:59:73:bd:bb:8e:19:88:ae:c6:
         77:66:85:c8:18:d1:34:94:5d:a7:bb:81:4c:d9:7b:38:45:e0:
         5a:14:19:57:ea:9e:e9:86:c9:cf:4e:d2:a8:5d:d0:b7:ea:1e:
         79:e9:80:0d:4a:37:d3:49:59:15:f7:e6:68:30:dc:13:1e:4c:
         06:a4:67:8c:d8:51:25:41:0c:19:f4:22:e9:87:ca:f1:ec:4c:
         54:0c:63:a5:10:f9:6d:1f:97:6e:df:17:96:12:0c:ff:f3:2c:
         68:97:b3:c1:0d:1c:81:10:61:2c:ca:ee:80:9e:5c:f2:b9:b1:
         da:3e:4a:27:07:9c:57:52:8a:d1:11:5a:1f:05:54:80:15:54:
         e3:c6:37:bc:81:a2:42:8e:eb:a9:fe:ed:7b:f2:34:79:9b:9d:
         96:2c:4e:1b:4a:58:24:45:16:b7:0b:dd:8c:fe:4e:d1:9c:bb:
         14:e3:c7:38:6e:88:6d:46:92:ae:a4:96:fb:c0:13:4d:78:63:
         54:52:dc:c3:a9:29:6d:ca:a8:d0:86:1c:0f:88:15:01:be:1c:
         54:c4:d0:f0:a7:dd:da:69:ff:16:8a:9f:6b:87:9f:75:44:42:
         d9:0d:8f:74:8a:a5:77:b3:3d:d7:cb:a3:26:d3:c5:a4:b4:e6:
         58:b9:c8:58:07:40:36:d6
-----BEGIN CERTIFICATE-----
MIIEzDCCArSgAwIBAgIQCRzw7wO+Q/pg5k5IOJLxXTANBgkqhkiG9w0BAQsFADAw
MQswCQYDVQQGEwJFUzEPMA0GA1UECgwGVGVsZWNvMRAwDgYDVQQDDAdSb290IENB
MB4XDTIzMDQwNzE4MzQzNFoXDTMzMDQwNDE4MzQzNFowNDELMAkGA1UEBhMCRVMx
DzANBgNVBAoMBlRlbGVjbzEUMBIGA1UEAwwLY2xpZW50dGxzMTMwgdwwDQYJKoZI
hvcNAQEBBQADgcoAMIHGAoG+AL1F4TThgjopS3OMoxuqZgHbtYSiLTdJFWwjrV9E
vWK+NQQJVIrwUAGxMAQ4/K7N57+TeIhwDkkGxTbe934NHr0S2KlOGZVPbUG+bYKk
U9PKlTSBQN0cER0J1+Ylh6e5Hjx9yo0a5MflgDSpQz95gskrbDdQof0AUlj/3tUs
XMcKWS1YV09zF1NZe5y4HIJBpFX8maQCt/7zIn2bOIHfCbBCIMcNTiGzv5FhP+aE
QvBW5r8bwz/5eIxIP9W/0QIDAQABo4IBIzCCAR8wcgYIKwYBBQUHAQEEZjBkMDEG
CCsGAQUFBzAChiVodHRwOi8vcm9vdC1jYS5UZWxlY28uY29tL3Jvb3QtY2EuY3J0
MC8GCCsGAQUFBzABhiNodHRwOi8vb2NzcC5yb290LWNhLlRlbGVjby5jb206OTA4
MDAfBgNVHSMEGDAWgBS7dmEKTJuHSIfnGiPPn04MhgJ6xjAMBgNVHRMBAf8EAjAA
MDYGA1UdHwQvMC0wK6ApoCeGJWh0dHA6Ly9yb290LWNhLlRlbGVjby5jb20vcm9v
dC1jYS5jcmwwEwYDVR0lBAwwCgYIKwYBBQUHAwIwDgYDVR0PAQH/BAQDAgeAMB0G
A1UdDgQWBBSA+NZjSwObO1MK+RwOitXYTydyqzANBgkqhkiG9w0BAQsFAAOCAgEA
cNoqvnbdzUbj5JwALY3QM5Xdo/LjFCXg6smQzCOFg0I1uvx2c9GYR40Ld2YVtHfs
231wFgcY42EXxnfQraReK/czb1NBkvNasAiC9lE3KlPDyOTMbJu1XeN5kB+to9oZ
ooHVHixdxiKSIOXuYzrOfWJeDEf/Kc1/Zz+ei3t/CT+lIhU5otpBUEvH6rY5PQqU
3yejENp7YeiS1TYlJw7kAnIgAN1Ik586rN4TqHb8Kn8ejR0cS5jcWcTcHHbzsoRG
17GmlJc/CW6Gb2d4pOHLIrs82BhsyHJd42/ogTSts7K2EiOsFZcd4Vb+ENIoZHe3
6XirvDX0M6cbHV2yu4+DkfR/6uGYWXO9u44ZiK7Gd2aFyBjRNJRdp7uBTNl7OEXg
WhQZV+qe6YbJz07SqF3Qt+oeeemADUo300lZFffmaDDcEx5MBqRnjNhRJUEMGfQi
6YfK8exMVAxjpRD5bR+Xbt8XlhIM//MsaJezwQ0cgRBhLMrugJ5c8rmx2j5KJwec
V1KK0RFaHwVUgBVU48Y3vIGiQo7rqf7te/I0eZudlixOG0pYJEUWtwvdjP5O0Zy7
FOPHOG6IbUaSrqSW+8ATTXhjVFLcw6kpbcqo0IYcD4gVAb4cVMTQ8Kfd2mn/Foqf
a4efdURC2Q2PdIqld7M918ujJtPFpLTmWLnIWAdANtY=
-----END CERTIFICATE-----
