Certificate:
    Data:
        Version: 3 (0x2)
        Serial Number:
            09:1c:f0:ef:03:be:43:fa:60:e6:4e:48:38:92:f1:23
        Signature Algorithm: sha256WithRSAEncryption
        Issuer: C=ES, O=Teleco, CN=Root CA
        Validity
            Not Before: Mar 26 10:08:03 2023 GMT
            Not After : Mar 23 10:08:03 2033 GMT
        Subject: C=ES, O=Teleco, CN=Root CA
        Subject Public Key Info:
            Public Key Algorithm: rsaEncryption
                RSA Public-Key: (4096 bit)
                Modulus:
                    00:93:ee:c9:3d:83:ba:c7:52:33:1c:f9:91:28:74:
                    1d:4b:b2:94:23:7a:b5:3a:9a:1d:35:88:a5:5c:9f:
                    78:d2:44:dd:3e:5a:07:73:97:83:aa:ff:90:f1:e6:
                    f7:55:0e:df:ee:59:12:0b:38:c5:2f:27:ef:be:b3:
                    e5:71:87:2f:ae:91:ce:48:a9:18:f4:bb:25:12:ef:
                    fb:ba:91:92:83:20:da:38:2f:10:0e:a9:51:c8:c9:
                    b6:9f:bb:2d:c5:f0:8e:f4:88:e7:1a:4f:7f:6d:65:
                    c2:95:de:f3:0c:d3:d7:95:a9:fc:de:ea:fe:b8:fc:
                    6f:33:0c:c5:1a:5f:62:89:64:c8:29:06:53:5c:15:
                    ca:e0:ca:5e:97:fe:da:96:c9:d6:82:bb:66:0f:3a:
                    31:50:6a:e2:ff:fb:cc:d5:82:72:9a:b8:71:02:cb:
                    b3:8f:51:d4:4f:49:ec:85:c0:fc:f4:88:a8:26:7b:
                    16:10:b5:0d:cf:40:8a:a7:e8:39:d9:8d:58:63:87:
                    97:24:4d:9c:0e:79:15:87:99:e8:9b:3a:62:5e:76:
                    87:57:a0:60:c6:33:f7:f3:71:f1:bb:a4:01:38:d0:
                    65:53:a2:31:cb:03:c1:83:45:e8:05:38:b5:75:4a:
                    08:78:eb:50:40:48:a2:94:4e:c6:db:ab:91:c8:3e:
                    0e:c0:4f:90:8d:5a:0b:dc:7e:9e:e5:83:ca:83:f6:
                    00:3b:df:95:10:19:fd:2a:23:0f:5f:6a:fd:91:fb:
                    ca:f8:9f:00:0e:21:d9:d2:2e:f4:05:16:2c:c7:ef:
                    ca:a1:d0:cc:c8:13:0c:5c:1a:13:62:f6:e6:86:68:
                    0c:ad:24:b6:06:af:9f:9c:85:c7:fb:7a:99:23:e3:
                    11:c4:8d:02:4e:5c:94:af:a0:72:f3:b0:7c:48:d3:
                    21:7f:33:2c:2c:c4:75:66:56:de:6c:13:68:a6:47:
                    82:d6:65:d1:b2:87:cc:55:00:2d:8c:6d:34:7e:c3:
                    06:2d:fb:14:97:ae:c6:3a:ef:d1:ac:cc:53:58:38:
                    93:5f:05:34:2d:5a:e8:2a:ce:b5:1a:d4:0e:b4:0c:
                    99:2a:93:a7:a1:83:30:84:ef:2a:ad:9b:46:ab:68:
                    07:65:36:bf:dc:95:ac:03:28:87:35:ed:c0:98:89:
                    c1:96:87:0e:2b:67:92:a4:f5:ca:66:f2:1c:bf:14:
                    04:d4:11:04:11:c5:06:48:14:a3:36:51:16:a3:75:
                    b2:a3:bd:98:ed:1b:c8:fd:79:66:66:e7:4b:2b:c2:
                    9b:65:7c:6d:2c:23:00:1e:ca:32:43:ae:e4:a7:dd:
                    5b:d1:9b:f7:96:9f:a2:c7:21:e9:48:12:e1:af:89:
                    65:3b:7f
                Exponent: 65537 (0x10001)
        X509v3 extensions:
            X509v3 Basic Constraints: critical
                CA:TRUE
            X509v3 Key Usage: critical
                Certificate Sign, CRL Sign
            X509v3 Subject Key Identifier: 
                79:53:17:01:2C:1B:6D:A9:18:6B:39:35:DC:F7:B1:8B:13:4E:64:54
    Signature Algorithm: sha256WithRSAEncryption
         8e:32:4b:d4:d6:4b:82:36:ef:e3:85:38:6a:2e:8d:ad:c4:f5:
         0b:dd:ca:d0:52:32:04:64:7a:29:ec:40:9d:26:27:20:ef:6b:
         ad:44:24:c9:90:a6:bc:aa:7c:70:bd:b5:aa:bc:39:6a:1d:25:
         82:d4:94:87:d6:b9:75:82:c4:9b:a0:3d:af:d9:7f:e2:54:c0:
         80:e2:a8:2c:04:b3:e7:7e:76:f7:ef:31:9e:e6:48:fa:dd:e9:
         5c:67:76:d0:9d:e4:fd:7b:f0:50:87:b5:12:d6:a7:10:6a:b9:
         ac:b3:ab:1c:cb:0b:cb:09:2b:21:fe:19:a1:8b:8c:e2:d7:43:
         3e:5c:e2:0c:0a:97:c1:c3:fb:9e:58:ca:67:bd:5d:cb:00:1c:
         96:12:43:7b:82:75:52:5b:7d:17:f3:8a:c0:70:8d:4c:ab:a6:
         73:21:92:5b:38:24:a5:16:44:06:9d:af:36:f6:43:1f:89:c9:
         be:8a:e6:72:8e:6a:68:2e:a0:a6:53:ea:d7:a7:90:ea:83:00:
         18:2b:5f:7e:6c:ab:80:72:52:bb:24:35:3a:2a:32:3a:b5:c4:
         07:b3:3b:be:c2:89:16:95:b4:7a:83:ba:ff:6d:ba:36:4c:06:
         50:62:72:48:93:f4:66:58:9a:2e:0f:d0:1c:d0:38:f7:8e:c5:
         e7:82:8e:ba:c8:4a:84:5d:e2:47:3b:aa:26:73:ea:6b:b6:ed:
         e8:1d:3f:e7:7d:73:44:35:da:9b:e4:34:99:8a:5f:a0:fc:34:
         26:93:0f:8a:b8:e7:47:24:2d:b2:da:b9:05:b9:31:bb:b0:be:
         6c:34:43:8b:d5:b8:0e:0c:3f:e1:d0:bf:b9:97:c1:05:d9:40:
         b0:39:ac:5b:ed:52:e1:7d:f3:22:e0:27:e4:b3:ef:b8:2a:a1:
         00:0a:45:a0:c9:80:b7:85:c4:7b:14:10:db:61:81:80:12:58:
         1c:fe:7d:3e:57:92:c0:2c:d2:ed:b1:81:54:80:12:44:f8:9c:
         f5:ce:71:5f:3b:d8:43:0c:03:99:6a:60:69:fd:63:a0:01:9c:
         b6:ee:08:3f:04:48:54:ec:96:cb:e6:73:19:2b:3f:25:ef:41:
         03:12:da:4e:c5:84:79:27:54:fd:45:87:54:ce:ef:15:8d:fc:
         a1:f3:ac:f2:2d:bb:41:e5:99:9c:a2:cf:ae:6c:96:43:46:5e:
         ef:77:35:1b:b4:5f:55:b3:4c:8b:06:da:29:fe:01:8b:dc:6d:
         e1:e1:43:3e:cd:06:ec:b7:88:27:13:87:44:1b:b5:00:76:27:
         0b:a3:15:56:b1:e5:f2:d2:9c:8b:1d:9e:ed:8a:13:1e:73:c2:
         04:74:be:5a:27:8c:64:05
-----BEGIN CERTIFICATE-----
MIIFLDCCAxSgAwIBAgIQCRzw7wO+Q/pg5k5IOJLxIzANBgkqhkiG9w0BAQsFADAw
MQswCQYDVQQGEwJFUzEPMA0GA1UECgwGVGVsZWNvMRAwDgYDVQQDDAdSb290IENB
MB4XDTIzMDMyNjEwMDgwM1oXDTMzMDMyMzEwMDgwM1owMDELMAkGA1UEBhMCRVMx
DzANBgNVBAoMBlRlbGVjbzEQMA4GA1UEAwwHUm9vdCBDQTCCAiIwDQYJKoZIhvcN
AQEBBQADggIPADCCAgoCggIBAJPuyT2DusdSMxz5kSh0HUuylCN6tTqaHTWIpVyf
eNJE3T5aB3OXg6r/kPHm91UO3+5ZEgs4xS8n776z5XGHL66RzkipGPS7JRLv+7qR
koMg2jgvEA6pUcjJtp+7LcXwjvSI5xpPf21lwpXe8wzT15Wp/N7q/rj8bzMMxRpf
YolkyCkGU1wVyuDKXpf+2pbJ1oK7Zg86MVBq4v/7zNWCcpq4cQLLs49R1E9J7IXA
/PSIqCZ7FhC1Dc9AiqfoOdmNWGOHlyRNnA55FYeZ6Js6Yl52h1egYMYz9/Nx8buk
ATjQZVOiMcsDwYNF6AU4tXVKCHjrUEBIopROxturkcg+DsBPkI1aC9x+nuWDyoP2
ADvflRAZ/SojD19q/ZH7yvifAA4h2dIu9AUWLMfvyqHQzMgTDFwaE2L25oZoDK0k
tgavn5yFx/t6mSPjEcSNAk5clK+gcvOwfEjTIX8zLCzEdWZW3mwTaKZHgtZl0bKH
zFUALYxtNH7DBi37FJeuxjrv0azMU1g4k18FNC1a6CrOtRrUDrQMmSqTp6GDMITv
Kq2bRqtoB2U2v9yVrAMohzXtwJiJwZaHDitnkqT1ymbyHL8UBNQRBBHFBkgUozZR
FqN1sqO9mO0byP15ZmbnSyvCm2V8bSwjAB7KMkOu5KfdW9Gb95afosch6UgS4a+J
ZTt/AgMBAAGjQjBAMA8GA1UdEwEB/wQFMAMBAf8wDgYDVR0PAQH/BAQDAgEGMB0G
A1UdDgQWBBR5UxcBLBttqRhrOTXc97GLE05kVDANBgkqhkiG9w0BAQsFAAOCAgEA
jjJL1NZLgjbv44U4ai6NrcT1C93K0FIyBGR6KexAnSYnIO9rrUQkyZCmvKp8cL21
qrw5ah0lgtSUh9a5dYLEm6A9r9l/4lTAgOKoLASz53529+8xnuZI+t3pXGd20J3k
/XvwUIe1EtanEGq5rLOrHMsLywkrIf4ZoYuM4tdDPlziDAqXwcP7nljKZ71dywAc
lhJDe4J1Ult9F/OKwHCNTKumcyGSWzgkpRZEBp2vNvZDH4nJvormco5qaC6gplPq
16eQ6oMAGCtffmyrgHJSuyQ1OioyOrXEB7M7vsKJFpW0eoO6/226NkwGUGJySJP0
ZliaLg/QHNA4947F54KOushKhF3iRzuqJnPqa7bt6B0/531zRDXam+Q0mYpfoPw0
JpMPirjnRyQtstq5Bbkxu7C+bDRDi9W4Dgw/4dC/uZfBBdlAsDmsW+1S4X3zIuAn
5LPvuCqhAApFoMmAt4XEexQQ22GBgBJYHP59PleSwCzS7bGBVIASRPic9c5xXzvY
QwwDmWpgaf1joAGctu4IPwRIVOyWy+ZzGSs/Je9BAxLaTsWEeSdU/UWHVM7vFY38
ofOs8i27QeWZnKLPrmyWQ0Ze73c1G7RfVbNMiwbaKf4Bi9xt4eFDPs0G7LeIJxOH
RBu1AHYnC6MVVrHl8tKcix2e7YoTHnPCBHS+WieMZAU=
-----END CERTIFICATE-----
