Certificate:
    Data:
        Version: 3 (0x2)
        Serial Number:
            09:1c:f0:ef:03:be:43:fa:60:e6:4e:48:38:92:f1:34
        Signature Algorithm: sha256WithRSAEncryption
        Issuer: C=ES, O=Teleco, CN=Root CA
        Validity
            Not Before: Apr  3 21:54:40 2023 GMT
            Not After : Apr  2 21:54:40 2024 GMT
        Subject: C=ES, O=Teleco, CN=OCSP Responder
        Subject Public Key Info:
            Public Key Algorithm: rsaEncryption
                RSA Public-Key: (2048 bit)
                Modulus:
                    00:bf:f5:1a:48:3b:02:16:3f:f2:dd:75:ab:66:22:
                    92:32:f4:03:e8:80:23:42:b7:74:2f:d2:16:14:75:
                    8d:29:59:0a:5a:4f:27:bb:ed:fc:1f:be:e3:b4:3f:
                    ee:59:be:ec:c2:ba:04:39:30:e4:d1:12:72:d7:2a:
                    16:7e:3d:55:89:b4:5f:01:e0:ea:0a:14:39:e6:3f:
                    c7:8f:39:55:cf:43:4a:b8:90:70:ab:5a:e2:39:d2:
                    40:cc:6e:e8:0b:f8:a3:95:ab:d7:83:61:67:da:9d:
                    68:d8:b5:15:4f:6a:18:48:c9:66:00:c1:38:56:84:
                    1e:a4:44:ba:4e:06:20:10:11:90:64:a5:a0:64:ad:
                    90:c2:4d:f8:a2:d7:dd:99:31:ad:8c:dd:d6:b0:4c:
                    82:7a:8a:d9:e1:8b:e8:20:8c:6b:aa:4d:61:55:bc:
                    01:c9:ca:3f:2e:f3:c8:8d:24:23:94:10:8a:45:af:
                    55:d4:b9:80:a8:1d:87:47:1e:56:95:85:ff:bc:51:
                    ee:57:19:e8:77:c4:5f:0f:21:7c:ce:08:a0:2c:8b:
                    05:a2:07:c2:89:55:f0:71:89:5a:0a:2c:aa:a6:3d:
                    19:d0:02:cf:bd:cc:c6:05:aa:71:ce:ed:91:f6:66:
                    d7:6a:dd:ba:ae:d6:be:e1:2e:fd:f1:01:45:d1:95:
                    37:c9
                Exponent: 65537 (0x10001)
        X509v3 extensions:
            X509v3 Authority Key Identifier: 
                keyid:27:4E:9A:9C:1E:BC:88:77:BB:84:6A:38:8B:ED:DA:7E:1E:E5:46:42

            X509v3 Basic Constraints: critical
                CA:FALSE
            X509v3 Extended Key Usage: 
                OCSP Signing
            X509v3 Key Usage: critical
                Digital Signature
            X509v3 Subject Key Identifier: 
                53:8F:34:C0:98:BC:76:1E:87:BC:A7:6B:D1:9E:33:D9:3B:70:A1:5B
    Signature Algorithm: sha256WithRSAEncryption
         10:39:0a:c2:ff:2a:96:98:e4:56:29:25:00:c9:14:3c:a7:0a:
         07:ad:e7:61:8c:1c:b6:28:52:f4:5f:ed:b6:da:d0:7b:a6:59:
         8b:d5:94:72:0d:52:e6:3d:ab:b0:a6:38:f7:c7:e4:c0:14:c2:
         d8:3d:30:8f:43:a3:c8:45:41:58:2b:5e:0f:f5:d7:e3:05:4e:
         24:23:91:0a:61:6a:51:ec:6f:68:87:8d:01:ee:09:a6:cb:4b:
         c8:b6:08:0a:e6:f2:fc:a9:a8:d2:53:eb:40:30:f0:1b:11:3d:
         dd:62:f2:d4:2e:7c:88:c6:e8:d8:c5:ef:7e:81:5b:31:19:01:
         af:76:ae:5e:64:77:40:64:60:56:f1:a3:04:97:a8:d2:b1:17:
         51:2a:63:31:68:66:90:61:37:e0:a7:19:98:36:05:a8:f9:3e:
         56:ff:ed:b2:f8:b7:1e:f3:20:04:1c:d5:cf:5e:52:ec:04:63:
         c2:98:a6:8e:46:68:a4:df:54:62:c4:40:c6:61:0c:1a:4e:b0:
         f2:7f:ba:37:44:57:65:47:b3:48:45:d3:44:07:29:43:45:8e:
         ea:d5:23:7b:b0:09:b4:57:dc:5b:17:85:0f:89:5c:a2:ed:db:
         cb:1b:a1:c0:85:a4:c1:24:43:e9:1f:04:3a:aa:d4:56:1d:14:
         39:20:28:bc:e7:f2:e6:6e:da:e2:95:c3:8b:fe:31:61:3a:61:
         c9:e4:09:07:fa:da:e4:08:0b:20:d4:01:bf:17:6a:c4:55:22:
         27:b3:79:15:8a:1d:c0:9f:c0:18:3d:fd:02:27:1c:07:b9:bb:
         a4:a7:a4:71:71:40:d7:5d:8a:2a:04:1c:2d:2c:2f:09:7b:1e:
         93:b1:06:c6:85:61:48:ea:56:8e:39:e9:1f:ff:f1:f5:90:a4:
         36:49:16:9b:c6:01:53:ad:59:46:73:e6:95:87:b6:0a:0b:a6:
         a3:3f:aa:6a:0e:1c:71:24:50:b8:14:89:f4:79:d8:97:fe:8e:
         25:64:eb:95:8e:9e:62:09:c0:8b:21:31:6c:d4:71:f4:fd:56:
         a8:c4:d2:d7:7d:88:e3:50:ee:78:68:f6:1f:e1:8d:c4:cb:78:
         3d:e3:d2:38:d2:7d:0e:dd:4c:3d:70:86:5d:dd:c2:2a:80:45:
         69:38:83:05:fc:70:37:6e:43:bc:fb:ea:1a:06:71:78:44:90:
         24:7a:b8:5c:5a:c7:6c:6a:2e:af:2d:7b:71:82:74:d1:51:e1:
         98:43:20:02:3c:35:55:3e:96:79:a9:78:82:22:85:3d:a2:8c:
         e1:49:7c:ef:56:1d:ef:6e:53:6a:17:fd:cf:7d:52:44:0a:37:
         e9:c9:06:ed:4f:c4:dd:a2
-----BEGIN CERTIFICATE-----
MIIEZjCCAk6gAwIBAgIQCRzw7wO+Q/pg5k5IOJLxNDANBgkqhkiG9w0BAQsFADAw
MQswCQYDVQQGEwJFUzEPMA0GA1UECgwGVGVsZWNvMRAwDgYDVQQDDAdSb290IENB
MB4XDTIzMDQwMzIxNTQ0MFoXDTI0MDQwMjIxNTQ0MFowNzELMAkGA1UEBhMCRVMx
DzANBgNVBAoMBlRlbGVjbzEXMBUGA1UEAwwOT0NTUCBSZXNwb25kZXIwggEiMA0G
CSqGSIb3DQEBAQUAA4IBDwAwggEKAoIBAQC/9RpIOwIWP/LddatmIpIy9APogCNC
t3Qv0hYUdY0pWQpaTye77fwfvuO0P+5ZvuzCugQ5MOTREnLXKhZ+PVWJtF8B4OoK
FDnmP8ePOVXPQ0q4kHCrWuI50kDMbugL+KOVq9eDYWfanWjYtRVPahhIyWYAwThW
hB6kRLpOBiAQEZBkpaBkrZDCTfii192ZMa2M3dawTIJ6itnhi+ggjGuqTWFVvAHJ
yj8u88iNJCOUEIpFr1XUuYCoHYdHHlaVhf+8Ue5XGeh3xF8PIXzOCKAsiwWiB8KJ
VfBxiVoKLKqmPRnQAs+9zMYFqnHO7ZH2Ztdq3bqu1r7hLv3xAUXRlTfJAgMBAAGj
dTBzMB8GA1UdIwQYMBaAFCdOmpwevIh3u4RqOIvt2n4e5UZCMAwGA1UdEwEB/wQC
MAAwEwYDVR0lBAwwCgYIKwYBBQUHAwkwDgYDVR0PAQH/BAQDAgeAMB0GA1UdDgQW
BBRTjzTAmLx2Hoe8p2vRnjPZO3ChWzANBgkqhkiG9w0BAQsFAAOCAgEAEDkKwv8q
lpjkViklAMkUPKcKB63nYYwctihS9F/tttrQe6ZZi9WUcg1S5j2rsKY498fkwBTC
2D0wj0OjyEVBWCteD/XX4wVOJCORCmFqUexvaIeNAe4JpstLyLYICuby/Kmo0lPr
QDDwGxE93WLy1C58iMbo2MXvfoFbMRkBr3auXmR3QGRgVvGjBJeo0rEXUSpjMWhm
kGE34KcZmDYFqPk+Vv/tsvi3HvMgBBzVz15S7ARjwpimjkZopN9UYsRAxmEMGk6w
8n+6N0RXZUezSEXTRAcpQ0WO6tUje7AJtFfcWxeFD4lcou3byxuhwIWkwSRD6R8E
OqrUVh0UOSAovOfy5m7a4pXDi/4xYTphyeQJB/ra5AgLINQBvxdqxFUiJ7N5FYod
wJ/AGD39AiccB7m7pKekcXFA112KKgQcLSwvCXsek7EGxoVhSOpWjjnpH//x9ZCk
NkkWm8YBU61ZRnPmlYe2Cgumoz+qag4ccSRQuBSJ9HnYl/6OJWTrlY6eYgnAiyEx
bNRx9P1WqMTS132I41DueGj2H+GNxMt4PePSONJ9Dt1MPXCGXd3CKoBFaTiDBfxw
N25DvPvqGgZxeESQJHq4XFrHbGoury17cYJ00VHhmEMgAjw1VT6Weal4giKFPaKM
4Ul871Yd725Tahf9z31SRAo36ckG7U/E3aI=
-----END CERTIFICATE-----
