Certificate:
    Data:
        Version: 3 (0x2)
        Serial Number:
            09:1c:f0:ef:03:be:43:fa:60:e6:4e:48:38:92:f1:56
        Signature Algorithm: sha256WithRSAEncryption
        Issuer: C=ES, O=Teleco, CN=Root CA
        Validity
            Not Before: Apr  6 10:34:49 2023 GMT
            Not After : Apr  3 10:34:49 2033 GMT
        Subject: C=ES, O=Teleco, CN=servertls13
        Subject Public Key Info:
            Public Key Algorithm: rsaEncryption
                RSA Public-Key: (1512 bit)
                Modulus:
                    00:95:84:26:b1:58:3f:57:0a:1f:48:a4:5a:ce:01:
                    f8:af:19:81:08:27:f0:98:08:24:a6:4b:ed:2e:9a:
                    43:30:df:b6:ed:4a:a2:8d:93:a1:74:e9:0a:fc:d5:
                    c8:23:c2:3b:b7:e6:fe:3a:18:4a:50:98:e7:f6:31:
                    95:8d:a4:72:aa:e2:78:00:16:55:08:ee:82:ee:92:
                    d6:4e:20:b2:90:3c:aa:1d:6d:ae:01:d1:d4:43:e6:
                    6a:39:c7:45:9a:74:6f:ba:1a:71:a8:5d:a1:b4:c2:
                    20:87:01:79:8d:17:3c:9c:17:fc:31:c5:e1:c1:17:
                    96:b9:ab:57:48:47:4e:b6:4f:40:36:19:d0:30:f7:
                    2d:bd:37:19:08:90:de:c3:9b:dc:04:a3:e7:49:da:
                    e4:cb:c7:7c:0d:86:fe:ae:9c:07:fe:e3:79:13:0b:
                    b9:75:c8:62:96:33:cd:9b:25:45:04:f0:2f:b3:13:
                    5a:85:8a:e2:4b:43:df:b4:8d:c5
                Exponent: 65537 (0x10001)
        X509v3 extensions:
            Authority Information Access: 
                CA Issuers - URI:http://root-ca.Teleco.com/root-ca.crt
                OCSP - URI:http://ocsp.root-ca.Teleco.com:9080

            X509v3 Authority Key Identifier: 
                keyid:4F:5C:C0:E0:D3:03:4E:BD:A5:8D:EB:EA:23:DD:29:41:92:E9:2E:AB

            X509v3 Basic Constraints: critical
                CA:FALSE
            X509v3 CRL Distribution Points: 

                Full Name:
                  URI:http://root-ca.Teleco.com/root-ca.crl

            X509v3 Extended Key Usage: 
                TLS Web Client Authentication, TLS Web Server Authentication
            X509v3 Key Usage: critical
                Digital Signature, Key Encipherment
            X509v3 Subject Key Identifier: 
                03:45:05:D2:FA:2D:B3:C1:AB:B1:CC:81:5D:8E:A2:95:CB:E2:2E:8A
    Signature Algorithm: sha256WithRSAEncryption
         85:9e:93:cf:a9:25:3e:af:c5:a4:40:9b:a8:8d:23:b6:12:ec:
         4b:de:d8:38:c2:67:41:08:74:ff:dd:6e:d3:b7:f4:e7:cb:1f:
         b0:dc:1f:f6:7a:f0:a4:48:ed:3e:45:57:84:f7:52:65:52:dd:
         1e:4e:ec:47:eb:46:6a:41:ec:c0:28:c1:33:dc:ac:41:74:e2:
         c9:99:26:08:b2:86:77:ea:0e:93:ba:ea:44:dc:9f:79:67:61:
         0e:6c:7b:f9:d8:0d:a7:f0:91:75:12:c7:b5:27:51:90:42:ca:
         61:90:4d:5f:85:dd:8b:0e:39:7a:2c:3a:7e:a5:7a:8d:83:b3:
         5f:9f:6f:bf:67:7a:5f:5d:ec:e3:c6:f5:c6:7b:c4:d6:2a:21:
         b9:97:8f:b5:f0:b7:e0:de:3a:62:06:b6:6b:c9:08:9c:32:5d:
         42:68:a2:2d:70:dc:4f:c5:6e:5f:de:be:0f:ab:8c:56:48:98:
         45:75:33:44:36:cd:f1:38:0c:89:3a:66:34:f8:2d:ab:c5:c5:
         0e:b4:55:06:09:a8:e6:a1:ce:b6:68:3d:b6:7a:15:41:dd:e3:
         86:3a:f3:9f:9a:9c:91:5d:e7:73:22:8a:85:36:56:c5:f1:49:
         f0:97:19:2f:0e:4b:e8:d8:00:df:ea:3e:e5:91:db:ed:0e:0b:
         a8:32:9a:6e:68:25:64:82:ac:54:4a:f5:a2:f2:53:91:0b:b1:
         8c:ee:3b:4f:d5:34:c2:15:a0:98:6b:82:08:6c:33:8e:46:7f:
         9f:c5:bd:37:19:05:13:5a:3a:6f:2c:d7:1e:19:54:fc:9c:62:
         fe:9c:db:2e:35:e0:fd:69:83:bd:70:2d:9d:47:11:20:f7:f3:
         43:50:4c:7f:f8:10:17:52:af:93:cf:49:1b:5e:89:4d:31:19:
         52:54:a4:85:87:de:82:3d:39:e9:81:5c:18:83:31:b6:ce:db:
         4d:b6:0a:fd:ef:4d:06:83:98:c7:a6:9a:e3:84:c7:ee:46:43:
         9b:4e:33:43:66:4e:b1:64:26:57:38:5f:89:bd:01:03:64:bc:
         6e:5d:6a:03:26:07:f2:10:94:ba:9d:2b:ad:a8:40:b3:d9:8d:
         db:43:e9:56:e2:0a:46:b6:8e:c6:00:bb:91:9f:b7:f9:e1:ac:
         08:a2:7f:d0:5b:c4:f9:c6:0d:4e:eb:5f:68:7c:da:00:0c:9a:
         d1:12:19:57:9f:61:02:bc:20:9f:4a:f3:1f:57:7a:4a:20:ca:
         5e:ed:3e:5e:c2:e3:bb:9c:7b:ea:28:a4:74:20:59:f9:9a:df:
         43:c6:c1:39:58:2d:38:cd:97:80:bb:da:c7:a6:55:e9:3d:8e:
         a3:b0:35:7b:3b:25:0f:bd
-----BEGIN CERTIFICATE-----
MIIE1jCCAr6gAwIBAgIQCRzw7wO+Q/pg5k5IOJLxVjANBgkqhkiG9w0BAQsFADAw
MQswCQYDVQQGEwJFUzEPMA0GA1UECgwGVGVsZWNvMRAwDgYDVQQDDAdSb290IENB
MB4XDTIzMDQwNjEwMzQ0OVoXDTMzMDQwMzEwMzQ0OVowNDELMAkGA1UEBhMCRVMx
DzANBgNVBAoMBlRlbGVjbzEUMBIGA1UEAwwLc2VydmVydGxzMTMwgdwwDQYJKoZI
hvcNAQEBBQADgcoAMIHGAoG+AJWEJrFYP1cKH0ikWs4B+K8ZgQgn8JgIJKZL7S6a
QzDftu1Koo2ToXTpCvzVyCPCO7fm/joYSlCY5/YxlY2kcqrieAAWVQjugu6S1k4g
spA8qh1trgHR1EPmajnHRZp0b7oacahdobTCIIcBeY0XPJwX/DHF4cEXlrmrV0hH
TrZPQDYZ0DD3Lb03GQiQ3sOb3ASj50na5MvHfA2G/q6cB/7jeRMLuXXIYpYzzZsl
RQTwL7MTWoWK4ktD37SNxQIDAQABo4IBLTCCASkwcgYIKwYBBQUHAQEEZjBkMDEG
CCsGAQUFBzAChiVodHRwOi8vcm9vdC1jYS5UZWxlY28uY29tL3Jvb3QtY2EuY3J0
MC8GCCsGAQUFBzABhiNodHRwOi8vb2NzcC5yb290LWNhLlRlbGVjby5jb206OTA4
MDAfBgNVHSMEGDAWgBRPXMDg0wNOvaWN6+oj3SlBkukuqzAMBgNVHRMBAf8EAjAA
MDYGA1UdHwQvMC0wK6ApoCeGJWh0dHA6Ly9yb290LWNhLlRlbGVjby5jb20vcm9v
dC1jYS5jcmwwHQYDVR0lBBYwFAYIKwYBBQUHAwIGCCsGAQUFBwMBMA4GA1UdDwEB
/wQEAwIFoDAdBgNVHQ4EFgQUA0UF0vots8GrscyBXY6ilcviLoowDQYJKoZIhvcN
AQELBQADggIBAIWek8+pJT6vxaRAm6iNI7YS7Eve2DjCZ0EIdP/dbtO39OfLH7Dc
H/Z68KRI7T5FV4T3UmVS3R5O7EfrRmpB7MAowTPcrEF04smZJgiyhnfqDpO66kTc
n3lnYQ5se/nYDafwkXUSx7UnUZBCymGQTV+F3YsOOXosOn6leo2Ds1+fb79nel9d
7OPG9cZ7xNYqIbmXj7Xwt+DeOmIGtmvJCJwyXUJooi1w3E/Fbl/evg+rjFZImEV1
M0Q2zfE4DIk6ZjT4LavFxQ60VQYJqOahzrZoPbZ6FUHd44Y685+anJFd53MiioU2
VsXxSfCXGS8OS+jYAN/qPuWR2+0OC6gymm5oJWSCrFRK9aLyU5ELsYzuO0/VNMIV
oJhrgghsM45Gf5/FvTcZBRNaOm8s1x4ZVPycYv6c2y414P1pg71wLZ1HESD380NQ
TH/4EBdSr5PPSRteiU0xGVJUpIWH3oI9OemBXBiDMbbO2022Cv3vTQaDmMemmuOE
x+5GQ5tOM0NmTrFkJlc4X4m9AQNkvG5dagMmB/IQlLqdK62oQLPZjdtD6VbiCka2
jsYAu5Gft/nhrAiif9BbxPnGDU7rX2h82gAMmtESGVefYQK8IJ9K8x9Xekogyl7t
Pl7C47uce+oopHQgWfma30PGwTlYLTjNl4C72semVek9jqOwNXs7JQ+9
-----END CERTIFICATE-----
