Certificate:
    Data:
        Version: 3 (0x2)
        Serial Number:
            09:1c:f0:ef:03:be:43:fa:60:e6:4e:48:38:92:f1:2a
        Signature Algorithm: sha256WithRSAEncryption
        Issuer: C=ES, O=Teleco, CN=Root CA
        Validity
            Not Before: Mar 26 13:14:53 2023 GMT
            Not After : Mar 23 13:14:53 2033 GMT
        Subject: C=ES, O=Teleco, CN=Server CA
        Subject Public Key Info:
            Public Key Algorithm: rsaEncryption
                RSA Public-Key: (4096 bit)
                Modulus:
                    00:98:7b:21:3f:57:79:47:92:0b:df:35:b1:5e:60:
                    45:1a:f3:18:91:01:93:2c:eb:7f:df:24:9d:e9:92:
                    41:82:c0:25:14:09:9e:b2:a3:18:da:81:a6:64:3b:
                    53:f1:a9:56:9a:1f:60:e4:92:f5:5b:78:2f:78:eb:
                    92:ff:ac:ff:80:3b:a3:2b:a4:eb:43:6a:94:9b:9a:
                    11:73:0b:f3:8c:f9:bc:e0:20:d8:a0:9b:85:7f:55:
                    26:79:ba:01:ca:9e:57:27:74:9e:a4:ca:17:a4:a8:
                    84:73:63:67:e0:45:47:dd:7b:a4:1f:24:de:65:f8:
                    1c:8e:4a:6a:84:40:f7:e2:8d:09:83:f8:bc:45:25:
                    1c:63:55:73:75:f7:3f:5e:f5:78:1f:1a:1a:8b:c0:
                    6e:a4:5c:a4:1d:6e:95:e7:3e:15:fc:75:d6:b5:73:
                    e8:f3:e5:0f:70:93:e2:c9:ad:80:e5:80:6b:78:04:
                    16:2e:f1:fe:29:b1:8a:b4:ea:46:95:3f:9a:bb:67:
                    f3:2c:8e:42:56:d7:25:22:30:0f:e3:d5:e7:32:a6:
                    66:88:9b:50:0d:80:89:90:b2:ec:10:7b:a6:ea:d3:
                    bc:f6:ff:da:ea:43:99:e2:22:6a:e5:ad:7b:45:72:
                    b6:9c:a2:ce:5e:5d:95:01:bc:bc:f5:b2:db:a4:61:
                    dd:8d:23:0a:b1:77:46:e9:68:3d:2f:53:5b:5a:81:
                    f4:b4:01:e4:8d:c8:b1:0f:3d:ad:6b:81:2f:e0:00:
                    97:03:36:85:18:2a:ab:1a:83:fe:f5:a0:b0:54:31:
                    26:0d:7e:0b:e2:be:3b:2f:1f:60:dc:a8:75:c3:bb:
                    d9:ab:00:f8:b3:38:42:ac:f0:37:96:5c:e3:e2:46:
                    a1:31:e4:60:da:5c:1c:85:a6:e7:28:1f:32:4c:62:
                    f4:b3:f0:64:18:30:39:5b:bd:52:52:4c:fe:3e:28:
                    30:7d:f1:82:de:ec:52:29:86:cd:b2:a0:fb:19:7d:
                    76:df:86:00:3d:51:89:6c:fe:50:c8:72:be:7f:b9:
                    c2:29:d6:6b:28:bc:11:d6:7d:b6:89:49:6d:b8:b2:
                    32:60:92:c2:8c:3c:c0:79:1a:44:28:48:26:9c:df:
                    c4:53:1a:cb:ad:97:3e:85:69:14:81:2b:3f:3a:69:
                    bc:54:9d:d9:24:37:03:86:c2:53:f3:82:82:b6:7a:
                    4d:49:de:64:de:ae:89:82:8c:74:cb:09:78:84:0e:
                    61:5e:50:ae:dd:4e:79:87:82:10:e2:12:05:30:6d:
                    ff:8d:12:ee:33:7d:5a:0b:cd:42:2f:f4:da:b9:8f:
                    0a:fd:c0:d6:dd:f5:18:cf:39:e0:f5:30:96:48:9a:
                    67:1b:3f
                Exponent: 65537 (0x10001)
        X509v3 extensions:
            Authority Information Access: 
                OCSP - URI:http://localhost:9080/

            X509v3 Authority Key Identifier: 
                keyid:8A:F1:16:09:2A:B1:57:D6:A1:B9:1E:BA:5F:5F:E6:81:DA:98:B4:F9

            X509v3 Basic Constraints: critical
                CA:TRUE, pathlen:0
            X509v3 CRL Distribution Points: 

                Full Name:
                  URI:http://root-ca.Teleco.com/root-ca.crl

            X509v3 Extended Key Usage: 
                TLS Web Client Authentication, TLS Web Server Authentication
            X509v3 Key Usage: critical
                Certificate Sign, CRL Sign
            X509v3 Name Constraints: 
                Permitted:
                  DNS:example.com
                  DNS:example.org
                Excluded:
                  IP:0.0.0.0/0.0.0.0
                  IP:0:0:0:0:0:0:0:0/0:0:0:0:0:0:0:0

            X509v3 Subject Key Identifier: 
                A9:ED:5C:2B:66:74:39:AA:54:A5:30:AF:DF:DE:C1:FB:87:9A:CB:64
    Signature Algorithm: sha256WithRSAEncryption
         20:09:76:a8:02:81:6c:15:91:01:9d:fe:60:24:62:ad:ce:86:
         ce:4b:49:13:bd:16:39:c4:8d:64:80:e2:ea:53:98:4f:2c:ae:
         ec:03:62:75:5b:16:da:52:ae:e6:7c:81:8a:4c:95:2e:9b:13:
         6f:9f:0f:e7:4b:48:27:72:93:d8:d5:32:9b:6f:21:59:16:ba:
         68:01:6d:ba:67:bc:3c:13:2b:ad:42:7c:73:df:e0:c8:64:72:
         45:ce:f1:c3:5d:66:77:ea:10:e4:6a:e7:bc:b2:31:97:dd:84:
         eb:c6:8b:2f:d2:c6:2f:1f:77:5f:77:4f:7c:ce:e0:98:78:31:
         88:87:73:36:dc:36:30:33:6b:0c:73:9a:36:b0:d0:e4:9d:85:
         23:db:bb:68:54:f9:4d:9b:89:4b:59:f5:d0:44:60:b2:f1:e7:
         64:d1:d5:1f:84:ff:6f:16:08:4c:cf:74:3d:47:ca:57:fd:a7:
         71:86:dd:11:de:86:0f:4f:ea:80:fc:1e:cc:4a:0d:8d:c7:ec:
         48:d3:43:8e:bc:6f:6c:df:c4:fb:67:ae:ff:21:c3:84:46:b8:
         6b:92:3f:25:90:45:7a:4d:e6:28:5b:28:6e:7a:da:b4:0c:e2:
         44:7a:1d:66:ca:9d:02:26:b4:ce:e1:1b:70:65:9f:db:0e:33:
         6f:41:00:f5:cb:08:78:f6:c8:0a:56:a5:3a:8a:8e:1d:80:44:
         62:e5:26:0f:7e:36:de:9f:fe:de:b1:e6:7d:48:52:de:bd:0a:
         46:f0:36:3c:f0:4a:eb:8a:64:02:ed:ef:76:aa:a5:c9:c7:1a:
         15:3a:30:28:71:ce:16:89:e7:dc:82:8a:a3:e7:f2:dc:e6:1a:
         5d:bd:f1:1f:72:bd:75:57:3f:be:82:73:13:97:69:39:55:c1:
         68:50:0a:a4:2b:af:a5:d8:ca:b6:95:d8:83:48:ae:1a:74:5e:
         c2:91:51:4b:b2:00:5a:c3:70:50:02:f1:f7:28:41:4c:6b:af:
         4b:a9:cf:6f:a4:63:d7:41:99:4a:e8:70:78:78:a8:37:8f:62:
         f8:77:cd:dd:af:07:3b:cb:eb:39:a3:8b:fc:cd:70:44:30:52:
         b8:29:bf:59:ff:c2:ad:1a:90:61:9c:9b:91:af:8b:46:4e:46:
         90:b7:28:d7:ee:dd:ac:d8:29:31:d3:36:1c:76:45:4c:e6:dd:
         0e:3e:ff:46:0a:89:15:6a:05:07:53:1d:3c:b4:d7:31:e6:33:
         cb:c4:38:43:84:22:f7:f7:c0:12:62:87:84:9d:4d:5f:a4:dc:
         9a:f0:fb:27:c1:1a:a7:8a:15:69:7b:d6:a1:76:58:12:6f:32:
         13:9f:1a:65:e7:82:8e:cb
-----BEGIN CERTIFICATE-----
MIIGPjCCBCagAwIBAgIQCRzw7wO+Q/pg5k5IOJLxKjANBgkqhkiG9w0BAQsFADAw
MQswCQYDVQQGEwJFUzEPMA0GA1UECgwGVGVsZWNvMRAwDgYDVQQDDAdSb290IENB
MB4XDTIzMDMyNjEzMTQ1M1oXDTMzMDMyMzEzMTQ1M1owMjELMAkGA1UEBhMCRVMx
DzANBgNVBAoMBlRlbGVjbzESMBAGA1UEAwwJU2VydmVyIENBMIICIjANBgkqhkiG
9w0BAQEFAAOCAg8AMIICCgKCAgEAmHshP1d5R5IL3zWxXmBFGvMYkQGTLOt/3ySd
6ZJBgsAlFAmesqMY2oGmZDtT8alWmh9g5JL1W3gveOuS/6z/gDujK6TrQ2qUm5oR
cwvzjPm84CDYoJuFf1UmeboByp5XJ3SepMoXpKiEc2Nn4EVH3XukHyTeZfgcjkpq
hED34o0Jg/i8RSUcY1Vzdfc/XvV4Hxoai8BupFykHW6V5z4V/HXWtXPo8+UPcJPi
ya2A5YBreAQWLvH+KbGKtOpGlT+au2fzLI5CVtclIjAP49XnMqZmiJtQDYCJkLLs
EHum6tO89v/a6kOZ4iJq5a17RXK2nKLOXl2VAby89bLbpGHdjSMKsXdG6Wg9L1Nb
WoH0tAHkjcixDz2ta4Ev4ACXAzaFGCqrGoP+9aCwVDEmDX4L4r47Lx9g3Kh1w7vZ
qwD4szhCrPA3llzj4kahMeRg2lwchabnKB8yTGL0s/BkGDA5W71SUkz+PigwffGC
3uxSKYbNsqD7GX1234YAPVGJbP5QyHK+f7nCKdZrKLwR1n22iUltuLIyYJLCjDzA
eRpEKEgmnN/EUxrLrZc+hWkUgSs/Omm8VJ3ZJDcDhsJT84KCtnpNSd5k3q6Jgox0
ywl4hA5hXlCu3U55h4IQ4hIFMG3/jRLuM31aC81CL/TauY8K/cDW3fUYzzng9TCW
SJpnGz8CAwEAAaOCAVAwggFMMDIGCCsGAQUFBwEBBCYwJDAiBggrBgEFBQcwAYYW
aHR0cDovL2xvY2FsaG9zdDo5MDgwLzAfBgNVHSMEGDAWgBSK8RYJKrFX1qG5Hrpf
X+aB2pi0+TASBgNVHRMBAf8ECDAGAQH/AgEAMDYGA1UdHwQvMC0wK6ApoCeGJWh0
dHA6Ly9yb290LWNhLlRlbGVjby5jb20vcm9vdC1jYS5jcmwwHQYDVR0lBBYwFAYI
KwYBBQUHAwIGCCsGAQUFBwMBMA4GA1UdDwEB/wQEAwIBBjBbBgNVHR4EVDBSoB4w
DYILZXhhbXBsZS5jb20wDYILZXhhbXBsZS5vcmehMDAKhwgAAAAAAAAAADAihyAA
AAAAAAAAAAAAAAAAAAAAAAAAAAAAAAAAAAAAAAAAADAdBgNVHQ4EFgQUqe1cK2Z0
OapUpTCv397B+4eay2QwDQYJKoZIhvcNAQELBQADggIBACAJdqgCgWwVkQGd/mAk
Yq3Ohs5LSRO9FjnEjWSA4upTmE8sruwDYnVbFtpSruZ8gYpMlS6bE2+fD+dLSCdy
k9jVMptvIVkWumgBbbpnvDwTK61CfHPf4MhkckXO8cNdZnfqEORq57yyMZfdhOvG
iy/Sxi8fd193T3zO4Jh4MYiHczbcNjAzawxzmjaw0OSdhSPbu2hU+U2biUtZ9dBE
YLLx52TR1R+E/28WCEzPdD1Hylf9p3GG3RHehg9P6oD8HsxKDY3H7EjTQ468b2zf
xPtnrv8hw4RGuGuSPyWQRXpN5ihbKG562rQM4kR6HWbKnQImtM7hG3Bln9sOM29B
APXLCHj2yApWpTqKjh2ARGLlJg9+Nt6f/t6x5n1IUt69CkbwNjzwSuuKZALt73aq
pcnHGhU6MChxzhaJ59yCiqPn8tzmGl298R9yvXVXP76CcxOXaTlVwWhQCqQrr6XY
yraV2INIrhp0XsKRUUuyAFrDcFAC8fcoQUxrr0upz2+kY9dBmUrocHh4qDePYvh3
zd2vBzvL6zmji/zNcEQwUrgpv1n/wq0akGGcm5Gvi0ZORpC3KNfu3azYKTHTNhx2
RUzm3Q4+/0YKiRVqBQdTHTy01zHmM8vEOEOEIvf3wBJih4SdTV+k3Jrw+yfBGqeK
FWl71qF2WBJvMhOfGmXngo7L
-----END CERTIFICATE-----
