Certificate:
    Data:
        Version: 3 (0x2)
        Serial Number:
            09:1c:f0:ef:03:be:43:fa:60:e6:4e:48:38:92:f1:42
        Signature Algorithm: sha256WithRSAEncryption
        Issuer: C=ES, O=Teleco, CN=Root CA
        Validity
            Not Before: Apr  4 21:49:47 2023 GMT
            Not After : Apr  1 21:49:47 2033 GMT
        Subject: C=ES, O=Teleco, CN=Root CA
        Subject Public Key Info:
            Public Key Algorithm: rsaEncryption
                RSA Public-Key: (4096 bit)
                Modulus:
                    00:9e:5c:cd:74:48:7d:c9:b3:ce:3b:7f:89:99:d4:
                    09:c9:61:bc:c8:29:9b:b1:01:42:0d:0b:43:a1:49:
                    d5:f6:92:37:9f:cf:13:68:3f:ab:03:d6:4b:12:da:
                    7c:84:b4:bd:c2:6f:30:ef:8f:c2:6c:e8:b4:d1:ab:
                    63:3b:74:d3:dc:24:9c:82:90:28:67:51:5f:d4:89:
                    b0:3d:a5:fa:ec:83:51:53:37:0a:41:ac:70:47:54:
                    30:c5:02:f2:64:4e:00:52:c6:c1:1f:d4:ae:d1:19:
                    c3:61:9f:a0:bd:f4:48:34:f8:2a:40:43:ea:fd:5d:
                    92:82:98:2d:cb:ef:88:ff:02:d7:01:ab:07:24:79:
                    6f:29:68:7e:3b:51:9f:19:8c:fb:60:b9:09:7c:a1:
                    66:df:0c:b6:80:61:fc:58:07:97:04:ed:9b:fc:99:
                    31:d3:4f:9b:b0:2c:bb:e7:f9:d0:e6:9f:67:88:95:
                    aa:be:f1:d3:40:5d:5d:56:0b:c7:6e:48:52:cf:78:
                    3c:7b:a4:79:c3:3e:7e:74:8c:9a:e3:ae:23:63:58:
                    b8:0f:c4:44:07:d2:c8:ac:f4:53:da:e7:bf:1f:25:
                    da:c2:4c:04:a7:79:c8:f7:0e:77:d3:52:3c:ca:f1:
                    85:fa:60:db:7f:87:d7:5b:87:27:b6:2a:b6:3a:a8:
                    d4:fe:c0:d3:6f:8b:27:12:ae:fa:d1:d7:af:78:0a:
                    d7:9b:cc:a8:c0:c6:53:11:8b:91:41:04:e7:f0:f2:
                    0a:3f:e4:37:49:36:b9:d0:e0:e3:6b:d0:82:ae:4b:
                    d1:88:59:9b:96:b8:4b:58:17:67:4e:24:dc:1f:3f:
                    51:e6:11:2f:b4:eb:63:2e:ba:79:ec:f7:79:70:f3:
                    17:1b:c6:71:54:f7:45:a1:51:40:e0:27:d4:c0:8b:
                    19:cb:7b:3a:6f:95:9a:e4:f0:c9:85:d7:55:ca:d5:
                    cb:97:ab:7d:fa:3c:9e:f2:4a:5e:70:16:69:17:06:
                    29:54:73:fa:d4:a7:66:98:3f:43:43:02:75:49:42:
                    14:63:d6:fa:99:3c:37:66:4c:69:a4:bc:42:6f:c4:
                    4b:4f:9b:5a:1b:50:10:fc:4e:0a:31:43:17:72:ec:
                    d3:87:61:a1:11:76:5a:9d:dd:d1:31:b2:9b:e8:0f:
                    a6:18:2f:67:d1:e6:ba:fa:d7:a4:5f:e3:a1:00:2f:
                    ff:63:97:06:89:67:bf:71:a4:76:57:03:9f:56:b9:
                    3a:8d:13:91:07:f4:b6:21:29:c0:b1:c0:3e:38:ec:
                    3c:3d:b8:90:29:8f:b4:62:fb:41:9f:2c:47:92:30:
                    b0:97:16:cf:e8:f8:89:ca:8b:09:1f:2f:15:88:b0:
                    31:ba:db
                Exponent: 65537 (0x10001)
        X509v3 extensions:
            X509v3 Basic Constraints: critical
                CA:TRUE
            X509v3 Key Usage: critical
                Certificate Sign, CRL Sign
            X509v3 Subject Key Identifier: 
                4F:5C:C0:E0:D3:03:4E:BD:A5:8D:EB:EA:23:DD:29:41:92:E9:2E:AB
    Signature Algorithm: sha256WithRSAEncryption
         3d:2e:92:be:19:74:00:03:16:a4:f4:bb:8f:8e:83:96:94:8b:
         d8:b0:54:7c:54:3f:e9:0c:c1:d7:d0:55:ed:97:9f:e7:bb:ba:
         2f:cc:ec:9c:cc:c5:f9:17:e4:12:20:59:f4:85:0b:da:91:0c:
         55:62:ae:ed:39:e7:9c:d8:de:89:99:30:db:ab:b8:4e:96:37:
         8b:60:d6:4f:4c:f9:ad:27:28:86:59:53:8c:03:36:9a:f9:bc:
         f2:c9:d3:e2:a3:7e:45:92:87:78:b7:a6:68:bb:9d:54:2a:d9:
         98:13:c8:46:76:fb:11:59:09:c8:8a:f6:45:1e:47:da:3b:28:
         ec:f6:f4:29:b9:64:66:35:2b:83:19:ba:fb:14:ff:2a:e5:9e:
         b5:6d:2d:37:f9:57:95:88:c3:27:a5:c2:fe:eb:83:2b:bb:81:
         0e:2a:6e:2e:56:30:a4:06:c8:ee:9b:7d:4f:45:db:9c:24:28:
         9d:35:05:f0:aa:c0:37:b1:cf:1c:1a:b8:1f:a7:1a:eb:16:43:
         ab:49:e1:c5:be:3f:c9:1c:9e:b4:03:cb:ec:e9:f6:0e:7d:c4:
         b3:0d:64:ee:b1:44:f6:d5:53:4c:ab:63:89:12:c2:9d:8b:41:
         8a:31:64:0a:ff:34:7a:9c:11:d9:59:c5:f9:e2:0f:33:88:30:
         a9:5b:cd:30:70:0f:03:04:13:ec:30:24:76:9e:47:bd:07:a8:
         0d:df:71:99:88:9f:cb:8b:db:07:40:c1:bb:83:5d:b2:32:3a:
         41:48:e4:d9:ff:ab:d3:c2:de:f9:4f:c8:bb:45:48:61:ab:b6:
         29:db:2d:bc:ef:f1:e0:a0:81:c5:00:01:9a:92:55:ae:ac:fa:
         50:b7:50:54:a7:39:a1:81:0b:26:e6:6e:43:c6:b0:bd:9a:fb:
         11:04:96:9a:03:3f:2c:59:43:5c:71:56:77:79:f0:f1:c1:d5:
         da:20:ed:e5:79:ed:fc:94:d2:ce:d6:a9:8d:75:9c:1d:8d:b4:
         92:19:24:6c:d4:48:5c:e4:5f:c2:07:7d:c7:17:1a:14:41:97:
         64:b5:a0:97:65:75:79:d3:13:07:67:2e:a7:ea:eb:d8:14:60:
         af:47:08:43:d1:d0:1b:c0:ef:25:25:e0:dc:98:48:12:40:64:
         4f:86:c4:87:98:26:fd:78:28:90:3c:f5:f5:0c:47:21:52:54:
         b1:2c:dc:0b:23:29:65:a9:ee:fd:5d:48:58:03:9b:d4:d1:a8:
         a5:6a:e9:bd:80:87:65:7a:28:ac:4e:58:49:61:fd:bc:86:f1:
         7f:bb:58:b9:98:95:a1:92:ac:c3:a3:ff:09:20:8c:0b:bb:0e:
         18:9a:5d:6a:2f:0d:c6:ea
-----BEGIN CERTIFICATE-----
MIIFLDCCAxSgAwIBAgIQCRzw7wO+Q/pg5k5IOJLxQjANBgkqhkiG9w0BAQsFADAw
MQswCQYDVQQGEwJFUzEPMA0GA1UECgwGVGVsZWNvMRAwDgYDVQQDDAdSb290IENB
MB4XDTIzMDQwNDIxNDk0N1oXDTMzMDQwMTIxNDk0N1owMDELMAkGA1UEBhMCRVMx
DzANBgNVBAoMBlRlbGVjbzEQMA4GA1UEAwwHUm9vdCBDQTCCAiIwDQYJKoZIhvcN
AQEBBQADggIPADCCAgoCggIBAJ5czXRIfcmzzjt/iZnUCclhvMgpm7EBQg0LQ6FJ
1faSN5/PE2g/qwPWSxLafIS0vcJvMO+PwmzotNGrYzt009wknIKQKGdRX9SJsD2l
+uyDUVM3CkGscEdUMMUC8mROAFLGwR/UrtEZw2GfoL30SDT4KkBD6v1dkoKYLcvv
iP8C1wGrByR5bylofjtRnxmM+2C5CXyhZt8MtoBh/FgHlwTtm/yZMdNPm7Asu+f5
0OafZ4iVqr7x00BdXVYLx25IUs94PHukecM+fnSMmuOuI2NYuA/ERAfSyKz0U9rn
vx8l2sJMBKd5yPcOd9NSPMrxhfpg23+H11uHJ7Yqtjqo1P7A02+LJxKu+tHXr3gK
15vMqMDGUxGLkUEE5/DyCj/kN0k2udDg42vQgq5L0YhZm5a4S1gXZ04k3B8/UeYR
L7TrYy66eez3eXDzFxvGcVT3RaFRQOAn1MCLGct7Om+VmuTwyYXXVcrVy5erffo8
nvJKXnAWaRcGKVRz+tSnZpg/Q0MCdUlCFGPW+pk8N2ZMaaS8Qm/ES0+bWhtQEPxO
CjFDF3Ls04dhoRF2Wp3d0TGym+gPphgvZ9HmuvrXpF/joQAv/2OXBolnv3GkdlcD
n1a5Oo0TkQf0tiEpwLHAPjjsPD24kCmPtGL7QZ8sR5IwsJcWz+j4icqLCR8vFYiw
MbrbAgMBAAGjQjBAMA8GA1UdEwEB/wQFMAMBAf8wDgYDVR0PAQH/BAQDAgEGMB0G
A1UdDgQWBBRPXMDg0wNOvaWN6+oj3SlBkukuqzANBgkqhkiG9w0BAQsFAAOCAgEA
PS6Svhl0AAMWpPS7j46DlpSL2LBUfFQ/6QzB19BV7Zef57u6L8zsnMzF+RfkEiBZ
9IUL2pEMVWKu7TnnnNjeiZkw26u4TpY3i2DWT0z5rScohllTjAM2mvm88snT4qN+
RZKHeLemaLudVCrZmBPIRnb7EVkJyIr2RR5H2jso7Pb0KblkZjUrgxm6+xT/KuWe
tW0tN/lXlYjDJ6XC/uuDK7uBDipuLlYwpAbI7pt9T0XbnCQonTUF8KrAN7HPHBq4
H6ca6xZDq0nhxb4/yRyetAPL7On2Dn3Esw1k7rFE9tVTTKtjiRLCnYtBijFkCv80
epwR2VnF+eIPM4gwqVvNMHAPAwQT7DAkdp5HvQeoDd9xmYify4vbB0DBu4NdsjI6
QUjk2f+r08Le+U/Iu0VIYau2KdstvO/x4KCBxQABmpJVrqz6ULdQVKc5oYELJuZu
Q8awvZr7EQSWmgM/LFlDXHFWd3nw8cHV2iDt5Xnt/JTSztapjXWcHY20khkkbNRI
XORfwgd9xxcaFEGXZLWgl2V1edMTB2cup+rr2BRgr0cIQ9HQG8DvJSXg3JhIEkBk
T4bEh5gm/XgokDz19QxHIVJUsSzcCyMpZanu/V1IWAOb1NGopWrpvYCHZXoorE5Y
SWH9vIbxf7tYuZiVoZKsw6P/CSCMC7sOGJpdai8Nxuo=
-----END CERTIFICATE-----
