Certificate:
    Data:
        Version: 3 (0x2)
        Serial Number:
            09:1c:f0:ef:03:be:43:fa:60:e6:4e:48:38:92:f1:21
        Signature Algorithm: sha256WithRSAEncryption
        Issuer: C=ES, O=Teleco, CN=Root CA
        Validity
            Not Before: Mar 26 09:12:11 2023 GMT
            Not After : Mar 23 09:12:11 2033 GMT
        Subject: C=ES, O=Teleco, CN=Root CA
        Subject Public Key Info:
            Public Key Algorithm: rsaEncryption
                RSA Public-Key: (4096 bit)
                Modulus:
                    00:ca:ab:30:8a:63:e1:b9:bf:bb:fa:33:a8:54:ce:
                    9b:30:4a:6c:30:22:e0:55:cb:c7:3b:d1:55:5f:9e:
                    a7:df:04:92:79:ac:df:60:11:1c:d1:09:b8:fe:59:
                    ac:d3:3f:20:ad:3d:17:62:0e:d7:89:db:5b:65:bb:
                    0a:74:23:cc:f6:f5:41:14:6c:30:08:b0:9e:1a:2b:
                    5d:1e:31:0f:9a:ee:17:1f:2e:25:c2:da:5d:d1:83:
                    02:f4:9f:49:b5:16:9a:2b:1e:ec:e8:46:a3:12:6f:
                    ce:2d:08:44:c1:c6:33:2b:64:d5:d6:07:40:13:78:
                    c7:bb:9a:4a:8a:85:fb:c1:28:ca:92:ee:f7:a4:f6:
                    54:9e:29:2b:dd:9d:ac:35:c3:ba:29:98:05:6f:24:
                    8a:fe:c7:74:8d:8c:4c:71:9c:31:3c:eb:11:25:d7:
                    fd:1e:96:59:d0:e4:b1:a6:6e:00:e5:96:34:4b:7e:
                    1c:5c:c9:c5:b8:7f:7d:8a:8b:8e:de:ff:08:85:6b:
                    99:08:aa:f6:be:2d:25:22:89:67:30:e1:16:ef:71:
                    0b:a5:92:dc:03:34:12:b8:5b:f0:44:27:a1:58:fb:
                    03:82:99:b7:6f:71:14:a8:25:0e:01:2a:57:fa:47:
                    1f:67:13:d5:11:55:e8:4e:cf:1f:26:8a:66:82:7d:
                    6b:6c:cc:2f:6c:5e:a6:0a:8d:3c:e2:2d:fb:72:12:
                    5d:1e:e8:e1:ad:29:d8:f8:00:d7:50:17:31:57:59:
                    3f:15:d8:8f:16:7e:73:e3:17:15:34:4b:df:28:de:
                    e9:64:46:14:4f:29:80:db:8b:65:39:3c:48:6f:ac:
                    8d:a5:d0:c5:2a:df:8f:29:5e:fe:62:cb:be:18:01:
                    59:7b:76:a4:e1:12:05:f3:89:76:19:f3:3f:63:af:
                    46:5d:8c:06:48:bb:40:ec:51:de:aa:f3:06:ba:f3:
                    24:ea:1a:ee:a0:3d:f4:4b:b6:30:a8:00:f5:61:3a:
                    f3:91:16:8d:a8:2c:11:c8:30:20:0c:da:12:9c:fa:
                    70:18:80:30:6a:5c:38:60:09:71:b3:c4:7c:81:2f:
                    a3:4c:b4:34:ed:87:e0:ca:04:06:26:41:b2:fd:19:
                    13:33:b9:d5:b8:bc:3f:f7:9c:ea:c5:e1:14:f9:d9:
                    a6:00:48:a7:67:14:a2:72:ab:97:a7:8f:4c:c1:c0:
                    ee:f7:ad:ed:d1:20:42:12:49:29:08:38:2e:15:91:
                    68:29:23:72:90:d2:c5:a5:b9:b4:99:5d:5e:62:54:
                    db:ad:6c:de:f7:c4:ed:1a:11:8c:9d:a9:25:ca:ee:
                    23:4f:f5:61:d8:0f:8f:65:fc:e9:d9:e4:48:ee:98:
                    16:7b:65
                Exponent: 65537 (0x10001)
        X509v3 extensions:
            X509v3 Basic Constraints: critical
                CA:TRUE
            X509v3 Key Usage: critical
                Certificate Sign, CRL Sign
            X509v3 Subject Key Identifier: 
                D4:1E:DD:8A:A4:43:77:15:E0:76:EC:F6:04:59:72:C8:26:3F:58:25
    Signature Algorithm: sha256WithRSAEncryption
         56:5b:b6:11:87:0a:06:de:c6:0c:63:a3:9d:34:6d:9b:3a:ef:
         4f:d3:9b:fa:c6:9f:6e:fb:76:11:8d:fa:45:21:7e:ff:ac:1a:
         58:6d:77:37:e6:bd:a0:1f:8d:44:b8:78:7c:0d:25:d1:25:f0:
         58:c2:4e:ab:5a:10:b1:a6:fd:b0:45:bd:fd:92:2f:cc:a3:b2:
         2f:01:db:a1:05:de:83:37:6a:a5:43:df:1b:24:9f:fd:64:02:
         4e:c2:22:a1:f4:2f:f4:4a:60:f7:4b:23:b3:0d:2d:b8:0e:f7:
         62:6f:4e:f3:a2:42:ab:8e:8f:05:0c:d0:d2:62:d0:ae:10:24:
         78:d5:9d:25:b1:57:50:93:96:25:89:49:c2:e5:d6:81:3d:c5:
         04:60:dd:93:50:a7:6f:48:31:10:82:66:70:ea:6b:6f:09:e1:
         05:20:1f:ab:a4:f0:09:c7:f5:09:c5:08:74:19:c1:49:39:20:
         0c:c2:7e:ae:b3:69:ef:71:74:b6:23:98:5a:37:45:33:ca:f8:
         38:f9:1b:6c:aa:d0:7f:80:a4:b7:ff:f5:8a:4c:5a:2b:92:3b:
         0b:a7:02:1d:e4:a7:bf:15:3e:df:37:81:43:81:05:fd:a9:a6:
         8c:dc:a1:05:49:3b:30:c7:7f:b3:e4:ea:a7:1e:ad:45:9f:e9:
         84:1e:da:16:70:05:10:f6:c5:4c:68:1c:ee:ab:98:08:58:b8:
         fc:a7:72:f1:f2:9b:a6:7d:1e:6d:95:1c:4c:f0:0e:d7:f1:49:
         f1:13:e5:55:be:8e:74:b9:1f:c9:5c:bd:2f:05:f0:20:bf:96:
         93:f5:84:59:80:a4:b7:f5:42:aa:3f:4b:f2:a1:f3:e6:a4:b4:
         4b:ff:18:86:1c:b4:12:c5:3b:77:cc:9f:be:37:aa:c4:eb:19:
         45:70:16:5b:21:76:71:ad:ab:71:99:00:8f:09:02:a8:44:73:
         68:48:c9:6b:9d:e0:e9:40:d6:1b:97:d0:48:42:18:6b:68:e4:
         30:27:e3:43:bb:40:74:c6:93:78:90:74:93:17:38:8e:8b:2e:
         3d:a3:0f:5d:d1:cc:e9:5a:14:45:a1:7a:7a:b2:f0:c3:67:f4:
         c2:08:1a:92:b0:98:e4:3a:cd:14:ae:af:65:49:65:8d:11:c9:
         20:6e:91:e2:09:29:5a:4e:a5:c8:f3:9b:4d:1e:00:19:22:ed:
         0d:2b:25:ec:b6:04:be:b8:73:ef:bb:0f:e2:01:2e:f4:85:77:
         0f:27:f4:1b:e7:f4:4d:25:e8:ff:07:11:72:57:94:ef:70:6f:
         62:6c:77:5b:d3:63:bc:44:c5:ca:ba:aa:c0:1c:a3:26:bd:3f:
         96:b0:93:95:34:95:fb:1f
-----BEGIN CERTIFICATE-----
MIIFLDCCAxSgAwIBAgIQCRzw7wO+Q/pg5k5IOJLxITANBgkqhkiG9w0BAQsFADAw
MQswCQYDVQQGEwJFUzEPMA0GA1UECgwGVGVsZWNvMRAwDgYDVQQDDAdSb290IENB
MB4XDTIzMDMyNjA5MTIxMVoXDTMzMDMyMzA5MTIxMVowMDELMAkGA1UEBhMCRVMx
DzANBgNVBAoMBlRlbGVjbzEQMA4GA1UEAwwHUm9vdCBDQTCCAiIwDQYJKoZIhvcN
AQEBBQADggIPADCCAgoCggIBAMqrMIpj4bm/u/ozqFTOmzBKbDAi4FXLxzvRVV+e
p98Eknms32ARHNEJuP5ZrNM/IK09F2IO14nbW2W7CnQjzPb1QRRsMAiwnhorXR4x
D5ruFx8uJcLaXdGDAvSfSbUWmise7OhGoxJvzi0IRMHGMytk1dYHQBN4x7uaSoqF
+8EoypLu96T2VJ4pK92drDXDuimYBW8kiv7HdI2MTHGcMTzrESXX/R6WWdDksaZu
AOWWNEt+HFzJxbh/fYqLjt7/CIVrmQiq9r4tJSKJZzDhFu9xC6WS3AM0Erhb8EQn
oVj7A4KZt29xFKglDgEqV/pHH2cT1RFV6E7PHyaKZoJ9a2zML2xepgqNPOIt+3IS
XR7o4a0p2PgA11AXMVdZPxXYjxZ+c+MXFTRL3yje6WRGFE8pgNuLZTk8SG+sjaXQ
xSrfjyle/mLLvhgBWXt2pOESBfOJdhnzP2OvRl2MBki7QOxR3qrzBrrzJOoa7qA9
9Eu2MKgA9WE685EWjagsEcgwIAzaEpz6cBiAMGpcOGAJcbPEfIEvo0y0NO2H4MoE
BiZBsv0ZEzO51bi8P/ec6sXhFPnZpgBIp2cUonKrl6ePTMHA7vet7dEgQhJJKQg4
LhWRaCkjcpDSxaW5tJldXmJU261s3vfE7RoRjJ2pJcruI0/1YdgPj2X86dnkSO6Y
FntlAgMBAAGjQjBAMA8GA1UdEwEB/wQFMAMBAf8wDgYDVR0PAQH/BAQDAgEGMB0G
A1UdDgQWBBTUHt2KpEN3FeB27PYEWXLIJj9YJTANBgkqhkiG9w0BAQsFAAOCAgEA
Vlu2EYcKBt7GDGOjnTRtmzrvT9Ob+safbvt2EY36RSF+/6waWG13N+a9oB+NRLh4
fA0l0SXwWMJOq1oQsab9sEW9/ZIvzKOyLwHboQXegzdqpUPfGySf/WQCTsIiofQv
9Epg90sjsw0tuA73Ym9O86JCq46PBQzQ0mLQrhAkeNWdJbFXUJOWJYlJwuXWgT3F
BGDdk1Cnb0gxEIJmcOprbwnhBSAfq6TwCcf1CcUIdBnBSTkgDMJ+rrNp73F0tiOY
WjdFM8r4OPkbbKrQf4Ckt//1ikxaK5I7C6cCHeSnvxU+3zeBQ4EF/ammjNyhBUk7
MMd/s+Tqpx6tRZ/phB7aFnAFEPbFTGgc7quYCFi4/Kdy8fKbpn0ebZUcTPAO1/FJ
8RPlVb6OdLkfyVy9LwXwIL+Wk/WEWYCkt/VCqj9L8qHz5qS0S/8Yhhy0EsU7d8yf
vjeqxOsZRXAWWyF2ca2rcZkAjwkCqERzaEjJa53g6UDWG5fQSEIYa2jkMCfjQ7tA
dMaTeJB0kxc4josuPaMPXdHM6VoURaF6erLww2f0wggakrCY5DrNFK6vZUlljRHJ
IG6R4gkpWk6lyPObTR4AGSLtDSsl7LYEvrhz77sP4gEu9IV3Dyf0G+f0TSXo/wcR
cleU73BvYmx3W9NjvETFyrqqwByjJr0/lrCTlTSV+x8=
-----END CERTIFICATE-----
