Certificate:
    Data:
        Version: 3 (0x2)
        Serial Number:
            09:1c:f0:ef:03:be:43:fa:60:e6:4e:48:38:92:f1:4d
        Signature Algorithm: sha256WithRSAEncryption
        Issuer: C=ES, O=Teleco, CN=Root CA
        Validity
            Not Before: Apr  5 16:19:56 2023 GMT
            Not After : Apr  2 16:19:56 2033 GMT
        Subject: C=ES, O=Teleco, CN=clienttls13
        Subject Public Key Info:
            Public Key Algorithm: rsaEncryption
                RSA Public-Key: (2048 bit)
                Modulus:
                    00:cb:55:cf:da:72:56:c7:c2:8f:fe:85:68:b7:e9:
                    26:ec:33:ed:b2:da:bb:5e:64:63:3a:10:f3:59:63:
                    ed:c6:62:7e:9b:35:c7:c6:6b:0c:d8:f4:ea:81:a9:
                    20:c0:2e:65:1f:f0:a7:67:94:8a:1d:61:b0:fa:e5:
                    71:ad:02:39:d9:ee:56:a4:fd:6d:a6:4a:f3:88:ce:
                    84:2b:47:2f:08:b1:8a:ac:3f:53:22:55:e1:6f:21:
                    c2:3c:01:1a:bc:93:79:72:d9:d5:eb:34:ee:50:5e:
                    49:14:86:a4:c8:27:62:69:18:6f:3c:4e:89:df:c9:
                    73:3d:3c:52:c0:76:47:43:ab:92:78:61:c0:d2:4a:
                    61:78:84:e6:50:72:43:f9:f4:7e:cd:67:50:5a:d3:
                    4d:77:23:61:80:4b:c2:d4:71:27:d0:fe:85:3b:b8:
                    ee:a7:e5:36:86:1b:a3:d1:53:41:cc:76:03:b7:6a:
                    d0:93:7d:f3:db:02:d3:ea:fe:b8:c1:98:86:63:53:
                    b2:31:af:eb:c8:f5:06:78:e7:28:ab:d3:c2:5e:59:
                    4a:14:c8:47:28:3d:19:6f:8a:84:1b:d2:a7:85:7f:
                    7d:85:c8:7e:f7:b8:f0:f9:1a:ba:5c:98:83:57:eb:
                    33:a2:db:5a:d8:0a:67:c8:08:93:4a:dd:10:41:22:
                    5a:bd
                Exponent: 65537 (0x10001)
        X509v3 extensions:
            Authority Information Access: 
                CA Issuers - URI:http://root-ca.Teleco.com/root-ca.crt
                OCSP - URI:http://ocsp.root-ca.Teleco.com:9080

            X509v3 Authority Key Identifier: 
                keyid:4F:5C:C0:E0:D3:03:4E:BD:A5:8D:EB:EA:23:DD:29:41:92:E9:2E:AB

            X509v3 Basic Constraints: critical
                CA:FALSE
            X509v3 CRL Distribution Points: 

                Full Name:
                  URI:http://root-ca.Teleco.com/root-ca.crl

            X509v3 Extended Key Usage: 
                TLS Web Client Authentication
            X509v3 Key Usage: critical
                Digital Signature
            X509v3 Subject Key Identifier: 
                57:35:3C:AC:E6:BE:D3:7F:30:58:35:28:33:2F:3C:B6:C4:65:09:DA
    Signature Algorithm: sha256WithRSAEncryption
         97:70:3b:eb:97:19:ee:3d:03:86:dc:1e:57:1c:cd:af:cd:f0:
         da:59:14:a6:2f:a6:d1:ed:15:fe:87:81:f8:45:ec:2b:7b:02:
         9e:d9:63:14:70:c7:46:30:da:7b:8d:c4:6c:4b:55:09:74:97:
         a3:c0:43:83:58:52:f1:94:d2:57:31:8b:24:fc:f5:3f:53:63:
         ac:36:02:b6:6f:0d:f5:44:bd:d6:c8:a9:a1:e2:23:43:06:80:
         67:8a:b2:a6:c4:6c:fa:8a:7b:d3:40:c1:94:3d:a3:d5:fb:36:
         5c:4e:d7:8c:61:9f:e3:e9:fa:10:5e:6a:06:bd:40:d9:27:7c:
         3f:fd:6a:7d:85:81:93:42:95:cf:0e:e4:3a:15:13:09:4b:b0:
         9e:25:e2:0c:e9:69:dc:f0:f5:b3:0f:be:06:d8:49:a3:71:da:
         4c:06:65:13:f8:c8:f6:0f:f0:eb:f7:43:f2:86:7c:ee:84:c3:
         d9:b5:f3:73:c6:f2:7d:3e:2f:1f:bc:97:d7:67:91:7b:ee:6e:
         ee:9f:74:4c:fe:84:8a:a9:3e:0d:59:b8:ec:dd:bd:a6:fe:cc:
         65:37:d4:13:c4:7a:57:88:63:50:31:eb:51:9e:0a:a7:82:3a:
         7d:26:ea:a6:6c:36:23:22:de:3b:4b:9b:bd:e9:4a:4f:20:b0:
         15:21:cb:2b:37:a4:84:5f:35:5e:0b:bb:0b:08:a8:94:b0:07:
         2e:eb:24:a3:89:b7:10:a8:9b:02:e6:58:36:3d:7f:9f:fc:70:
         80:7d:2d:cc:59:d2:60:6c:c9:0d:db:c1:eb:76:11:8e:43:e7:
         e0:a2:27:90:be:97:c2:38:68:45:27:44:e7:2f:93:e2:2f:ab:
         97:89:93:66:1e:88:c5:10:fb:95:eb:de:3b:cf:65:3b:60:b8:
         ca:5f:35:99:49:51:01:41:73:54:9e:91:f0:83:b7:dd:68:68:
         0a:c4:aa:b6:14:e3:ce:07:f3:64:3e:7f:11:52:c6:75:4f:4c:
         6f:d2:05:05:f4:5e:3a:aa:47:1e:0c:bb:e9:17:dc:14:82:c5:
         25:3c:7b:b4:72:8a:91:e0:a6:d0:ba:e0:6e:2f:32:9c:32:3c:
         bd:00:9e:63:50:72:04:7a:1f:b7:79:1b:1f:83:3d:ff:6d:65:
         ce:2d:1e:33:d7:58:92:22:3b:51:1c:12:d4:aa:98:d9:6b:e3:
         e9:2e:eb:0f:31:c3:fa:3c:89:73:43:46:b0:e2:5c:87:8d:20:
         28:52:e1:0e:e5:4e:94:e0:2c:ce:b8:1d:03:c4:69:9f:ef:2f:
         e6:98:7e:00:ea:de:45:97:32:a3:15:87:3c:3e:ab:a5:b6:38:
         22:7a:93:61:98:fc:4c:95
-----BEGIN CERTIFICATE-----
MIIFEzCCAvugAwIBAgIQCRzw7wO+Q/pg5k5IOJLxTTANBgkqhkiG9w0BAQsFADAw
MQswCQYDVQQGEwJFUzEPMA0GA1UECgwGVGVsZWNvMRAwDgYDVQQDDAdSb290IENB
MB4XDTIzMDQwNTE2MTk1NloXDTMzMDQwMjE2MTk1NlowNDELMAkGA1UEBhMCRVMx
DzANBgNVBAoMBlRlbGVjbzEUMBIGA1UEAwwLY2xpZW50dGxzMTMwggEiMA0GCSqG
SIb3DQEBAQUAA4IBDwAwggEKAoIBAQDLVc/aclbHwo/+hWi36SbsM+2y2rteZGM6
EPNZY+3GYn6bNcfGawzY9OqBqSDALmUf8KdnlIodYbD65XGtAjnZ7lak/W2mSvOI
zoQrRy8IsYqsP1MiVeFvIcI8ARq8k3ly2dXrNO5QXkkUhqTIJ2JpGG88TonfyXM9
PFLAdkdDq5J4YcDSSmF4hOZQckP59H7NZ1Ba0013I2GAS8LUcSfQ/oU7uO6n5TaG
G6PRU0HMdgO3atCTffPbAtPq/rjBmIZjU7Ixr+vI9QZ45yir08JeWUoUyEcoPRlv
ioQb0qeFf32FyH73uPD5GrpcmINX6zOi21rYCmfICJNK3RBBIlq9AgMBAAGjggEj
MIIBHzByBggrBgEFBQcBAQRmMGQwMQYIKwYBBQUHMAKGJWh0dHA6Ly9yb290LWNh
LlRlbGVjby5jb20vcm9vdC1jYS5jcnQwLwYIKwYBBQUHMAGGI2h0dHA6Ly9vY3Nw
LnJvb3QtY2EuVGVsZWNvLmNvbTo5MDgwMB8GA1UdIwQYMBaAFE9cwODTA069pY3r
6iPdKUGS6S6rMAwGA1UdEwEB/wQCMAAwNgYDVR0fBC8wLTAroCmgJ4YlaHR0cDov
L3Jvb3QtY2EuVGVsZWNvLmNvbS9yb290LWNhLmNybDATBgNVHSUEDDAKBggrBgEF
BQcDAjAOBgNVHQ8BAf8EBAMCB4AwHQYDVR0OBBYEFFc1PKzmvtN/MFg1KDMvPLbE
ZQnaMA0GCSqGSIb3DQEBCwUAA4ICAQCXcDvrlxnuPQOG3B5XHM2vzfDaWRSmL6bR
7RX+h4H4RewrewKe2WMUcMdGMNp7jcRsS1UJdJejwEODWFLxlNJXMYsk/PU/U2Os
NgK2bw31RL3WyKmh4iNDBoBnirKmxGz6invTQMGUPaPV+zZcTteMYZ/j6foQXmoG
vUDZJ3w//Wp9hYGTQpXPDuQ6FRMJS7CeJeIM6Wnc8PWzD74G2EmjcdpMBmUT+Mj2
D/Dr90PyhnzuhMPZtfNzxvJ9Pi8fvJfXZ5F77m7un3RM/oSKqT4NWbjs3b2m/sxl
N9QTxHpXiGNQMetRngqngjp9JuqmbDYjIt47S5u96UpPILAVIcsrN6SEXzVeC7sL
CKiUsAcu6ySjibcQqJsC5lg2PX+f/HCAfS3MWdJgbMkN28HrdhGOQ+fgoieQvpfC
OGhFJ0TnL5PiL6uXiZNmHojFEPuV6947z2U7YLjKXzWZSVEBQXNUnpHwg7fdaGgK
xKq2FOPOB/NkPn8RUsZ1T0xv0gUF9F46qkceDLvpF9wUgsUlPHu0coqR4KbQuuBu
LzKcMjy9AJ5jUHIEeh+3eRsfgz3/bWXOLR4z11iSIjtRHBLUqpjZa+PpLusPMcP6
PIlzQ0aw4lyHjSAoUuEO5U6U4CzOuB0DxGmf7y/mmH4A6t5FlzKjFYc8Pqultjgi
epNhmPxMlQ==
-----END CERTIFICATE-----
