Certificate:
    Data:
        Version: 3 (0x2)
        Serial Number:
            09:1c:f0:ef:03:be:43:fa:60:e6:4e:48:38:92:f1:5b
    Signature Algorithm: sha256WithRSAEncryption
        Issuer: C=ES, O=Teleco, CN=Root CA
        Validity
            Not Before: Apr  7 18:33:58 2023 GMT
            Not After : Apr  4 18:33:58 2033 GMT
        Subject: C=ES, O=Teleco, CN=servertls13
        Subject Public Key Info:
            Public Key Algorithm: rsaEncryption
                Public-Key: (2048 bit)
                Modulus:
                    00:8b:1f:7b:ff:ad:26:22:af:fb:b9:0a:5f:d2:bd:
                    bb:db:70:71:e9:ad:60:1c:d6:95:f4:60:5b:1d:d9:
                    b4:75:3f:1d:cf:a6:d4:4d:3c:b2:58:d7:df:03:1f:
                    60:6c:b4:c2:d8:3f:84:6d:a9:f7:56:bd:8f:8a:52:
                    3a:51:f7:a5:c2:42:80:80:7e:fa:39:fb:43:a6:a1:
                    c6:c8:b4:2e:ed:cd:b7:17:f3:f4:c0:ca:e9:7f:e3:
                    25:e9:16:cf:c4:2b:69:6c:b8:90:ea:cd:f9:cd:f7:
                    94:ad:15:13:93:f0:36:76:d9:b0:43:aa:66:f6:bf:
                    92:86:8a:cd:76:93:9a:e5:5c:fa:f4:b0:5f:13:d0:
                    03:4f:6b:c0:13:d0:08:a6:fd:7e:cc:4f:4b:0d:9f:
                    93:a7:5a:cb:19:96:57:c6:b6:08:ce:91:82:b1:6b:
                    d7:ec:84:8c:59:91:a3:8c:83:9b:c9:7c:b3:e6:15:
                    2d:e0:90:90:22:70:0c:99:da:c9:c9:90:4a:3a:eb:
                    86:3d:7f:c0:b9:8c:89:ef:f9:a0:e9:02:a9:fc:66:
                    0b:23:53:9c:90:46:45:ec:5a:4d:c9:9f:10:01:31:
                    33:79:18:51:d1:0d:bb:55:42:e6:4f:64:f1:4a:0e:
                    96:4c:1b:1c:5e:58:fe:fb:75:d2:30:02:29:60:80:
                    8b:3b
                Exponent: 65537 (0x10001)
        X509v3 extensions:
            Authority Information Access: 
                CA Issuers - URI:http://root-ca.Teleco.com/root-ca.crt
                OCSP - URI:http://ocsp.root-ca.Teleco.com:9080

            X509v3 Authority Key Identifier: 
                keyid:BB:76:61:0A:4C:9B:87:48:87:E7:1A:23:CF:9F:4E:0C:86:02:7A:C6

            X509v3 Basic Constraints: critical
                CA:FALSE
            X509v3 CRL Distribution Points: 

                Full Name:
                  URI:http://root-ca.Teleco.com/root-ca.crl

            X509v3 Extended Key Usage: 
                TLS Web Client Authentication, TLS Web Server Authentication
            X509v3 Key Usage: critical
                Digital Signature, Key Encipherment
            X509v3 Subject Key Identifier: 
                B8:14:D7:E0:B3:AE:3D:5D:90:92:10:57:1A:5C:0A:7F:7E:1B:85:D7
    Signature Algorithm: sha256WithRSAEncryption
         42:b4:99:71:ce:7b:22:dd:89:36:d9:7f:27:a4:c7:ef:15:cb:
         a7:22:2c:90:f4:e8:fd:37:6a:d3:f5:77:cc:b8:a5:a2:86:ee:
         77:0d:57:ab:45:04:63:db:b6:00:ec:70:da:ef:0a:42:37:5d:
         65:58:cc:80:c7:51:8d:16:f3:34:47:62:ac:c3:a2:97:7e:31:
         df:6a:af:19:55:05:54:6d:75:62:45:b4:1d:89:05:17:00:56:
         55:bd:01:4b:35:72:09:19:c9:92:af:ad:27:ef:57:34:eb:70:
         57:16:dd:ba:4d:19:e8:56:05:6b:5e:f1:01:1a:19:60:7d:a1:
         90:83:25:3b:24:ab:cb:da:fa:24:78:92:c6:0c:67:3c:1b:8e:
         1e:52:e8:e6:a6:a6:76:45:fb:1a:2b:71:2c:b7:ce:85:bd:23:
         c1:cc:2f:df:9f:7a:45:66:5a:dc:96:b5:dc:01:f1:db:b9:6a:
         97:e7:ab:c0:1d:5d:78:1e:5b:94:b8:22:cc:92:f7:34:f7:07:
         47:3f:31:c9:20:63:f2:d1:19:5e:02:5f:54:75:b8:10:b3:1e:
         bd:f2:4c:a6:1d:c3:9f:33:18:b1:86:79:90:aa:2c:ec:20:41:
         60:97:d4:4a:53:ec:fa:7c:1d:7f:06:a7:f7:64:3c:74:29:7b:
         b7:71:31:3f:f3:73:04:bf:9f:c4:f4:f0:43:b3:a6:31:b2:7f:
         6b:f1:ed:d6:39:e0:e9:48:a9:d2:d7:6b:ac:4a:ed:5f:d2:3d:
         11:c2:9e:51:33:de:81:0b:5b:b3:4c:1b:75:eb:a5:11:fe:74:
         fe:a2:c1:1c:1f:18:a1:aa:f2:f8:c4:65:6e:44:ab:f8:cd:4d:
         5f:76:be:34:9e:d7:f1:f2:6a:73:4a:da:10:19:7f:ec:b4:2a:
         66:83:ab:cf:c1:ce:b4:0f:69:ff:2f:5c:b0:4e:33:e9:43:bc:
         89:75:f5:cb:09:b3:3d:bf:3c:bb:f0:e3:c7:71:80:fc:25:cb:
         d1:66:30:43:5e:ec:9a:8c:b9:42:91:aa:5a:74:69:2c:8f:3f:
         98:35:ed:d6:1d:01:b6:32:d3:2e:38:83:61:52:c4:70:fb:93:
         dd:79:41:8f:42:4a:25:37:5b:2d:02:ab:17:c9:17:d2:96:74:
         64:78:c8:0d:e7:05:f5:a2:9b:c0:e7:47:61:7f:22:2c:01:e7:
         e2:6d:7d:78:9e:1f:fe:e8:9a:53:71:34:34:3f:03:d8:85:fc:
         f0:1d:76:29:8a:2b:56:32:89:ba:a0:d8:95:5b:58:55:f9:84:
         3f:8c:b0:42:18:88:4c:96:ce:7c:de:be:dd:4f:d6:8f:d2:04:
         d0:45:9f:79:76:b5:a1:ec
-----BEGIN CERTIFICATE-----
MIIFHTCCAwWgAwIBAgIQCRzw7wO+Q/pg5k5IOJLxWzANBgkqhkiG9w0BAQsFADAw
MQswCQYDVQQGEwJFUzEPMA0GA1UECgwGVGVsZWNvMRAwDgYDVQQDDAdSb290IENB
MB4XDTIzMDQwNzE4MzM1OFoXDTMzMDQwNDE4MzM1OFowNDELMAkGA1UEBhMCRVMx
DzANBgNVBAoMBlRlbGVjbzEUMBIGA1UEAwwLc2VydmVydGxzMTMwggEiMA0GCSqG
SIb3DQEBAQUAA4IBDwAwggEKAoIBAQCLH3v/rSYir/u5Cl/SvbvbcHHprWAc1pX0
YFsd2bR1Px3PptRNPLJY198DH2BstMLYP4RtqfdWvY+KUjpR96XCQoCAfvo5+0Om
ocbItC7tzbcX8/TAyul/4yXpFs/EK2lsuJDqzfnN95StFROT8DZ22bBDqmb2v5KG
is12k5rlXPr0sF8T0ANPa8AT0Aim/X7MT0sNn5OnWssZllfGtgjOkYKxa9fshIxZ
kaOMg5vJfLPmFS3gkJAicAyZ2snJkEo664Y9f8C5jInv+aDpAqn8ZgsjU5yQRkXs
Wk3JnxABMTN5GFHRDbtVQuZPZPFKDpZMGxxeWP77ddIwAilggIs7AgMBAAGjggEt
MIIBKTByBggrBgEFBQcBAQRmMGQwMQYIKwYBBQUHMAKGJWh0dHA6Ly9yb290LWNh
LlRlbGVjby5jb20vcm9vdC1jYS5jcnQwLwYIKwYBBQUHMAGGI2h0dHA6Ly9vY3Nw
LnJvb3QtY2EuVGVsZWNvLmNvbTo5MDgwMB8GA1UdIwQYMBaAFLt2YQpMm4dIh+ca
I8+fTgyGAnrGMAwGA1UdEwEB/wQCMAAwNgYDVR0fBC8wLTAroCmgJ4YlaHR0cDov
L3Jvb3QtY2EuVGVsZWNvLmNvbS9yb290LWNhLmNybDAdBgNVHSUEFjAUBggrBgEF
BQcDAgYIKwYBBQUHAwEwDgYDVR0PAQH/BAQDAgWgMB0GA1UdDgQWBBS4FNfgs649
XZCSEFcaXAp/fhuF1zANBgkqhkiG9w0BAQsFAAOCAgEAQrSZcc57It2JNtl/J6TH
7xXLpyIskPTo/Tdq0/V3zLiloobudw1Xq0UEY9u2AOxw2u8KQjddZVjMgMdRjRbz
NEdirMOil34x32qvGVUFVG11YkW0HYkFFwBWVb0BSzVyCRnJkq+tJ+9XNOtwVxbd
uk0Z6FYFa17xARoZYH2hkIMlOySry9r6JHiSxgxnPBuOHlLo5qamdkX7GitxLLfO
hb0jwcwv3596RWZa3Ja13AHx27lql+erwB1deB5blLgizJL3NPcHRz8xySBj8tEZ
XgJfVHW4ELMevfJMph3DnzMYsYZ5kKos7CBBYJfUSlPs+nwdfwan92Q8dCl7t3Ex
P/NzBL+fxPTwQ7OmMbJ/a/Ht1jng6Uip0tdrrErtX9I9EcKeUTPegQtbs0wbdeul
Ef50/qLBHB8Yoary+MRlbkSr+M1NX3a+NJ7X8fJqc0raEBl/7LQqZoOrz8HOtA9p
/y9csE4z6UO8iXX1ywmzPb88u/Djx3GA/CXL0WYwQ17smoy5QpGqWnRpLI8/mDXt
1h0BtjLTLjiDYVLEcPuT3XlBj0JKJTdbLQKrF8kX0pZ0ZHjIDecF9aKbwOdHYX8i
LAHn4m19eJ4f/uiaU3E0ND8D2IX88B12KYorVjKJuqDYlVtYVfmEP4ywQhiITJbO
fN6+3U/Wj9IE0EWfeXa1oew=
-----END CERTIFICATE-----
