Certificate:
    Data:
        Version: 3 (0x2)
        Serial Number:
            09:1c:f0:ef:03:be:43:fa:60:e6:4e:48:38:92:f1:2b
        Signature Algorithm: sha256WithRSAEncryption
        Issuer: C=ES, O=Teleco, CN=Root CA
        Validity
            Not Before: Mar 26 14:55:32 2023 GMT
            Not After : Mar 23 14:55:32 2033 GMT
        Subject: C=ES, O=Teleco, CN=Client CA
        Subject Public Key Info:
            Public Key Algorithm: rsaEncryption
                RSA Public-Key: (4096 bit)
                Modulus:
                    00:d0:88:c7:a4:5f:7a:be:3b:40:90:37:53:81:27:
                    20:fa:0c:48:b8:4c:37:eb:b5:71:2c:57:69:7a:48:
                    1c:0e:2d:35:81:30:4a:37:33:04:ef:a9:c2:50:a5:
                    6f:0a:a8:06:38:a3:ad:1b:13:a8:a2:d2:d7:69:52:
                    49:5a:62:e4:10:73:96:66:e7:ae:4d:c7:65:42:03:
                    44:79:55:09:98:32:20:27:d3:c8:9f:82:1b:0f:5f:
                    93:87:61:7e:78:63:a4:ee:52:df:27:27:6c:7e:3a:
                    15:cb:99:e5:1d:a9:6e:99:42:80:72:de:55:35:4d:
                    7a:a6:b3:1d:fc:64:34:0d:e3:99:b4:ee:94:a5:79:
                    51:2a:61:f5:e8:51:47:22:e4:5c:b6:70:55:dc:35:
                    0d:4d:00:1e:5d:74:95:99:a2:01:25:7d:28:4a:76:
                    1c:3f:34:6f:cd:a2:dd:58:c8:6f:ad:cf:e4:3e:40:
                    93:ee:d4:af:31:bb:06:03:2d:f0:62:2a:9a:9c:09:
                    d5:4f:d6:bd:88:78:ec:91:ab:a0:01:23:b8:93:2d:
                    f7:07:2f:8f:35:45:0a:ff:84:3c:70:5b:a7:3c:7d:
                    b8:d3:d3:8a:28:1b:db:c9:3f:16:a1:07:3d:d4:58:
                    96:5d:91:e4:e0:77:f3:da:af:6b:f3:4a:90:56:81:
                    6c:5b:d0:c6:20:91:21:20:48:a2:95:ce:ac:4a:da:
                    a8:3c:bc:c5:d2:70:be:da:e5:b4:bf:da:59:17:a6:
                    44:ff:04:ff:55:46:a1:78:c0:5c:68:90:22:62:29:
                    d1:9b:61:36:2b:6c:85:db:4d:54:d5:fc:c9:82:ab:
                    d1:a2:88:57:af:30:34:c3:71:75:e5:ca:15:7a:84:
                    90:63:0b:c7:05:68:a4:5c:f6:ee:dc:72:54:53:f7:
                    b9:ae:b3:2d:62:b0:e5:ec:e3:26:b4:64:6d:cf:75:
                    56:05:58:67:ef:2f:3f:38:14:82:f7:5d:ed:33:e1:
                    88:e3:d6:a6:b3:ab:97:d5:53:35:c4:5a:13:90:39:
                    04:81:3f:90:8a:65:17:fe:99:b2:16:90:9a:f0:28:
                    43:ff:04:15:92:27:fe:19:ac:c3:f2:79:1b:e7:d4:
                    da:1d:a7:d5:4f:4e:d3:43:36:3f:87:8b:1a:b2:88:
                    95:59:f6:ec:80:2b:d3:55:eb:78:65:ce:1b:76:4d:
                    66:b5:c3:b9:d6:e1:7c:47:81:16:cb:79:39:ff:4d:
                    43:95:c6:8e:f0:e0:58:48:06:7b:08:ef:3e:54:3f:
                    55:ef:e5:d5:49:c4:67:e8:fd:bf:35:ca:16:da:5b:
                    cc:ab:04:68:b8:7c:5f:44:ca:8e:bd:49:a6:76:f3:
                    40:df:b5
                Exponent: 65537 (0x10001)
        X509v3 extensions:
            Authority Information Access: 
                OCSP - URI:http://localhost:9080/

            X509v3 Authority Key Identifier: 
                keyid:8A:F1:16:09:2A:B1:57:D6:A1:B9:1E:BA:5F:5F:E6:81:DA:98:B4:F9

            X509v3 Basic Constraints: critical
                CA:TRUE, pathlen:0
            X509v3 CRL Distribution Points: 

                Full Name:
                  URI:http://root-ca.Teleco.com/root-ca.crl

            X509v3 Extended Key Usage: 
                TLS Web Client Authentication, TLS Web Server Authentication
            X509v3 Key Usage: critical
                Certificate Sign, CRL Sign
            X509v3 Name Constraints: 
                Permitted:
                  DNS:example.com
                  DNS:example.org
                Excluded:
                  IP:0.0.0.0/0.0.0.0
                  IP:0:0:0:0:0:0:0:0/0:0:0:0:0:0:0:0

            X509v3 Subject Key Identifier: 
                57:BD:7F:54:FA:7A:0F:B7:47:90:3B:66:09:82:62:B5:B6:F7:67:7A
    Signature Algorithm: sha256WithRSAEncryption
         61:6a:da:88:3f:60:bb:ad:be:5b:79:6a:50:99:6a:4b:3f:95:
         aa:fd:c4:14:54:88:2b:95:c5:ab:b4:d4:4d:a2:0c:60:8c:02:
         92:9c:4c:1f:ec:2f:55:51:cb:93:af:b1:17:53:4d:d0:77:77:
         51:31:33:f1:ee:7c:b5:5c:69:9d:c5:a7:95:41:03:07:49:7e:
         16:11:68:cd:5e:d9:b7:86:ac:2c:9d:b2:c6:89:c5:11:d6:6d:
         dc:ac:fd:56:f4:03:a6:56:98:64:6b:93:63:5f:0d:44:00:e2:
         62:48:31:b2:77:0c:7e:a2:4b:f5:15:5b:bb:f4:94:e7:dc:8e:
         c3:d1:80:43:c8:57:e9:7a:35:ae:6c:f6:34:d5:d3:56:16:92:
         71:52:7a:89:de:97:89:3c:91:3b:10:9f:01:df:5b:df:dc:c0:
         23:0e:e5:b9:5d:a5:ee:8d:a2:f1:dc:bd:90:d3:56:e7:ad:1c:
         71:4e:84:1d:e6:12:83:a6:44:2d:11:b4:a7:c1:67:61:d4:f8:
         8d:e3:7b:02:89:70:c9:ae:69:8d:5c:4c:a6:61:7a:17:ca:45:
         6b:35:69:63:21:11:db:fe:9f:10:0f:e8:d6:2e:60:20:f3:d1:
         51:1e:cf:cb:1d:a8:41:01:0e:ba:20:d9:08:80:21:8d:49:56:
         ef:1b:db:e3:3b:c1:79:d2:47:4c:f6:7c:82:b4:22:3d:60:3a:
         74:ac:80:21:39:68:00:e8:7e:56:02:ac:e6:b4:d7:da:8f:b4:
         cf:ab:ed:7e:62:62:a7:54:33:00:7a:66:d4:d8:cb:2e:46:56:
         11:a0:47:b7:f8:1a:84:89:f3:c4:de:07:b6:c2:07:92:2c:7f:
         43:eb:c0:69:67:ab:7c:22:07:78:d1:97:ff:c7:52:24:71:f9:
         a5:ad:ce:42:97:97:6b:97:d8:b6:1c:5f:e6:6e:67:0f:d7:1e:
         40:e7:24:ce:ec:17:00:df:c6:6a:0e:43:c6:d1:99:20:c5:d8:
         81:75:ac:12:12:93:14:02:45:0a:d5:93:f0:eb:0f:9a:b7:b7:
         45:89:da:81:a1:a4:08:e2:34:23:d4:62:ad:ed:51:af:e5:8b:
         f7:18:04:19:a8:58:2c:18:a4:35:ba:d0:26:c3:68:cf:b3:0e:
         5b:96:48:a6:ae:4d:29:73:3d:18:fe:5b:9a:fb:f9:80:f2:26:
         7f:7f:9b:42:26:b0:a5:81:36:b9:a7:95:06:e1:d3:70:71:fc:
         61:2d:90:10:45:c3:4b:f1:3a:d4:75:49:5b:67:c9:49:52:b1:
         21:ea:52:bf:89:6a:ca:8d:1c:28:fc:12:cb:88:a2:62:be:20:
         63:0c:2c:f6:35:52:b7:18
-----BEGIN CERTIFICATE-----
MIIGPjCCBCagAwIBAgIQCRzw7wO+Q/pg5k5IOJLxKzANBgkqhkiG9w0BAQsFADAw
MQswCQYDVQQGEwJFUzEPMA0GA1UECgwGVGVsZWNvMRAwDgYDVQQDDAdSb290IENB
MB4XDTIzMDMyNjE0NTUzMloXDTMzMDMyMzE0NTUzMlowMjELMAkGA1UEBhMCRVMx
DzANBgNVBAoMBlRlbGVjbzESMBAGA1UEAwwJQ2xpZW50IENBMIICIjANBgkqhkiG
9w0BAQEFAAOCAg8AMIICCgKCAgEA0IjHpF96vjtAkDdTgScg+gxIuEw367VxLFdp
ekgcDi01gTBKNzME76nCUKVvCqgGOKOtGxOootLXaVJJWmLkEHOWZueuTcdlQgNE
eVUJmDIgJ9PIn4IbD1+Th2F+eGOk7lLfJydsfjoVy5nlHalumUKAct5VNU16prMd
/GQ0DeOZtO6UpXlRKmH16FFHIuRctnBV3DUNTQAeXXSVmaIBJX0oSnYcPzRvzaLd
WMhvrc/kPkCT7tSvMbsGAy3wYiqanAnVT9a9iHjskaugASO4ky33By+PNUUK/4Q8
cFunPH2409OKKBvbyT8WoQc91FiWXZHk4Hfz2q9r80qQVoFsW9DGIJEhIEiilc6s
StqoPLzF0nC+2uW0v9pZF6ZE/wT/VUaheMBcaJAiYinRm2E2K2yF201U1fzJgqvR
oohXrzA0w3F15coVeoSQYwvHBWikXPbu3HJUU/e5rrMtYrDl7OMmtGRtz3VWBVhn
7y8/OBSC913tM+GI49ams6uX1VM1xFoTkDkEgT+QimUX/pmyFpCa8ChD/wQVkif+
GazD8nkb59TaHafVT07TQzY/h4sasoiVWfbsgCvTVet4Zc4bdk1mtcO51uF8R4EW
y3k5/01DlcaO8OBYSAZ7CO8+VD9V7+XVScRn6P2/NcoW2lvMqwRouHxfRMqOvUmm
dvNA37UCAwEAAaOCAVAwggFMMDIGCCsGAQUFBwEBBCYwJDAiBggrBgEFBQcwAYYW
aHR0cDovL2xvY2FsaG9zdDo5MDgwLzAfBgNVHSMEGDAWgBSK8RYJKrFX1qG5Hrpf
X+aB2pi0+TASBgNVHRMBAf8ECDAGAQH/AgEAMDYGA1UdHwQvMC0wK6ApoCeGJWh0
dHA6Ly9yb290LWNhLlRlbGVjby5jb20vcm9vdC1jYS5jcmwwHQYDVR0lBBYwFAYI
KwYBBQUHAwIGCCsGAQUFBwMBMA4GA1UdDwEB/wQEAwIBBjBbBgNVHR4EVDBSoB4w
DYILZXhhbXBsZS5jb20wDYILZXhhbXBsZS5vcmehMDAKhwgAAAAAAAAAADAihyAA
AAAAAAAAAAAAAAAAAAAAAAAAAAAAAAAAAAAAAAAAADAdBgNVHQ4EFgQUV71/VPp6
D7dHkDtmCYJitbb3Z3owDQYJKoZIhvcNAQELBQADggIBAGFq2og/YLutvlt5alCZ
aks/lar9xBRUiCuVxau01E2iDGCMApKcTB/sL1VRy5OvsRdTTdB3d1ExM/HufLVc
aZ3Fp5VBAwdJfhYRaM1e2beGrCydssaJxRHWbdys/Vb0A6ZWmGRrk2NfDUQA4mJI
MbJ3DH6iS/UVW7v0lOfcjsPRgEPIV+l6Na5s9jTV01YWknFSeonel4k8kTsQnwHf
W9/cwCMO5bldpe6NovHcvZDTVuetHHFOhB3mEoOmRC0RtKfBZ2HU+I3jewKJcMmu
aY1cTKZhehfKRWs1aWMhEdv+nxAP6NYuYCDz0VEez8sdqEEBDrog2QiAIY1JVu8b
2+M7wXnSR0z2fIK0Ij1gOnSsgCE5aADoflYCrOa019qPtM+r7X5iYqdUMwB6ZtTY
yy5GVhGgR7f4GoSJ88TeB7bCB5Isf0PrwGlnq3wiB3jRl//HUiRx+aWtzkKXl2uX
2LYcX+ZuZw/XHkDnJM7sFwDfxmoOQ8bRmSDF2IF1rBISkxQCRQrVk/DrD5q3t0WJ
2oGhpAjiNCPUYq3tUa/li/cYBBmoWCwYpDW60CbDaM+zDluWSKauTSlzPRj+W5r7
+YDyJn9/m0ImsKWBNrmnlQbh03Bx/GEtkBBFw0vxOtR1SVtnyUlSsSHqUr+JasqN
HCj8EsuIomK+IGMMLPY1UrcY
-----END CERTIFICATE-----
