Certificate:
    Data:
        Version: 3 (0x2)
        Serial Number:
            09:1c:f0:ef:03:be:43:fa:60:e6:4e:48:38:92:f1:59
    Signature Algorithm: sha256WithRSAEncryption
        Issuer: C=ES, O=Teleco, CN=Root CA
        Validity
            Not Before: Apr  7 18:27:15 2023 GMT
            Not After : Apr  4 18:27:15 2033 GMT
        Subject: C=ES, O=Teleco, CN=Root CA
        Subject Public Key Info:
            Public Key Algorithm: rsaEncryption
                Public-Key: (4096 bit)
                Modulus:
                    00:b4:b3:b5:5f:ae:f4:08:7f:25:be:be:4a:6f:db:
                    12:82:b8:9a:36:d3:55:43:9a:68:a7:65:4c:86:4a:
                    62:3e:78:1b:6b:de:b3:96:d9:cd:e0:d4:db:fb:7e:
                    5c:87:f4:64:23:67:73:b6:ec:90:ab:83:ac:1c:44:
                    03:40:cc:c5:cd:51:ab:2d:60:ac:79:7c:4f:c1:c6:
                    66:c6:04:32:b7:72:c0:5b:91:bc:2a:dd:c8:a1:ab:
                    87:ba:2f:99:e9:2b:1b:1e:bc:d2:f3:df:41:13:46:
                    6f:23:cc:7a:fa:06:f8:16:14:eb:1c:c8:04:69:d1:
                    9c:df:fb:6e:4e:a3:2b:14:dd:45:6b:05:ad:c4:18:
                    ab:af:1f:74:2f:1f:a6:74:d9:b7:18:23:d9:48:25:
                    9c:f8:ef:e3:8d:2c:0f:8f:c4:d2:b7:32:07:93:b5:
                    0f:73:c9:ce:cb:8f:5c:b8:f6:d5:52:8a:40:a4:7e:
                    c0:6c:c1:8c:eb:88:f3:73:04:c8:9a:6b:41:7c:ba:
                    8c:5e:54:4e:7b:df:38:29:6f:10:a4:2f:87:b1:6c:
                    a5:79:f0:f2:1a:6b:c2:97:5a:16:e8:98:1b:ee:94:
                    60:e4:ca:51:a2:b4:42:c8:ae:1d:84:dc:4b:10:24:
                    63:b5:f3:28:5c:49:b3:b7:46:d7:45:a6:0d:fb:b0:
                    8a:e6:21:ba:7a:2b:3d:88:47:b4:8a:71:a9:52:3c:
                    c2:99:bb:7d:29:a4:a0:5f:88:22:7b:f8:d8:24:10:
                    27:3c:70:c8:56:a1:26:cd:69:1c:62:7a:3d:ef:6c:
                    5d:d8:01:be:62:fe:4f:36:57:a0:bc:6a:76:55:e4:
                    93:d4:be:06:c9:51:96:3f:80:aa:06:6f:ab:42:f9:
                    29:03:d1:76:c2:09:cb:db:dd:f7:5b:1a:e6:fd:99:
                    75:4d:3f:2b:30:17:67:17:1b:37:38:18:5b:42:ad:
                    05:94:c7:b2:c4:a9:ce:46:5e:87:8b:52:24:34:7a:
                    d1:2a:a3:c0:fc:a0:94:70:fc:73:c2:1d:f0:d8:bf:
                    3d:c5:0f:27:4c:6a:67:14:6f:3f:74:38:dc:d3:64:
                    66:d8:2d:f8:19:73:b8:49:24:84:7e:d2:7b:a8:b6:
                    ac:62:63:4c:c7:c1:fb:53:63:c5:0d:68:f0:ab:7d:
                    a4:92:7e:ae:18:68:b9:3f:f0:4e:52:11:da:60:ff:
                    59:0d:e3:07:9a:44:1c:9d:a1:dc:65:c0:5c:a6:6c:
                    57:85:4f:5e:1e:73:61:98:3a:85:da:e7:ad:08:2e:
                    2f:87:40:4d:1b:f7:93:6e:cf:39:b8:8c:70:51:19:
                    f5:fa:8b:91:f9:5c:cc:8e:80:e9:31:0c:20:b0:ed:
                    de:3a:f5
                Exponent: 65537 (0x10001)
        X509v3 extensions:
            X509v3 Basic Constraints: critical
                CA:TRUE
            X509v3 Key Usage: critical
                Certificate Sign, CRL Sign
            X509v3 Subject Key Identifier: 
                BB:76:61:0A:4C:9B:87:48:87:E7:1A:23:CF:9F:4E:0C:86:02:7A:C6
    Signature Algorithm: sha256WithRSAEncryption
         7d:72:c3:92:5c:38:9b:14:ce:83:c1:73:73:22:9b:e6:03:12:
         4f:cd:f1:52:70:2c:cf:58:78:4f:47:cf:3b:54:b9:2c:02:ac:
         5f:33:e4:46:10:8c:e0:8e:e6:2d:95:09:cf:6f:6e:24:97:51:
         0b:51:44:db:03:65:45:19:94:6c:f3:9e:64:21:18:91:d8:56:
         d2:be:c9:0b:34:a4:2e:0f:57:4e:01:e6:e1:43:cf:05:ad:27:
         ee:8c:9d:d1:6d:20:72:28:03:37:40:b7:2c:be:9a:d5:b0:21:
         8d:0b:f3:1e:6e:f6:d2:c3:f5:1a:a2:e6:66:db:7d:51:a2:9c:
         e4:3b:c1:18:a1:37:78:23:74:92:96:ca:30:00:1f:89:36:d6:
         42:ff:64:70:47:af:84:5e:07:62:cb:fb:b2:f9:1f:e0:b2:59:
         fe:8b:61:48:10:d5:1e:17:c8:f3:4c:ad:ba:16:93:d4:91:9d:
         c5:4f:4c:7e:c3:3b:46:e2:72:b6:fd:3e:59:16:70:dc:fc:59:
         61:b8:47:b1:f4:1b:cb:3c:57:49:49:24:8c:60:9d:b8:f0:b7:
         68:b9:ed:77:c7:44:91:1d:f9:e5:8c:0c:c5:22:c3:e8:69:0b:
         45:fa:b7:ae:66:4e:ff:d4:52:c4:5f:5a:41:a3:63:c8:4e:cb:
         55:45:c1:49:3b:cf:76:71:57:45:ed:7d:d0:50:18:49:62:15:
         46:73:6f:bb:a5:71:d6:64:b5:26:ca:29:60:8c:14:1e:c5:c2:
         aa:9f:bd:28:56:4a:9c:6a:a7:83:55:aa:d7:06:af:15:e3:8d:
         4e:2f:b5:46:6d:d6:a2:6e:c9:48:bb:da:65:26:b8:bd:8f:dc:
         51:b2:46:4d:08:a2:a8:fb:70:b7:e2:51:05:4f:17:ad:01:5a:
         2a:bf:a8:d7:51:81:f7:14:eb:06:9e:54:80:10:63:7e:49:e5:
         c1:25:cd:b7:91:6b:ae:6b:5e:e6:d0:7a:0b:01:29:c2:ec:66:
         78:37:c9:26:27:c1:76:e7:e5:15:f5:e6:7e:5c:3d:b8:b9:02:
         d9:9b:38:90:28:2a:0e:3c:51:40:b4:7e:58:f5:5d:e9:e4:70:
         55:97:87:fa:72:93:2c:2e:a4:60:9a:b6:b4:28:d5:9c:2c:47:
         30:f2:12:22:77:79:26:5f:8b:5a:02:3a:97:43:44:68:44:e9:
         b0:1c:18:ee:99:0e:a6:1c:9c:bd:9a:7f:6d:88:f7:e4:76:dc:
         46:82:9a:74:12:6e:82:16:7d:7f:9d:5b:96:0e:c6:e0:f4:69:
         4a:af:b2:d7:06:da:61:aa:c0:f5:09:49:19:be:d2:f9:46:db:
         4c:c3:ec:d0:05:98:5e:38
-----BEGIN CERTIFICATE-----
MIIFLDCCAxSgAwIBAgIQCRzw7wO+Q/pg5k5IOJLxWTANBgkqhkiG9w0BAQsFADAw
MQswCQYDVQQGEwJFUzEPMA0GA1UECgwGVGVsZWNvMRAwDgYDVQQDDAdSb290IENB
MB4XDTIzMDQwNzE4MjcxNVoXDTMzMDQwNDE4MjcxNVowMDELMAkGA1UEBhMCRVMx
DzANBgNVBAoMBlRlbGVjbzEQMA4GA1UEAwwHUm9vdCBDQTCCAiIwDQYJKoZIhvcN
AQEBBQADggIPADCCAgoCggIBALSztV+u9Ah/Jb6+Sm/bEoK4mjbTVUOaaKdlTIZK
Yj54G2ves5bZzeDU2/t+XIf0ZCNnc7bskKuDrBxEA0DMxc1Rqy1grHl8T8HGZsYE
MrdywFuRvCrdyKGrh7ovmekrGx680vPfQRNGbyPMevoG+BYU6xzIBGnRnN/7bk6j
KxTdRWsFrcQYq68fdC8fpnTZtxgj2UglnPjv440sD4/E0rcyB5O1D3PJzsuPXLj2
1VKKQKR+wGzBjOuI83MEyJprQXy6jF5UTnvfOClvEKQvh7FspXnw8hprwpdaFuiY
G+6UYOTKUaK0QsiuHYTcSxAkY7XzKFxJs7dG10WmDfuwiuYhunorPYhHtIpxqVI8
wpm7fSmkoF+IInv42CQQJzxwyFahJs1pHGJ6Pe9sXdgBvmL+TzZXoLxqdlXkk9S+
BslRlj+AqgZvq0L5KQPRdsIJy9vd91sa5v2ZdU0/KzAXZxcbNzgYW0KtBZTHssSp
zkZeh4tSJDR60SqjwPyglHD8c8Id8Ni/PcUPJ0xqZxRvP3Q43NNkZtgt+BlzuEkk
hH7Se6i2rGJjTMfB+1NjxQ1o8Kt9pJJ+rhhouT/wTlIR2mD/WQ3jB5pEHJ2h3GXA
XKZsV4VPXh5zYZg6hdrnrQguL4dATRv3k27PObiMcFEZ9fqLkflczI6A6TEMILDt
3jr1AgMBAAGjQjBAMA8GA1UdEwEB/wQFMAMBAf8wDgYDVR0PAQH/BAQDAgEGMB0G
A1UdDgQWBBS7dmEKTJuHSIfnGiPPn04MhgJ6xjANBgkqhkiG9w0BAQsFAAOCAgEA
fXLDklw4mxTOg8FzcyKb5gMST83xUnAsz1h4T0fPO1S5LAKsXzPkRhCM4I7mLZUJ
z29uJJdRC1FE2wNlRRmUbPOeZCEYkdhW0r7JCzSkLg9XTgHm4UPPBa0n7oyd0W0g
cigDN0C3LL6a1bAhjQvzHm720sP1GqLmZtt9UaKc5DvBGKE3eCN0kpbKMAAfiTbW
Qv9kcEevhF4HYsv7svkf4LJZ/othSBDVHhfI80ytuhaT1JGdxU9MfsM7RuJytv0+
WRZw3PxZYbhHsfQbyzxXSUkkjGCduPC3aLntd8dEkR355YwMxSLD6GkLRfq3rmZO
/9RSxF9aQaNjyE7LVUXBSTvPdnFXRe190FAYSWIVRnNvu6Vx1mS1JsopYIwUHsXC
qp+9KFZKnGqng1Wq1wavFeONTi+1Rm3Wom7JSLvaZSa4vY/cUbJGTQiiqPtwt+JR
BU8XrQFaKr+o11GB9xTrBp5UgBBjfknlwSXNt5Frrmte5tB6CwEpwuxmeDfJJifB
duflFfXmflw9uLkC2Zs4kCgqDjxRQLR+WPVd6eRwVZeH+nKTLC6kYJq2tCjVnCxH
MPISInd5Jl+LWgI6l0NEaETpsBwY7pkOphycvZp/bYj35HbcRoKadBJughZ9f51b
lg7G4PRpSq+y1wbaYarA9QlJGb7S+UbbTMPs0AWYXjg=
-----END CERTIFICATE-----
