Certificate:
    Data:
        Version: 3 (0x2)
        Serial Number:
            09:1c:f0:ef:03:be:43:fa:60:e6:4e:48:38:92:f1:27
        Signature Algorithm: sha256WithRSAEncryption
        Issuer: C=ES, O=Teleco, CN=Root CA
        Validity
            Not Before: Mar 26 13:10:00 2023 GMT
            Not After : Mar 23 13:10:00 2033 GMT
        Subject: C=ES, O=Teleco, CN=Root CA
        Subject Public Key Info:
            Public Key Algorithm: rsaEncryption
                RSA Public-Key: (4096 bit)
                Modulus:
                    00:b5:d1:18:94:3c:2e:67:3e:e2:e9:90:d3:54:fc:
                    2f:73:7e:d4:30:18:0f:bd:93:7a:d9:41:8f:65:f0:
                    b9:1b:07:50:ba:67:22:ab:95:78:d1:44:17:97:99:
                    f3:53:d8:a1:54:57:fe:aa:f4:95:10:2a:d2:cc:f5:
                    dd:74:9b:22:5b:8e:56:ef:b1:6a:56:e0:c9:4d:e7:
                    e5:58:62:68:ea:ab:b1:e5:0d:b2:bb:d2:1d:04:73:
                    a2:c6:c4:71:69:25:b0:55:5a:40:b1:a4:d9:2d:d7:
                    7d:80:cc:e7:bb:7f:af:6b:ea:79:03:37:e8:76:bf:
                    f5:bb:44:2d:db:02:31:62:ac:c2:4a:4e:ef:e0:16:
                    34:61:04:fb:f5:bf:1b:35:40:2e:34:9d:59:d5:7f:
                    0d:ab:b1:a0:73:79:27:40:df:27:4f:53:3f:31:f7:
                    82:4a:a4:cc:ad:b3:c6:5b:5c:bf:42:18:7f:6f:89:
                    53:c0:42:37:5e:ba:ce:62:e3:64:99:cb:41:7c:24:
                    3f:9f:71:23:e2:2a:0a:ec:2f:f3:e5:b4:73:3f:8a:
                    90:ce:57:15:69:8f:d5:12:2c:dc:a1:75:74:f3:f4:
                    58:e5:73:66:36:62:94:bd:b2:51:12:1b:18:a1:54:
                    89:ed:87:87:f5:72:11:a1:1b:46:fd:17:e9:6c:ab:
                    4a:71:c3:59:2a:a9:bc:d0:51:02:89:b0:0d:6a:83:
                    0e:2e:fd:db:7b:c1:6e:13:ab:11:30:4d:cd:e1:c7:
                    dd:98:1e:03:00:8c:3b:74:37:1c:5c:e7:7d:cf:65:
                    d5:27:ed:a7:43:45:3e:33:d6:08:c9:ab:b0:43:cf:
                    3d:a0:b4:d7:43:cb:3a:f9:95:2a:15:c6:86:f1:95:
                    d6:55:08:e0:28:cd:05:1b:f2:c7:cb:26:dd:ea:24:
                    f4:cb:f4:16:6c:e3:10:c9:42:db:6b:45:5c:11:fb:
                    15:94:76:e1:92:2a:d9:42:71:08:c6:06:e6:1d:6d:
                    b2:20:f5:b6:e7:87:b0:b8:66:6c:ca:84:82:40:ba:
                    d9:8c:d5:6b:c0:06:e1:7e:a7:ce:66:8a:fb:9e:0f:
                    88:f0:59:49:79:fe:19:ee:08:2d:ae:9f:20:d9:d5:
                    70:18:49:e1:56:1a:20:00:6e:0d:0e:5d:83:8e:f4:
                    aa:ca:e6:c3:9d:e3:be:59:60:17:f3:f0:1e:ae:ec:
                    50:89:7a:6e:ec:ac:b3:9f:82:fb:c2:04:96:ab:f1:
                    22:43:16:d8:a0:4a:3c:81:37:ee:ab:10:7f:c1:7d:
                    c6:68:67:eb:c4:54:24:0a:95:27:40:7c:46:1a:af:
                    0f:2b:77:44:37:7c:6b:38:d1:90:e6:af:f7:df:d4:
                    a3:2f:c5
                Exponent: 65537 (0x10001)
        X509v3 extensions:
            X509v3 Basic Constraints: critical
                CA:TRUE
            X509v3 Key Usage: critical
                Certificate Sign, CRL Sign
            X509v3 Subject Key Identifier: 
                8A:F1:16:09:2A:B1:57:D6:A1:B9:1E:BA:5F:5F:E6:81:DA:98:B4:F9
    Signature Algorithm: sha256WithRSAEncryption
         b4:b0:79:cd:d1:fd:0a:7d:46:4d:17:7e:86:d3:e1:96:c3:3e:
         4f:2a:64:ae:30:91:d8:c0:f5:b7:78:cc:8e:97:55:79:20:cf:
         39:79:0f:a1:0d:77:68:c0:24:11:75:86:5b:37:43:fa:ea:f5:
         8c:a6:ed:3f:76:73:f6:97:f2:bc:17:89:98:fc:fb:38:10:83:
         2e:da:c6:91:48:b6:b8:e2:9a:cd:3f:50:89:5f:bf:c7:c2:e0:
         6b:87:44:78:de:67:d1:76:f3:a2:d0:27:50:f1:f0:73:1d:a3:
         e1:41:d3:24:f8:09:bd:32:e1:28:2d:2d:6d:e3:8a:e7:c5:94:
         a2:5f:60:e1:6c:b4:a6:3b:41:d5:58:86:e7:6e:e6:8a:f1:a2:
         2a:55:b1:a1:53:38:9f:fe:f7:bd:bc:ff:a1:f4:23:e6:31:4d:
         27:8c:ff:e6:90:a0:48:fd:04:30:8a:64:0f:10:1c:f4:c3:14:
         44:5d:07:31:8c:4d:05:ce:fc:19:84:0d:71:e1:ec:c4:a7:ca:
         3a:3b:6c:1a:8f:e9:0a:23:43:c3:f4:cc:52:3e:27:44:f6:0c:
         b0:d1:0b:a4:15:48:96:3c:b4:8f:ba:d5:f0:3a:a6:7d:a2:bf:
         7b:c5:6a:fe:62:6f:23:b6:74:be:6e:0a:fb:cf:10:46:b5:93:
         c2:9d:7c:0f:a6:0f:dc:96:ae:a6:83:84:ac:7e:20:06:fc:7d:
         c6:b5:7e:0d:3f:fc:59:07:e9:c5:27:e8:a5:a2:16:4c:90:18:
         14:ab:04:4a:46:6f:4e:ad:3c:5d:6a:ed:01:42:9b:b6:db:c1:
         c8:6c:c0:bb:b2:e4:77:90:72:06:c9:3f:7f:4d:df:fa:4d:41:
         78:8a:39:41:11:27:0b:9d:67:3f:92:57:71:eb:81:c4:98:95:
         88:d5:0b:5e:81:d5:7f:27:c4:43:d5:ef:5f:8b:8c:df:2c:17:
         93:f9:18:fb:01:e9:8f:01:c6:f4:be:24:6c:28:20:34:ef:de:
         21:60:e1:59:7f:a7:42:aa:f1:89:13:0e:41:0c:ee:f5:ff:a6:
         47:cf:d7:9e:76:4b:c0:bd:ff:f4:54:c9:7f:cc:3e:23:2e:67:
         d1:1e:7d:43:52:a1:13:8c:53:0a:35:ec:f0:02:1c:1d:da:d6:
         e6:a9:72:1d:7f:2d:09:ea:ca:2b:32:de:6f:0c:1f:0d:97:b6:
         cb:ce:ba:c3:1a:78:c8:f1:14:b9:b5:c1:94:29:28:57:17:38:
         28:8b:33:82:b8:e9:f0:82:fe:62:43:01:54:ab:c1:b1:79:eb:
         55:4d:e5:91:71:74:72:a9:a3:68:b8:49:fb:4d:1b:01:4a:a5:
         f5:75:36:b3:62:62:13:75
-----BEGIN CERTIFICATE-----
MIIFLDCCAxSgAwIBAgIQCRzw7wO+Q/pg5k5IOJLxJzANBgkqhkiG9w0BAQsFADAw
MQswCQYDVQQGEwJFUzEPMA0GA1UECgwGVGVsZWNvMRAwDgYDVQQDDAdSb290IENB
MB4XDTIzMDMyNjEzMTAwMFoXDTMzMDMyMzEzMTAwMFowMDELMAkGA1UEBhMCRVMx
DzANBgNVBAoMBlRlbGVjbzEQMA4GA1UEAwwHUm9vdCBDQTCCAiIwDQYJKoZIhvcN
AQEBBQADggIPADCCAgoCggIBALXRGJQ8Lmc+4umQ01T8L3N+1DAYD72TetlBj2Xw
uRsHULpnIquVeNFEF5eZ81PYoVRX/qr0lRAq0sz13XSbIluOVu+xalbgyU3n5Vhi
aOqrseUNsrvSHQRzosbEcWklsFVaQLGk2S3XfYDM57t/r2vqeQM36Ha/9btELdsC
MWKswkpO7+AWNGEE+/W/GzVALjSdWdV/DauxoHN5J0DfJ09TPzH3gkqkzK2zxltc
v0IYf2+JU8BCN166zmLjZJnLQXwkP59xI+IqCuwv8+W0cz+KkM5XFWmP1RIs3KF1
dPP0WOVzZjZilL2yURIbGKFUie2Hh/VyEaEbRv0X6WyrSnHDWSqpvNBRAomwDWqD
Di7923vBbhOrETBNzeHH3ZgeAwCMO3Q3HFznfc9l1Sftp0NFPjPWCMmrsEPPPaC0
10PLOvmVKhXGhvGV1lUI4CjNBRvyx8sm3eok9Mv0FmzjEMlC22tFXBH7FZR24ZIq
2UJxCMYG5h1tsiD1tueHsLhmbMqEgkC62YzVa8AG4X6nzmaK+54PiPBZSXn+Ge4I
La6fINnVcBhJ4VYaIABuDQ5dg470qsrmw53jvllgF/PwHq7sUIl6buyss5+C+8IE
lqvxIkMW2KBKPIE37qsQf8F9xmhn68RUJAqVJ0B8RhqvDyt3RDd8azjRkOav99/U
oy/FAgMBAAGjQjBAMA8GA1UdEwEB/wQFMAMBAf8wDgYDVR0PAQH/BAQDAgEGMB0G
A1UdDgQWBBSK8RYJKrFX1qG5HrpfX+aB2pi0+TANBgkqhkiG9w0BAQsFAAOCAgEA
tLB5zdH9Cn1GTRd+htPhlsM+TypkrjCR2MD1t3jMjpdVeSDPOXkPoQ13aMAkEXWG
WzdD+ur1jKbtP3Zz9pfyvBeJmPz7OBCDLtrGkUi2uOKazT9QiV+/x8Lga4dEeN5n
0XbzotAnUPHwcx2j4UHTJPgJvTLhKC0tbeOK58WUol9g4Wy0pjtB1ViG527mivGi
KlWxoVM4n/73vbz/ofQj5jFNJ4z/5pCgSP0EMIpkDxAc9MMURF0HMYxNBc78GYQN
ceHsxKfKOjtsGo/pCiNDw/TMUj4nRPYMsNELpBVIljy0j7rV8DqmfaK/e8Vq/mJv
I7Z0vm4K+88QRrWTwp18D6YP3JaupoOErH4gBvx9xrV+DT/8WQfpxSfopaIWTJAY
FKsESkZvTq08XWrtAUKbttvByGzAu7Lkd5ByBsk/f03f+k1BeIo5QREnC51nP5JX
ceuBxJiViNULXoHVfyfEQ9XvX4uM3ywXk/kY+wHpjwHG9L4kbCggNO/eIWDhWX+n
QqrxiRMOQQzu9f+mR8/XnnZLwL3/9FTJf8w+Iy5n0R59Q1KhE4xTCjXs8AIcHdrW
5qlyHX8tCerKKzLebwwfDZe2y866wxp4yPEUubXBlCkoVxc4KIszgrjp8IL+YkMB
VKvBsXnrVU3lkXF0cqmjaLhJ+00bAUql9XU2s2JiE3U=
-----END CERTIFICATE-----
