Certificate:
    Data:
        Version: 3 (0x2)
        Serial Number:
            09:1c:f0:ef:03:be:43:fa:60:e6:4e:48:38:92:f1:3b
        Signature Algorithm: sha256WithRSAEncryption
        Issuer: C=ES, O=Teleco, CN=Root CA
        Validity
            Not Before: Apr  4 09:28:04 2023 GMT
            Not After : Apr  1 09:28:04 2033 GMT
        Subject: C=ES, O=Teleco, CN=Client CA
        Subject Public Key Info:
            Public Key Algorithm: rsaEncryption
                RSA Public-Key: (4096 bit)
                Modulus:
                    00:ff:0c:df:a0:a8:d4:86:3c:db:46:a5:e6:2d:97:
                    eb:39:3f:a9:bd:66:bb:11:52:91:eb:db:5d:68:22:
                    31:bf:29:ab:65:e0:e0:ac:f3:01:2b:5e:93:46:19:
                    73:dd:db:31:e7:77:1c:df:81:09:c5:8f:d4:61:bb:
                    e7:97:18:7d:4d:7e:c6:20:1b:e8:eb:8f:74:e9:6a:
                    be:3e:35:cc:e8:0a:9d:3c:94:28:62:08:ec:e0:01:
                    61:32:43:ec:c2:42:3e:e4:63:d4:75:a8:29:c8:1e:
                    40:cb:78:13:74:70:5d:47:11:67:db:9f:79:1c:82:
                    4f:82:fd:31:d4:14:fe:40:eb:27:cd:1d:e4:4b:c1:
                    68:8d:fc:b3:b7:2c:1b:17:fa:6c:5e:00:d8:f2:10:
                    93:e9:b4:6a:a8:40:c5:98:6d:47:c2:b7:a3:e4:c5:
                    4f:a7:3d:d5:7f:27:9f:43:ec:5a:49:10:60:bc:dd:
                    bb:3a:5f:63:03:92:b0:a1:6c:e1:13:5d:6c:23:b7:
                    49:d8:3e:b7:5d:4c:49:81:a6:1f:2e:6a:f5:b7:e1:
                    13:0c:cd:e5:b9:75:55:cc:d5:9c:1b:ae:a0:19:8f:
                    b9:d5:24:b3:43:c0:5b:a0:70:29:6c:17:5f:88:ed:
                    19:42:15:a4:d7:af:2e:ec:ca:26:34:25:db:3b:91:
                    b6:21:78:89:26:42:db:e4:75:ec:f3:01:1a:6a:dc:
                    a9:7a:ab:10:3e:7d:17:7a:22:a6:8b:52:0b:e5:c7:
                    33:e2:df:17:cc:d2:f0:40:dd:d0:12:cd:2b:70:0d:
                    05:ea:1f:2b:6e:62:f9:0a:3f:8d:96:2d:ea:11:9b:
                    64:bb:ea:59:3a:12:36:30:65:62:2e:08:45:b1:6e:
                    d1:5e:96:a3:a7:2d:a6:84:e8:56:77:35:7c:1a:06:
                    71:8e:f8:fa:12:47:00:22:63:78:89:ba:66:78:28:
                    bd:2a:17:c2:83:f4:80:45:ab:42:d0:f4:e9:ac:b5:
                    a5:28:9c:bc:39:b6:f4:e8:07:66:02:81:34:25:cd:
                    5a:fb:42:56:ca:65:95:19:54:51:68:bc:28:99:0b:
                    e9:99:19:31:d8:83:4f:c3:97:74:ba:14:07:eb:81:
                    a5:11:07:57:5f:f4:fa:b6:dc:1b:39:b6:b3:30:91:
                    55:36:b3:70:0b:79:0c:15:f3:9e:0e:67:fa:c7:32:
                    81:ee:16:8c:7a:fd:28:82:5b:d7:77:8c:bb:cb:48:
                    fc:4e:74:d5:81:60:f1:9a:0e:bf:45:77:7a:9e:53:
                    62:92:f9:52:41:68:d4:bf:2c:41:e0:9d:07:91:55:
                    4b:5c:ae:18:e4:60:b0:aa:12:85:90:c5:7a:5b:41:
                    66:fe:1d
                Exponent: 65537 (0x10001)
        X509v3 extensions:
            Authority Information Access: 
                OCSP - URI:http://localhost:9080/

            X509v3 Authority Key Identifier: 
                keyid:26:D4:03:3C:3C:B5:5B:E7:4B:E4:50:C0:AF:81:AD:5B:B4:88:C8:01

            X509v3 Basic Constraints: critical
                CA:TRUE, pathlen:0
            X509v3 CRL Distribution Points: 

                Full Name:
                  URI:http://root-ca.Teleco.com/root-ca.crl

            X509v3 Extended Key Usage: 
                TLS Web Client Authentication, TLS Web Server Authentication
            X509v3 Key Usage: critical
                Certificate Sign, CRL Sign
            X509v3 Name Constraints: 
                Permitted:
                  DNS:example.com
                  DNS:example.org
                Excluded:
                  IP:0.0.0.0/0.0.0.0
                  IP:0:0:0:0:0:0:0:0/0:0:0:0:0:0:0:0

            X509v3 Subject Key Identifier: 
                74:91:20:66:C9:D8:96:15:36:55:EA:23:52:19:A5:C7:DE:8C:0B:1C
    Signature Algorithm: sha256WithRSAEncryption
         c5:69:3b:61:32:bd:ba:0a:7c:d7:7e:fc:c4:6c:5e:07:5d:c1:
         b0:41:5b:13:ce:4f:52:d9:98:6b:2f:05:ca:7a:1d:a3:cc:f1:
         e5:8b:73:3d:02:7a:77:57:17:de:10:0e:5e:8f:87:96:53:e3:
         c0:71:0c:bd:dc:b0:a6:74:2a:e5:82:65:9c:a1:7c:8b:eb:f3:
         f3:e2:25:96:2b:56:82:26:bf:65:19:f9:74:fe:9d:cd:8f:12:
         cd:02:91:68:75:8f:51:8b:0e:51:e4:66:78:3f:1a:34:67:24:
         22:d0:75:a1:86:cc:44:48:0f:e0:ff:2d:a3:7b:4e:1d:3b:e1:
         61:2c:8b:4d:53:79:25:5a:93:1e:a8:67:66:1e:00:53:3e:61:
         fa:27:38:15:d4:f4:e2:82:f8:36:ba:21:23:23:63:22:76:9f:
         31:74:17:d0:c2:4f:30:23:5b:bb:9c:31:fd:16:24:2e:e0:47:
         c9:28:92:fd:2b:a0:c6:50:c0:c4:ac:4b:75:f2:a4:d3:4e:b3:
         4e:4b:87:ca:8a:ed:5e:bc:34:99:6e:33:46:4f:53:14:93:b1:
         57:a9:df:fd:37:61:dd:25:0d:c7:ae:77:c4:7a:2c:cd:ad:1a:
         00:73:1d:8c:f2:06:f2:88:34:a2:dd:52:9c:b9:25:17:f3:cb:
         77:f1:68:24:6b:92:af:de:db:a0:e0:7e:6b:d5:63:2b:3a:d8:
         24:60:05:54:41:f9:ac:5c:50:73:47:28:d3:67:1c:76:d2:3a:
         10:79:cb:53:04:f3:23:ab:73:ff:d2:5b:36:d3:1c:9c:13:47:
         cd:f0:bb:3c:a1:d5:06:c9:fe:c5:aa:4f:75:e5:d6:fd:a7:12:
         4d:ad:99:9d:2a:78:a9:28:8c:4c:76:d2:ca:e2:3f:34:b3:38:
         a7:d5:99:8f:b2:3d:89:72:f7:10:73:d6:fa:d6:e3:14:4c:b2:
         44:3c:d7:d4:52:bc:f2:f1:7b:af:3c:97:ce:16:c6:d6:e6:e4:
         33:84:da:8b:94:50:a1:db:77:c0:e2:a9:1b:6c:dc:cc:55:f4:
         15:08:d2:2d:75:65:14:fb:0f:73:86:e1:c9:18:89:3a:bd:34:
         5f:4b:15:dc:59:d0:bf:b0:da:f4:d5:67:67:7e:e9:9a:03:d2:
         3e:ca:9a:e7:3d:d1:f5:0b:62:32:49:af:73:17:f3:ef:d7:0e:
         fd:79:1b:42:4a:12:0c:b0:2a:31:9e:65:e1:00:47:d7:e8:0a:
         05:10:06:d5:91:f1:5a:af:b1:46:69:da:39:b7:21:71:37:6c:
         c9:07:2a:a5:45:6a:5b:8a:70:4a:8c:48:ce:1a:71:54:73:b8:
         68:6a:ea:d0:43:59:c8:59
-----BEGIN CERTIFICATE-----
MIIGPjCCBCagAwIBAgIQCRzw7wO+Q/pg5k5IOJLxOzANBgkqhkiG9w0BAQsFADAw
MQswCQYDVQQGEwJFUzEPMA0GA1UECgwGVGVsZWNvMRAwDgYDVQQDDAdSb290IENB
MB4XDTIzMDQwNDA5MjgwNFoXDTMzMDQwMTA5MjgwNFowMjELMAkGA1UEBhMCRVMx
DzANBgNVBAoMBlRlbGVjbzESMBAGA1UEAwwJQ2xpZW50IENBMIICIjANBgkqhkiG
9w0BAQEFAAOCAg8AMIICCgKCAgEA/wzfoKjUhjzbRqXmLZfrOT+pvWa7EVKR69td
aCIxvymrZeDgrPMBK16TRhlz3dsx53cc34EJxY/UYbvnlxh9TX7GIBvo64906Wq+
PjXM6AqdPJQoYgjs4AFhMkPswkI+5GPUdagpyB5Ay3gTdHBdRxFn2595HIJPgv0x
1BT+QOsnzR3kS8FojfyztywbF/psXgDY8hCT6bRqqEDFmG1Hwrej5MVPpz3Vfyef
Q+xaSRBgvN27Ol9jA5KwoWzhE11sI7dJ2D63XUxJgaYfLmr1t+ETDM3luXVVzNWc
G66gGY+51SSzQ8BboHApbBdfiO0ZQhWk168u7MomNCXbO5G2IXiJJkLb5HXs8wEa
atypeqsQPn0XeiKmi1IL5ccz4t8XzNLwQN3QEs0rcA0F6h8rbmL5Cj+Nli3qEZtk
u+pZOhI2MGViLghFsW7RXpajpy2mhOhWdzV8GgZxjvj6EkcAImN4ibpmeCi9KhfC
g/SARatC0PTprLWlKJy8Obb06AdmAoE0Jc1a+0JWymWVGVRRaLwomQvpmRkx2INP
w5d0uhQH64GlEQdXX/T6ttwbObazMJFVNrNwC3kMFfOeDmf6xzKB7haMev0oglvX
d4y7y0j8TnTVgWDxmg6/RXd6nlNikvlSQWjUvyxB4J0HkVVLXK4Y5GCwqhKFkMV6
W0Fm/h0CAwEAAaOCAVAwggFMMDIGCCsGAQUFBwEBBCYwJDAiBggrBgEFBQcwAYYW
aHR0cDovL2xvY2FsaG9zdDo5MDgwLzAfBgNVHSMEGDAWgBQm1AM8PLVb50vkUMCv
ga1btIjIATASBgNVHRMBAf8ECDAGAQH/AgEAMDYGA1UdHwQvMC0wK6ApoCeGJWh0
dHA6Ly9yb290LWNhLlRlbGVjby5jb20vcm9vdC1jYS5jcmwwHQYDVR0lBBYwFAYI
KwYBBQUHAwIGCCsGAQUFBwMBMA4GA1UdDwEB/wQEAwIBBjBbBgNVHR4EVDBSoB4w
DYILZXhhbXBsZS5jb20wDYILZXhhbXBsZS5vcmehMDAKhwgAAAAAAAAAADAihyAA
AAAAAAAAAAAAAAAAAAAAAAAAAAAAAAAAAAAAAAAAADAdBgNVHQ4EFgQUdJEgZsnY
lhU2VeojUhmlx96MCxwwDQYJKoZIhvcNAQELBQADggIBAMVpO2EyvboKfNd+/MRs
XgddwbBBWxPOT1LZmGsvBcp6HaPM8eWLcz0CendXF94QDl6Ph5ZT48BxDL3csKZ0
KuWCZZyhfIvr8/PiJZYrVoImv2UZ+XT+nc2PEs0CkWh1j1GLDlHkZng/GjRnJCLQ
daGGzERID+D/LaN7Th074WEsi01TeSVakx6oZ2YeAFM+YfonOBXU9OKC+Da6ISMj
YyJ2nzF0F9DCTzAjW7ucMf0WJC7gR8kokv0roMZQwMSsS3XypNNOs05Lh8qK7V68
NJluM0ZPUxSTsVep3/03Yd0lDceud8R6LM2tGgBzHYzyBvKINKLdUpy5JRfzy3fx
aCRrkq/e26DgfmvVYys62CRgBVRB+axcUHNHKNNnHHbSOhB5y1ME8yOrc//SWzbT
HJwTR83wuzyh1QbJ/sWqT3Xl1v2nEk2tmZ0qeKkojEx20sriPzSzOKfVmY+yPYly
9xBz1vrW4xRMskQ819RSvPLxe688l84Wxtbm5DOE2ouUUKHbd8DiqRts3MxV9BUI
0i11ZRT7D3OG4ckYiTq9NF9LFdxZ0L+w2vTVZ2d+6ZoD0j7Kmuc90fULYjJJr3MX
8+/XDv15G0JKEgywKjGeZeEAR9foCgUQBtWR8VqvsUZp2jm3IXE3bMkHKqVFaluK
cEqMSM4acVRzuGhq6tBDWchZ
-----END CERTIFICATE-----
