Certificate:
    Data:
        Version: 3 (0x2)
        Serial Number:
            09:1c:f0:ef:03:be:43:fa:60:e6:4e:48:38:92:f1:57
        Signature Algorithm: sha256WithRSAEncryption
        Issuer: C=ES, O=Teleco, CN=Root CA
        Validity
            Not Before: Apr  6 10:35:02 2023 GMT
            Not After : Apr  3 10:35:02 2033 GMT
        Subject: C=ES, O=Teleco, CN=servertls13
        Subject Public Key Info:
            Public Key Algorithm: rsaEncryption
                RSA Public-Key: (2048 bit)
                Modulus:
                    00:8b:1f:7b:ff:ad:26:22:af:fb:b9:0a:5f:d2:bd:
                    bb:db:70:71:e9:ad:60:1c:d6:95:f4:60:5b:1d:d9:
                    b4:75:3f:1d:cf:a6:d4:4d:3c:b2:58:d7:df:03:1f:
                    60:6c:b4:c2:d8:3f:84:6d:a9:f7:56:bd:8f:8a:52:
                    3a:51:f7:a5:c2:42:80:80:7e:fa:39:fb:43:a6:a1:
                    c6:c8:b4:2e:ed:cd:b7:17:f3:f4:c0:ca:e9:7f:e3:
                    25:e9:16:cf:c4:2b:69:6c:b8:90:ea:cd:f9:cd:f7:
                    94:ad:15:13:93:f0:36:76:d9:b0:43:aa:66:f6:bf:
                    92:86:8a:cd:76:93:9a:e5:5c:fa:f4:b0:5f:13:d0:
                    03:4f:6b:c0:13:d0:08:a6:fd:7e:cc:4f:4b:0d:9f:
                    93:a7:5a:cb:19:96:57:c6:b6:08:ce:91:82:b1:6b:
                    d7:ec:84:8c:59:91:a3:8c:83:9b:c9:7c:b3:e6:15:
                    2d:e0:90:90:22:70:0c:99:da:c9:c9:90:4a:3a:eb:
                    86:3d:7f:c0:b9:8c:89:ef:f9:a0:e9:02:a9:fc:66:
                    0b:23:53:9c:90:46:45:ec:5a:4d:c9:9f:10:01:31:
                    33:79:18:51:d1:0d:bb:55:42:e6:4f:64:f1:4a:0e:
                    96:4c:1b:1c:5e:58:fe:fb:75:d2:30:02:29:60:80:
                    8b:3b
                Exponent: 65537 (0x10001)
        X509v3 extensions:
            Authority Information Access: 
                CA Issuers - URI:http://root-ca.Teleco.com/root-ca.crt
                OCSP - URI:http://ocsp.root-ca.Teleco.com:9080

            X509v3 Authority Key Identifier: 
                keyid:4F:5C:C0:E0:D3:03:4E:BD:A5:8D:EB:EA:23:DD:29:41:92:E9:2E:AB

            X509v3 Basic Constraints: critical
                CA:FALSE
            X509v3 CRL Distribution Points: 

                Full Name:
                  URI:http://root-ca.Teleco.com/root-ca.crl

            X509v3 Extended Key Usage: 
                TLS Web Client Authentication, TLS Web Server Authentication
            X509v3 Key Usage: critical
                Digital Signature, Key Encipherment
            X509v3 Subject Key Identifier: 
                B8:14:D7:E0:B3:AE:3D:5D:90:92:10:57:1A:5C:0A:7F:7E:1B:85:D7
    Signature Algorithm: sha256WithRSAEncryption
         43:b9:6e:84:c2:b7:4a:a7:70:70:18:0c:cb:c3:ef:95:33:6f:
         72:ad:cb:57:74:ad:a0:2b:77:60:71:9c:7f:19:f0:59:0b:e6:
         97:38:aa:42:ec:14:e5:86:4a:b8:d1:74:e2:e0:cd:5f:a4:64:
         e3:42:58:7b:f9:9e:5d:37:ef:e1:71:23:27:e6:7c:fa:b6:a5:
         84:d9:d4:62:bc:1d:90:39:7c:a4:5a:fc:2e:56:6a:de:7c:9d:
         7e:ae:b4:8c:ba:dc:a8:f3:46:0c:d6:16:b1:e7:50:c4:f1:8a:
         3c:a5:e3:ae:47:58:ff:04:33:cc:a5:2f:07:e0:90:57:1e:dd:
         5e:ed:f2:31:da:fd:81:57:21:bd:90:bf:56:c9:62:02:fc:1e:
         9d:07:6e:6b:a1:1d:c7:95:7c:dd:65:ef:82:6e:b2:40:aa:b8:
         4d:67:4e:51:2e:d4:fa:fb:20:31:d7:8e:cb:33:d0:15:72:85:
         14:dc:0a:47:84:8b:63:d4:5e:70:b8:06:36:19:a9:71:c8:3e:
         68:19:6f:65:80:6c:d4:7d:d9:50:26:da:1f:19:99:78:3c:7b:
         1d:3d:62:7e:8e:b4:4e:9d:ec:7e:91:54:08:fa:b5:b6:df:59:
         d7:25:75:65:2d:24:20:e5:21:4c:46:0d:d8:08:ed:d8:b8:c5:
         c5:18:31:6e:d3:d7:77:ec:83:e2:fc:0f:b4:91:c1:44:e0:3c:
         1d:c1:23:97:35:c4:e8:15:d1:77:05:94:ae:b0:ed:3a:b4:37:
         05:7a:35:05:f2:e6:99:39:f6:0e:97:a2:e2:2d:5f:d7:23:2f:
         85:ed:15:69:83:7d:a3:f9:9d:1c:46:36:72:92:06:ab:85:4e:
         ae:2e:8d:6c:be:76:5e:0b:a3:1a:07:53:f2:b0:7d:54:54:91:
         ed:be:42:22:95:cc:6e:c1:37:98:ce:e3:1a:0f:0a:88:d6:fe:
         78:ba:a2:ee:40:ac:12:0e:fa:50:9e:c3:37:0d:92:0d:17:98:
         a1:ce:da:be:f2:08:36:2b:99:6c:b2:c4:4e:bc:57:be:e2:95:
         07:62:e1:17:16:a7:08:84:fa:28:d0:8b:21:53:53:ae:f3:7a:
         63:e8:4d:cf:1c:a3:1e:60:58:45:a2:e6:4c:bd:b1:0a:8d:59:
         50:10:14:a5:ba:b6:a6:ed:db:0f:71:ba:7c:64:fd:eb:22:16:
         7f:0f:15:f5:18:62:86:56:56:15:df:90:0e:ad:95:ba:8a:09:
         7c:e0:ea:f5:f4:14:3d:ed:4f:bf:08:0f:e1:db:5d:b3:5d:a9:
         0a:6d:88:d6:a5:c4:54:09:4a:fc:cd:b2:eb:e9:d9:b7:d4:c4:
         4f:bc:8c:79:6c:90:e1:9e
-----BEGIN CERTIFICATE-----
MIIFHTCCAwWgAwIBAgIQCRzw7wO+Q/pg5k5IOJLxVzANBgkqhkiG9w0BAQsFADAw
MQswCQYDVQQGEwJFUzEPMA0GA1UECgwGVGVsZWNvMRAwDgYDVQQDDAdSb290IENB
MB4XDTIzMDQwNjEwMzUwMloXDTMzMDQwMzEwMzUwMlowNDELMAkGA1UEBhMCRVMx
DzANBgNVBAoMBlRlbGVjbzEUMBIGA1UEAwwLc2VydmVydGxzMTMwggEiMA0GCSqG
SIb3DQEBAQUAA4IBDwAwggEKAoIBAQCLH3v/rSYir/u5Cl/SvbvbcHHprWAc1pX0
YFsd2bR1Px3PptRNPLJY198DH2BstMLYP4RtqfdWvY+KUjpR96XCQoCAfvo5+0Om
ocbItC7tzbcX8/TAyul/4yXpFs/EK2lsuJDqzfnN95StFROT8DZ22bBDqmb2v5KG
is12k5rlXPr0sF8T0ANPa8AT0Aim/X7MT0sNn5OnWssZllfGtgjOkYKxa9fshIxZ
kaOMg5vJfLPmFS3gkJAicAyZ2snJkEo664Y9f8C5jInv+aDpAqn8ZgsjU5yQRkXs
Wk3JnxABMTN5GFHRDbtVQuZPZPFKDpZMGxxeWP77ddIwAilggIs7AgMBAAGjggEt
MIIBKTByBggrBgEFBQcBAQRmMGQwMQYIKwYBBQUHMAKGJWh0dHA6Ly9yb290LWNh
LlRlbGVjby5jb20vcm9vdC1jYS5jcnQwLwYIKwYBBQUHMAGGI2h0dHA6Ly9vY3Nw
LnJvb3QtY2EuVGVsZWNvLmNvbTo5MDgwMB8GA1UdIwQYMBaAFE9cwODTA069pY3r
6iPdKUGS6S6rMAwGA1UdEwEB/wQCMAAwNgYDVR0fBC8wLTAroCmgJ4YlaHR0cDov
L3Jvb3QtY2EuVGVsZWNvLmNvbS9yb290LWNhLmNybDAdBgNVHSUEFjAUBggrBgEF
BQcDAgYIKwYBBQUHAwEwDgYDVR0PAQH/BAQDAgWgMB0GA1UdDgQWBBS4FNfgs649
XZCSEFcaXAp/fhuF1zANBgkqhkiG9w0BAQsFAAOCAgEAQ7luhMK3SqdwcBgMy8Pv
lTNvcq3LV3StoCt3YHGcfxnwWQvmlziqQuwU5YZKuNF04uDNX6Rk40JYe/meXTfv
4XEjJ+Z8+ralhNnUYrwdkDl8pFr8LlZq3nydfq60jLrcqPNGDNYWsedQxPGKPKXj
rkdY/wQzzKUvB+CQVx7dXu3yMdr9gVchvZC/VsliAvwenQdua6Edx5V83WXvgm6y
QKq4TWdOUS7U+vsgMdeOyzPQFXKFFNwKR4SLY9RecLgGNhmpccg+aBlvZYBs1H3Z
UCbaHxmZeDx7HT1ifo60Tp3sfpFUCPq1tt9Z1yV1ZS0kIOUhTEYN2Ajt2LjFxRgx
btPXd+yD4vwPtJHBROA8HcEjlzXE6BXRdwWUrrDtOrQ3BXo1BfLmmTn2Dpei4i1f
1yMvhe0VaYN9o/mdHEY2cpIGq4VOri6NbL52XgujGgdT8rB9VFSR7b5CIpXMbsE3
mM7jGg8KiNb+eLqi7kCsEg76UJ7DNw2SDReYoc7avvIINiuZbLLETrxXvuKVB2Lh
FxanCIT6KNCLIVNTrvN6Y+hNzxyjHmBYRaLmTL2xCo1ZUBAUpbq2pu3bD3G6fGT9
6yIWfw8V9RhihlZWFd+QDq2VuooJfODq9fQUPe1PvwgP4dtds12pCm2I1qXEVAlK
/M2y6+nZt9TET7yMeWyQ4Z4=
-----END CERTIFICATE-----
