Certificate:
    Data:
        Version: 3 (0x2)
        Serial Number:
            09:1c:f0:ef:03:be:43:fa:60:e6:4e:48:38:92:f1:41
        Signature Algorithm: sha256WithRSAEncryption
        Issuer: C=ES, O=Teleco, CN=Root CA
        Validity
            Not Before: Apr  4 15:09:40 2023 GMT
            Not After : Apr  3 15:09:40 2024 GMT
        Subject: C=ES, O=Teleco, CN=OCSP Responder
        Subject Public Key Info:
            Public Key Algorithm: rsaEncryption
                RSA Public-Key: (2048 bit)
                Modulus:
                    00:b9:6f:86:e1:a9:72:0f:95:20:ca:2c:8d:74:cd:
                    53:cf:62:36:9e:0e:1b:6a:65:e3:aa:51:69:2e:c3:
                    54:5a:36:7b:3b:1d:95:e7:61:ec:13:32:f8:6b:68:
                    c9:98:1c:c9:7d:ab:14:a0:99:db:83:b3:67:24:4b:
                    38:ce:6e:0c:c6:4a:25:4e:21:db:9f:44:31:32:ff:
                    c8:ad:95:1d:bc:39:9b:64:b9:7c:f5:2b:9f:fa:91:
                    dd:75:a6:74:95:da:0c:59:b5:a8:f8:d8:bb:25:f4:
                    d5:51:cc:fc:0e:2e:d1:81:41:1e:3f:97:23:c3:54:
                    4f:37:f0:45:71:f6:bc:4a:f2:bc:ab:b2:f4:c4:20:
                    ce:d5:66:a0:64:a9:83:de:7b:2c:3b:14:21:89:07:
                    62:c8:82:6b:c8:5b:95:cf:f2:04:b3:0b:34:b1:00:
                    15:5f:14:04:f6:4a:a9:72:04:54:69:0c:f2:19:e7:
                    f7:29:8f:22:07:f2:17:e3:ee:df:7f:58:62:3f:09:
                    58:49:8b:0e:1b:50:85:b5:be:3b:2e:07:0d:8d:57:
                    51:91:69:72:85:bd:d4:1e:f7:58:25:df:5a:cd:02:
                    7f:c0:93:eb:6f:7e:40:c7:16:80:c9:0d:27:78:aa:
                    88:03:7f:5d:6d:d1:1d:08:b4:2d:49:40:63:31:af:
                    93:b1
                Exponent: 65537 (0x10001)
        X509v3 extensions:
            X509v3 Authority Key Identifier: 
                keyid:FF:49:E2:E4:B8:A1:21:F1:7A:6A:1A:B6:5A:40:C0:E3:E7:D6:D6:5E

            X509v3 Basic Constraints: critical
                CA:FALSE
            X509v3 Extended Key Usage: 
                OCSP Signing
            X509v3 Key Usage: critical
                Digital Signature
            X509v3 Subject Key Identifier: 
                A1:B8:E7:23:11:61:F7:99:92:F8:B8:36:FD:93:91:D8:3F:EB:66:70
    Signature Algorithm: sha256WithRSAEncryption
         e7:e6:fe:ba:a9:2b:bd:af:26:11:e2:f8:c4:15:a0:d4:41:aa:
         e8:31:cd:6e:3a:cc:44:5d:cf:ee:f1:9c:83:71:b8:9f:17:4b:
         f4:c6:c0:7e:4d:c6:2b:31:4e:7d:37:24:85:a0:91:1b:2f:6c:
         26:c1:73:1a:72:80:30:d5:1d:12:4f:e7:2f:ad:50:ee:59:15:
         20:6a:9d:71:35:fc:c9:38:63:0a:2d:a3:ef:76:94:2b:e4:bc:
         6f:69:44:5c:30:14:7b:fe:f8:d9:f2:b2:24:16:3e:f2:bc:2a:
         5c:ec:62:41:58:fc:69:57:ba:c2:9b:e5:15:86:b2:02:7b:90:
         ee:72:0e:24:ab:61:2f:35:32:dd:db:10:8e:f9:55:08:54:fc:
         53:66:fb:e0:c7:69:08:51:00:1d:48:f8:3c:50:9f:e5:a7:c3:
         df:36:46:ef:89:78:54:d0:96:c7:ef:5f:6a:f1:24:a6:07:fd:
         2a:07:4c:18:e6:3a:c2:2d:f0:aa:51:81:2e:88:89:89:19:6a:
         a1:95:85:38:5a:55:99:fc:5d:ea:53:fb:6a:1d:51:8d:ed:db:
         50:72:a7:52:46:e5:71:99:91:62:13:d9:5f:6b:df:12:10:8f:
         48:10:de:18:4a:f9:ad:1c:99:0d:e8:03:a4:f7:1b:e4:62:a7:
         68:66:51:96:84:00:a2:c7:85:dc:66:cf:91:05:f7:05:6d:88:
         b6:07:01:76:de:1f:cd:7b:c9:30:a1:e4:38:97:5d:51:72:33:
         e5:40:81:3c:16:56:96:7b:bc:43:48:d1:51:52:83:ea:ec:ac:
         30:77:db:07:1e:b6:e9:9a:b8:e9:78:3c:8e:4c:52:2f:d7:ab:
         55:3c:f8:25:84:0f:f2:0b:b7:9d:ac:97:8f:a4:ea:c7:8c:e4:
         ea:24:8a:09:cf:3e:bb:19:39:3d:56:ef:c7:80:bd:ec:d0:5b:
         12:54:c7:68:af:01:69:1e:70:12:f4:60:b0:41:d7:d7:1a:f3:
         d8:c4:b6:01:94:4c:1b:c1:ec:f9:0b:89:0f:7a:2d:e6:7f:05:
         48:05:86:68:54:f9:b1:40:d9:27:45:e2:f6:73:b8:47:66:df:
         04:bb:e0:05:96:20:95:93:b3:24:3d:b3:1d:77:db:55:4d:22:
         3f:4d:44:19:b0:f4:1a:9d:27:ca:8c:4a:8b:60:49:74:88:c9:
         5a:15:eb:7b:20:93:f0:04:3e:8d:d7:6a:f2:66:b1:28:7b:fa:
         82:aa:6c:55:2f:06:06:1f:05:99:21:8d:23:0f:34:1d:33:c5:
         03:5b:91:4a:cf:fc:06:a5:29:36:51:d1:d4:f5:09:25:c1:6c:
         4b:7e:56:c4:95:0f:f2:28
-----BEGIN CERTIFICATE-----
MIIEZjCCAk6gAwIBAgIQCRzw7wO+Q/pg5k5IOJLxQTANBgkqhkiG9w0BAQsFADAw
MQswCQYDVQQGEwJFUzEPMA0GA1UECgwGVGVsZWNvMRAwDgYDVQQDDAdSb290IENB
MB4XDTIzMDQwNDE1MDk0MFoXDTI0MDQwMzE1MDk0MFowNzELMAkGA1UEBhMCRVMx
DzANBgNVBAoMBlRlbGVjbzEXMBUGA1UEAwwOT0NTUCBSZXNwb25kZXIwggEiMA0G
CSqGSIb3DQEBAQUAA4IBDwAwggEKAoIBAQC5b4bhqXIPlSDKLI10zVPPYjaeDhtq
ZeOqUWkuw1RaNns7HZXnYewTMvhraMmYHMl9qxSgmduDs2ckSzjObgzGSiVOIduf
RDEy/8itlR28OZtkuXz1K5/6kd11pnSV2gxZtaj42Lsl9NVRzPwOLtGBQR4/lyPD
VE838EVx9rxK8ryrsvTEIM7VZqBkqYPeeyw7FCGJB2LIgmvIW5XP8gSzCzSxABVf
FAT2SqlyBFRpDPIZ5/cpjyIH8hfj7t9/WGI/CVhJiw4bUIW1vjsuBw2NV1GRaXKF
vdQe91gl31rNAn/Ak+tvfkDHFoDJDSd4qogDf11t0R0ItC1JQGMxr5OxAgMBAAGj
dTBzMB8GA1UdIwQYMBaAFP9J4uS4oSHxemoatlpAwOPn1tZeMAwGA1UdEwEB/wQC
MAAwEwYDVR0lBAwwCgYIKwYBBQUHAwkwDgYDVR0PAQH/BAQDAgeAMB0GA1UdDgQW
BBShuOcjEWH3mZL4uDb9k5HYP+tmcDANBgkqhkiG9w0BAQsFAAOCAgEA5+b+uqkr
va8mEeL4xBWg1EGq6DHNbjrMRF3P7vGcg3G4nxdL9MbAfk3GKzFOfTckhaCRGy9s
JsFzGnKAMNUdEk/nL61Q7lkVIGqdcTX8yThjCi2j73aUK+S8b2lEXDAUe/742fKy
JBY+8rwqXOxiQVj8aVe6wpvlFYayAnuQ7nIOJKthLzUy3dsQjvlVCFT8U2b74Mdp
CFEAHUj4PFCf5afD3zZG74l4VNCWx+9favEkpgf9KgdMGOY6wi3wqlGBLoiJiRlq
oZWFOFpVmfxd6lP7ah1Rje3bUHKnUkblcZmRYhPZX2vfEhCPSBDeGEr5rRyZDegD
pPcb5GKnaGZRloQAoseF3GbPkQX3BW2ItgcBdt4fzXvJMKHkOJddUXIz5UCBPBZW
lnu8Q0jRUVKD6uysMHfbBx626Zq46Xg8jkxSL9erVTz4JYQP8gu3nayXj6Tqx4zk
6iSKCc8+uxk5PVbvx4C97NBbElTHaK8BaR5wEvRgsEHX1xrz2MS2AZRMG8Hs+QuJ
D3ot5n8FSAWGaFT5sUDZJ0Xi9nO4R2bfBLvgBZYglZOzJD2zHXfbVU0iP01EGbD0
Gp0nyoxKi2BJdIjJWhXreyCT8AQ+jddq8maxKHv6gqpsVS8GBh8FmSGNIw80HTPF
A1uRSs/8BqUpNlHR1PUJJcFsS35WxJUP8ig=
-----END CERTIFICATE-----
