Certificate:
    Data:
        Version: 3 (0x2)
        Serial Number:
            09:1c:f0:ef:03:be:43:fa:60:e6:4e:48:38:92:f1:24
        Signature Algorithm: sha256WithRSAEncryption
        Issuer: C=ES, O=Teleco, CN=Root CA
        Validity
            Not Before: Mar 26 10:09:23 2023 GMT
            Not After : Mar 25 10:09:23 2024 GMT
        Subject: C=ES, O=Teleco, CN=OCSP-Responder
        Subject Public Key Info:
            Public Key Algorithm: rsaEncryption
                RSA Public-Key: (2048 bit)
                Modulus:
                    00:d3:12:ad:16:64:b9:30:1f:c8:6c:05:79:87:c3:
                    5b:f1:a3:de:9e:1b:29:19:25:12:c4:fc:bd:00:4a:
                    ff:8e:2b:b0:58:a9:74:e6:e2:99:16:e6:04:6c:77:
                    5c:1d:b3:00:7b:be:5b:64:94:d9:56:73:d8:61:56:
                    eb:c8:5e:a7:5c:9d:de:67:c5:ec:e5:6e:c8:f2:4d:
                    e0:a6:62:56:ed:f9:ef:60:6d:9e:4b:40:2d:18:d1:
                    40:ad:62:01:5b:66:f7:1c:91:c7:85:ec:90:0a:c9:
                    78:4e:cd:26:82:04:a0:9e:75:dc:70:7f:b6:44:6c:
                    c4:6d:ec:d2:8a:7d:cc:bd:95:19:eb:1f:dc:a7:90:
                    4f:39:f5:cf:7a:f7:b6:2c:5a:91:e3:13:36:d0:ab:
                    82:ad:dd:6b:b3:e4:af:f8:df:21:6a:58:2d:a1:3d:
                    52:46:32:f8:54:dd:6d:a6:f7:82:23:0d:91:98:ac:
                    0a:69:0c:37:87:9e:88:d9:ee:c4:12:9a:a0:b7:0d:
                    8f:8d:e1:c4:93:ca:1c:63:53:1d:af:7c:11:14:d5:
                    99:0b:8f:69:0c:f0:72:97:3b:4a:25:03:be:c7:22:
                    cb:e1:cf:6c:a7:7d:cd:94:6c:da:88:d9:28:b4:9b:
                    b2:77:c6:6c:47:6a:cf:f2:30:49:9d:14:3f:ae:84:
                    7d:37
                Exponent: 65537 (0x10001)
        X509v3 extensions:
            X509v3 Authority Key Identifier: 
                keyid:79:53:17:01:2C:1B:6D:A9:18:6B:39:35:DC:F7:B1:8B:13:4E:64:54

            X509v3 Basic Constraints: critical
                CA:FALSE
            X509v3 Extended Key Usage: 
                OCSP Signing
            X509v3 Key Usage: critical
                Digital Signature
            X509v3 Subject Key Identifier: 
                0D:47:7F:6B:FC:97:D5:FE:AD:4C:F9:E2:6E:82:FA:0C:FB:A7:3C:4D
    Signature Algorithm: sha256WithRSAEncryption
         29:6e:69:6b:5b:a0:3a:7e:8a:7c:da:93:f0:3f:f3:cb:bc:4e:
         79:c4:76:87:66:59:21:34:6b:10:9d:47:32:be:ce:8d:6d:32:
         4d:17:48:ee:1d:4f:93:da:ec:ad:50:83:3b:16:60:8e:b5:17:
         ef:12:ce:d6:6b:37:29:4c:fe:0c:6e:c3:25:6a:5d:9b:83:20:
         6f:1d:cb:7c:a3:5e:9f:b9:f1:9d:10:0f:ee:f2:fc:36:82:9b:
         99:2d:b9:d9:7f:55:03:14:ab:8b:1e:63:15:25:93:6f:02:61:
         d8:ab:10:c2:a3:b0:4a:8d:93:d4:06:20:72:22:e4:93:64:1f:
         80:5e:ff:91:a3:b3:b2:f5:61:73:42:d3:e0:53:89:ab:d0:a3:
         e8:81:46:7b:00:0a:f4:e8:db:8b:28:87:aa:cd:15:f5:07:7b:
         d9:0e:7c:ce:c3:ac:1a:45:cf:45:40:0f:15:3c:93:fc:b5:d6:
         dc:e9:44:0d:09:71:71:9b:00:c3:39:7d:4c:6f:e5:33:10:7d:
         93:80:05:73:9c:e5:78:ed:af:8f:e8:c8:cb:90:28:67:64:97:
         16:12:bc:6a:17:a2:18:db:70:02:02:a3:18:55:88:57:93:83:
         eb:e4:0c:da:0f:c5:44:07:af:39:9a:68:0f:5c:8b:3a:39:8d:
         ae:79:68:cc:4c:f8:6c:ff:13:bb:39:b5:a5:27:ec:b8:f9:47:
         e4:4d:a7:e4:e0:35:fb:60:61:10:79:9f:7f:9a:78:a7:4b:41:
         59:5f:18:4d:05:d3:b7:bd:66:b6:ba:a5:39:05:e0:63:60:b9:
         03:73:b9:3f:2e:59:bf:ff:f7:15:6b:80:fb:5e:e3:2c:3d:2b:
         6a:49:3e:e4:0f:e7:ec:3e:1a:e7:4c:9c:99:8d:1d:53:1b:69:
         d2:b9:92:5b:76:89:22:88:54:11:33:d7:37:55:20:d5:f0:eb:
         93:b6:f7:8e:3e:92:cf:18:26:87:a3:dc:be:2d:cb:4c:98:d7:
         48:b0:bf:7c:83:93:f9:7d:4f:8e:bd:4c:33:93:7b:aa:50:de:
         6d:45:77:3c:ec:a7:44:8d:35:26:44:69:c5:78:0e:8c:eb:79:
         fb:34:e0:4a:99:50:8b:0a:3e:72:77:cb:45:2c:e6:18:7f:d0:
         05:7e:7e:0a:74:af:a3:16:b3:ba:ec:b8:dc:f0:d9:92:2d:0b:
         c8:53:39:40:8d:ee:c5:af:01:74:42:46:9b:8d:81:69:9f:11:
         c0:b9:46:7a:ec:97:b6:a8:98:06:4c:22:9c:ea:4b:66:72:79:
         5c:cc:f0:0f:e6:89:36:fb:c9:74:a8:67:94:3c:f1:bf:89:e9:
         49:9e:60:a9:b6:0e:cb:00
-----BEGIN CERTIFICATE-----
MIIEZjCCAk6gAwIBAgIQCRzw7wO+Q/pg5k5IOJLxJDANBgkqhkiG9w0BAQsFADAw
MQswCQYDVQQGEwJFUzEPMA0GA1UECgwGVGVsZWNvMRAwDgYDVQQDDAdSb290IENB
MB4XDTIzMDMyNjEwMDkyM1oXDTI0MDMyNTEwMDkyM1owNzELMAkGA1UEBhMCRVMx
DzANBgNVBAoMBlRlbGVjbzEXMBUGA1UEAwwOT0NTUC1SZXNwb25kZXIwggEiMA0G
CSqGSIb3DQEBAQUAA4IBDwAwggEKAoIBAQDTEq0WZLkwH8hsBXmHw1vxo96eGykZ
JRLE/L0ASv+OK7BYqXTm4pkW5gRsd1wdswB7vltklNlWc9hhVuvIXqdcnd5nxezl
bsjyTeCmYlbt+e9gbZ5LQC0Y0UCtYgFbZvcckceF7JAKyXhOzSaCBKCeddxwf7ZE
bMRt7NKKfcy9lRnrH9ynkE859c9697YsWpHjEzbQq4Kt3Wuz5K/43yFqWC2hPVJG
MvhU3W2m94IjDZGYrAppDDeHnojZ7sQSmqC3DY+N4cSTyhxjUx2vfBEU1ZkLj2kM
8HKXO0olA77HIsvhz2ynfc2UbNqI2Si0m7J3xmxHas/yMEmdFD+uhH03AgMBAAGj
dTBzMB8GA1UdIwQYMBaAFHlTFwEsG22pGGs5Ndz3sYsTTmRUMAwGA1UdEwEB/wQC
MAAwEwYDVR0lBAwwCgYIKwYBBQUHAwkwDgYDVR0PAQH/BAQDAgeAMB0GA1UdDgQW
BBQNR39r/JfV/q1M+eJugvoM+6c8TTANBgkqhkiG9w0BAQsFAAOCAgEAKW5pa1ug
On6KfNqT8D/zy7xOecR2h2ZZITRrEJ1HMr7OjW0yTRdI7h1Pk9rsrVCDOxZgjrUX
7xLO1ms3KUz+DG7DJWpdm4Mgbx3LfKNen7nxnRAP7vL8NoKbmS252X9VAxSrix5j
FSWTbwJh2KsQwqOwSo2T1AYgciLkk2QfgF7/kaOzsvVhc0LT4FOJq9Cj6IFGewAK
9OjbiyiHqs0V9Qd72Q58zsOsGkXPRUAPFTyT/LXW3OlEDQlxcZsAwzl9TG/lMxB9
k4AFc5zleO2vj+jIy5AoZ2SXFhK8aheiGNtwAgKjGFWIV5OD6+QM2g/FRAevOZpo
D1yLOjmNrnlozEz4bP8Tuzm1pSfsuPlH5E2n5OA1+2BhEHmff5p4p0tBWV8YTQXT
t71mtrqlOQXgY2C5A3O5Py5Zv//3FWuA+17jLD0rakk+5A/n7D4a50ycmY0dUxtp
0rmSW3aJIohUETPXN1Ug1fDrk7b3jj6Szxgmh6Pcvi3LTJjXSLC/fIOT+X1Pjr1M
M5N7qlDebUV3POynRI01JkRpxXgOjOt5+zTgSplQiwo+cnfLRSzmGH/QBX5+CnSv
oxazuuy43PDZki0LyFM5QI3uxa8BdEJGm42BaZ8RwLlGeuyXtqiYBkwinOpLZnJ5
XMzwD+aJNvvJdKhnlDzxv4npSZ5gqbYOywA=
-----END CERTIFICATE-----
