Certificate:
    Data:
        Version: 3 (0x2)
        Serial Number:
            09:1c:f0:ef:03:be:43:fa:60:e6:4e:48:38:92:f1:36
        Signature Algorithm: sha256WithRSAEncryption
        Issuer: C=ES, O=Teleco, CN=Root CA
        Validity
            Not Before: Apr  3 22:02:55 2023 GMT
            Not After : Mar 31 22:02:55 2033 GMT
        Subject: C=ES, O=Teleco, CN=Root CA
        Subject Public Key Info:
            Public Key Algorithm: rsaEncryption
                RSA Public-Key: (4096 bit)
                Modulus:
                    00:b5:29:db:6f:04:f2:5f:35:34:c9:ee:47:3f:b2:
                    1f:89:d0:81:da:72:d0:b8:7a:d0:8d:6a:9d:9e:a6:
                    a2:1f:60:0b:b2:b6:4f:ae:a3:22:c7:9a:f3:a9:b9:
                    7b:c7:0c:1c:09:b6:03:5d:c3:6e:f8:a9:7e:a4:f5:
                    5b:3c:6e:0a:6c:60:27:f7:d3:33:e0:d9:41:cf:e2:
                    36:12:d5:ee:c7:65:12:77:a3:b7:12:e8:c4:77:3d:
                    9b:c4:7a:bf:d3:e2:85:a3:b0:6d:a2:1b:38:74:18:
                    81:f1:49:66:18:7d:95:77:bd:32:3e:0f:3f:20:94:
                    7e:b4:dd:d8:ac:40:bf:9a:6b:a6:08:e7:df:aa:93:
                    87:65:b5:73:3f:12:a9:c3:ab:97:be:f2:73:10:5c:
                    0f:6d:d5:c2:31:71:df:ff:86:0d:68:87:a0:52:25:
                    ee:1c:fd:21:9d:ad:a9:01:82:0f:fe:02:8d:f8:9b:
                    f8:b3:ef:66:20:cd:c1:b2:ee:3e:52:41:0b:57:6f:
                    1d:da:63:55:59:b3:38:14:d6:fc:17:72:69:ae:33:
                    ba:71:7f:58:75:b9:42:64:6b:71:26:e5:54:37:b1:
                    85:4d:65:8c:24:56:12:de:c0:0d:3a:29:e2:fb:6d:
                    c9:3c:2b:3b:8e:ad:c8:8b:49:c3:37:1a:5b:f7:52:
                    35:1b:b0:33:2d:a9:5e:23:e5:e0:3c:ed:30:88:ec:
                    04:fb:ba:c3:5d:3e:26:20:03:8e:4e:88:86:a0:0b:
                    a0:e4:1c:80:17:da:c5:01:db:05:e1:89:3d:aa:90:
                    01:1d:37:6e:6c:bc:39:73:58:54:00:0e:ed:11:29:
                    b4:5f:8a:5a:04:8a:e4:d3:84:69:12:02:d5:12:de:
                    5f:a3:eb:dc:53:57:a0:c9:82:7e:26:f7:a9:65:a4:
                    ad:f1:00:51:bd:9a:7d:d6:bb:52:b5:a4:79:1a:19:
                    fc:75:3a:aa:29:e6:36:a0:e0:6c:a3:db:23:9c:66:
                    e1:77:65:49:f8:9a:3a:81:fc:ea:96:cb:c7:0b:a4:
                    fa:98:d1:89:36:5e:c6:99:ee:98:a1:7e:31:8f:bf:
                    54:6f:25:82:10:db:6f:b4:d2:20:b5:c9:8e:61:45:
                    8a:73:42:ee:e9:4d:12:7a:b3:db:04:69:a7:07:cc:
                    da:0c:bf:6d:d0:d6:df:01:9d:0d:46:26:fd:44:e6:
                    f4:67:0b:aa:bf:a9:ac:60:5e:c0:6d:1e:cf:03:f3:
                    7d:42:55:50:22:de:32:3e:77:26:2a:22:f3:b6:db:
                    7b:8b:e4:3d:c3:58:9d:38:f6:9e:d8:91:eb:34:40:
                    02:95:2d:fa:00:e9:36:0c:0e:ce:46:70:72:07:05:
                    a4:ec:35
                Exponent: 65537 (0x10001)
        X509v3 extensions:
            Authority Information Access: 
                CA Issuers - URI:http://root-ca.Teleco.com/root-ca.crt
                OCSP - URI:http://ocsp.root-ca.Teleco.com:9080

            X509v3 Authority Key Identifier: 
                keyid:27:4E:9A:9C:1E:BC:88:77:BB:84:6A:38:8B:ED:DA:7E:1E:E5:46:42

            X509v3 Basic Constraints: critical
                CA:TRUE, pathlen:0
            X509v3 CRL Distribution Points: 

                Full Name:
                  URI:http://root-ca.Teleco.com/root-ca.crl

            X509v3 Extended Key Usage: 
                TLS Web Client Authentication, TLS Web Server Authentication
            X509v3 Key Usage: critical
                Certificate Sign, CRL Sign
            X509v3 Name Constraints: 
                Permitted:
                  DNS:example.com
                  DNS:example.org
                Excluded:
                  IP:0.0.0.0/0.0.0.0
                  IP:0:0:0:0:0:0:0:0/0:0:0:0:0:0:0:0

            X509v3 Subject Key Identifier: 
                6A:C5:09:03:F1:F0:1A:3F:E9:3A:ED:37:EB:E7:B7:A9:3F:6D:51:81
    Signature Algorithm: sha256WithRSAEncryption
         30:3b:fa:ee:03:1a:75:81:bb:70:ec:7c:45:c9:0e:b4:6b:09:
         f3:4d:cf:d5:15:55:3e:0e:03:bf:b6:8a:b4:1a:d4:ec:cc:6b:
         aa:3b:b0:23:53:b5:08:9e:a1:49:34:eb:4a:33:46:d6:a6:19:
         61:05:b6:31:a8:8e:d5:1f:38:48:60:20:88:e9:16:24:80:1c:
         0d:9f:74:4e:7a:59:5e:29:f7:df:b8:bc:2a:ff:05:e6:74:6e:
         7d:04:04:a0:11:1e:9d:7a:fe:a1:cd:c6:03:66:9d:b9:ea:ec:
         5f:9c:a0:2c:68:07:90:19:78:bd:7d:6e:11:b9:d6:c2:6f:37:
         dd:39:4a:1c:76:e2:3d:cf:35:48:d5:64:9e:bf:72:41:44:f4:
         b2:fc:c2:44:be:69:de:e7:69:cf:df:5e:aa:80:56:a5:3d:86:
         4d:6f:e0:ff:a0:a0:92:43:52:ee:15:a1:0b:fa:6c:cb:f9:fe:
         d0:75:77:d7:47:e8:91:76:66:2f:94:51:b9:b5:d6:46:f3:58:
         1b:3f:49:ec:3f:f1:aa:bc:f8:ba:f2:30:da:ec:80:9f:5c:1a:
         b4:f0:6f:c5:f4:b0:89:a3:b0:16:7b:06:40:3b:81:7c:40:cc:
         7a:1f:a9:7b:21:72:a2:bb:91:7e:af:48:cd:19:87:60:b9:a2:
         2d:8b:95:38:8e:c1:b5:8a:d3:81:4f:7d:91:4d:98:0e:70:a1:
         4f:f8:a0:d3:d0:28:44:a2:fc:3d:6a:0d:86:3d:b0:b0:15:c5:
         e2:d7:9e:eb:a9:63:a1:04:d5:b6:a0:0c:74:1f:03:4c:85:a7:
         44:63:05:6c:fc:f5:f2:58:97:fe:6c:65:64:2f:c0:46:37:ea:
         33:11:e0:45:a9:1b:b5:59:94:9a:3d:0e:8e:46:b4:6a:7b:cc:
         d9:6e:35:79:61:0a:e4:93:a6:64:e3:fe:2c:8f:3b:86:6d:00:
         6d:e2:dd:db:c6:d6:c6:fa:59:6d:f4:46:41:99:a5:38:71:f4:
         cb:cc:04:c9:b3:bf:c1:b6:08:48:38:bc:82:af:78:5a:9e:35:
         74:8f:e4:42:0b:5d:16:fb:c3:7e:6b:84:2e:3f:e3:9c:e2:43:
         dd:4a:97:1f:fa:05:e3:35:97:f5:a6:c9:67:04:fa:45:76:d6:
         6d:b0:7c:1e:45:ac:20:f6:c1:8c:a7:9d:3a:f4:f4:82:0e:2f:
         f7:3b:27:a8:dc:33:18:dd:ce:81:a0:6d:c9:4d:5d:bb:ed:05:
         9a:aa:b2:2a:dd:6b:01:3f:2f:f7:ad:64:35:4b:f2:c2:74:61:
         43:81:2b:ba:7c:27:02:2a:81:de:79:ca:da:2b:fe:58:0c:5a:
         de:b8:a7:50:93:e2:76:a6
-----BEGIN CERTIFICATE-----
MIIGfDCCBGSgAwIBAgIQCRzw7wO+Q/pg5k5IOJLxNjANBgkqhkiG9w0BAQsFADAw
MQswCQYDVQQGEwJFUzEPMA0GA1UECgwGVGVsZWNvMRAwDgYDVQQDDAdSb290IENB
MB4XDTIzMDQwMzIyMDI1NVoXDTMzMDMzMTIyMDI1NVowMDELMAkGA1UEBhMCRVMx
DzANBgNVBAoMBlRlbGVjbzEQMA4GA1UEAwwHUm9vdCBDQTCCAiIwDQYJKoZIhvcN
AQEBBQADggIPADCCAgoCggIBALUp228E8l81NMnuRz+yH4nQgdpy0Lh60I1qnZ6m
oh9gC7K2T66jIsea86m5e8cMHAm2A13DbvipfqT1WzxuCmxgJ/fTM+DZQc/iNhLV
7sdlEnejtxLoxHc9m8R6v9PihaOwbaIbOHQYgfFJZhh9lXe9Mj4PPyCUfrTd2KxA
v5prpgjn36qTh2W1cz8SqcOrl77ycxBcD23VwjFx3/+GDWiHoFIl7hz9IZ2tqQGC
D/4Cjfib+LPvZiDNwbLuPlJBC1dvHdpjVVmzOBTW/Bdyaa4zunF/WHW5QmRrcSbl
VDexhU1ljCRWEt7ADTop4vttyTwrO46tyItJwzcaW/dSNRuwMy2pXiPl4DztMIjs
BPu6w10+JiADjk6IhqALoOQcgBfaxQHbBeGJPaqQAR03bmy8OXNYVAAO7REptF+K
WgSK5NOEaRIC1RLeX6Pr3FNXoMmCfib3qWWkrfEAUb2afda7UrWkeRoZ/HU6qinm
NqDgbKPbI5xm4XdlSfiaOoH86pbLxwuk+pjRiTZexpnumKF+MY+/VG8lghDbb7TS
ILXJjmFFinNC7ulNEnqz2wRppwfM2gy/bdDW3wGdDUYm/UTm9GcLqr+prGBewG0e
zwPzfUJVUCLeMj53Jioi87bbe4vkPcNYnTj2ntiR6zRAApUt+gDpNgwOzkZwcgcF
pOw1AgMBAAGjggGQMIIBjDByBggrBgEFBQcBAQRmMGQwMQYIKwYBBQUHMAKGJWh0
dHA6Ly9yb290LWNhLlRlbGVjby5jb20vcm9vdC1jYS5jcnQwLwYIKwYBBQUHMAGG
I2h0dHA6Ly9vY3NwLnJvb3QtY2EuVGVsZWNvLmNvbTo5MDgwMB8GA1UdIwQYMBaA
FCdOmpwevIh3u4RqOIvt2n4e5UZCMBIGA1UdEwEB/wQIMAYBAf8CAQAwNgYDVR0f
BC8wLTAroCmgJ4YlaHR0cDovL3Jvb3QtY2EuVGVsZWNvLmNvbS9yb290LWNhLmNy
bDAdBgNVHSUEFjAUBggrBgEFBQcDAgYIKwYBBQUHAwEwDgYDVR0PAQH/BAQDAgEG
MFsGA1UdHgRUMFKgHjANggtleGFtcGxlLmNvbTANggtleGFtcGxlLm9yZ6EwMAqH
CAAAAAAAAAAAMCKHIAAAAAAAAAAAAAAAAAAAAAAAAAAAAAAAAAAAAAAAAAAAMB0G
A1UdDgQWBBRqxQkD8fAaP+k67Tfr57epP21RgTANBgkqhkiG9w0BAQsFAAOCAgEA
MDv67gMadYG7cOx8RckOtGsJ803P1RVVPg4Dv7aKtBrU7MxrqjuwI1O1CJ6hSTTr
SjNG1qYZYQW2MaiO1R84SGAgiOkWJIAcDZ90TnpZXin337i8Kv8F5nRufQQEoBEe
nXr+oc3GA2aduersX5ygLGgHkBl4vX1uEbnWwm833TlKHHbiPc81SNVknr9yQUT0
svzCRL5p3udpz99eqoBWpT2GTW/g/6CgkkNS7hWhC/psy/n+0HV310fokXZmL5RR
ubXWRvNYGz9J7D/xqrz4uvIw2uyAn1watPBvxfSwiaOwFnsGQDuBfEDMeh+peyFy
oruRfq9IzRmHYLmiLYuVOI7BtYrTgU99kU2YDnChT/ig09AoRKL8PWoNhj2wsBXF
4tee66ljoQTVtqAMdB8DTIWnRGMFbPz18liX/mxlZC/ARjfqMxHgRakbtVmUmj0O
jka0anvM2W41eWEK5JOmZOP+LI87hm0AbeLd28bWxvpZbfRGQZmlOHH0y8wEybO/
wbYISDi8gq94Wp41dI/kQgtdFvvDfmuELj/jnOJD3UqXH/oF4zWX9abJZwT6RXbW
bbB8HkWsIPbBjKedOvT0gg4v9zsnqNwzGN3OgaBtyU1du+0FmqqyKt1rAT8v961k
NUvywnRhQ4ErunwnAiqB3nnK2iv+WAxa3rinUJPidqY=
-----END CERTIFICATE-----
