Certificate:
    Data:
        Version: 3 (0x2)
        Serial Number:
            09:1c:f0:ef:03:be:43:fa:60:e6:4e:48:38:92:f1:32
        Signature Algorithm: sha256WithRSAEncryption
        Issuer: C=ES, O=Teleco, CN=Root CA
        Validity
            Not Before: Apr  3 16:11:30 2023 GMT
            Not After : Mar 31 16:11:30 2033 GMT
        Subject: C=ES, O=Teleco, CN=Client CA
        Subject Public Key Info:
            Public Key Algorithm: rsaEncryption
                RSA Public-Key: (4096 bit)
                Modulus:
                    00:e2:ef:d1:9f:d3:8a:43:2b:bf:49:79:a9:f1:3c:
                    be:0a:9b:a1:38:f2:f5:81:c1:12:79:92:05:c6:6b:
                    96:b1:fc:90:ce:8b:d3:2f:e4:ee:26:da:d0:09:42:
                    b9:4b:d9:88:81:55:c6:e3:5f:d9:20:d3:d8:9e:28:
                    b5:91:5f:f8:ba:d8:5b:33:71:cd:97:01:7d:26:ac:
                    7c:79:e1:de:77:7f:2a:55:cb:ae:84:3e:e1:d5:8f:
                    ae:26:f8:84:30:39:c7:18:0f:d7:8a:d1:9a:82:00:
                    5c:f8:76:9d:e4:4f:b1:a4:d2:bd:db:d5:14:9a:d8:
                    ff:52:26:ac:0a:56:3b:1d:ae:48:96:71:11:22:6e:
                    e5:b6:13:0a:50:e7:39:da:78:57:11:ba:b9:d9:5e:
                    0e:cd:7c:67:37:7a:78:18:85:cb:5f:f9:c5:94:96:
                    73:76:5f:67:c4:69:b2:62:8c:ab:77:22:24:c1:7d:
                    58:79:09:e1:3f:1e:0d:16:50:ea:21:84:a1:12:f5:
                    98:52:47:61:b7:e1:b5:4c:12:25:7f:c3:af:c1:e7:
                    ee:e2:e6:ab:d3:66:68:1b:6c:dd:84:e6:d7:17:e6:
                    82:71:3b:d8:30:7e:e1:00:39:3d:4c:e1:96:0a:8c:
                    7a:1d:f8:bc:61:f3:bb:da:92:2d:3e:4a:5a:fa:18:
                    15:fb:46:f1:56:4f:15:07:2d:1b:93:d7:9d:79:af:
                    ec:bb:20:e1:af:2e:1d:32:1b:9a:60:50:87:9d:2a:
                    e2:ab:1e:3e:8b:e3:d2:c4:27:37:bd:0b:ec:3f:cf:
                    df:2d:e2:30:c4:11:43:37:3e:36:33:1a:49:11:21:
                    83:a8:78:29:b9:18:b1:4f:9b:a2:de:8b:36:25:07:
                    73:ab:6f:e7:0f:e3:d7:a9:0f:45:fc:c2:9a:db:e8:
                    e7:60:3b:cf:14:15:03:f0:a0:d8:79:d1:12:f2:6f:
                    d2:30:b3:f3:6a:c7:0b:7d:2b:4f:35:c9:c3:ec:5d:
                    35:2d:fb:da:be:e5:c0:f6:2b:d1:60:64:3d:8f:df:
                    de:3c:01:e1:3d:ce:9f:05:43:63:09:8c:bc:e2:a2:
                    4f:57:bd:bf:9d:7c:47:0c:cc:7c:3a:9d:4b:c5:50:
                    22:0f:ba:62:7b:00:3b:ce:fe:68:53:f6:38:11:e5:
                    8f:a7:2c:9d:82:e8:61:de:9d:36:9b:5e:ea:01:1d:
                    99:31:7e:2f:cd:10:f1:d0:0c:0a:33:5c:f4:30:d4:
                    c9:0c:e9:22:17:77:bc:16:02:4f:fe:80:fc:8b:dd:
                    fd:84:35:f9:5f:3d:a3:4a:6f:9c:c8:42:df:33:b2:
                    4c:f3:68:ac:0a:a6:d7:d7:a5:b8:af:84:c0:aa:37:
                    0d:8a:d5
                Exponent: 65537 (0x10001)
        X509v3 extensions:
            Authority Information Access: 
                OCSP - URI:http://localhost:9080/

            X509v3 Authority Key Identifier: 
                keyid:8A:F1:16:09:2A:B1:57:D6:A1:B9:1E:BA:5F:5F:E6:81:DA:98:B4:F9

            X509v3 Basic Constraints: critical
                CA:TRUE, pathlen:0
            X509v3 CRL Distribution Points: 

                Full Name:
                  URI:http://root-ca.Teleco.com/root-ca.crl

            X509v3 Extended Key Usage: 
                TLS Web Client Authentication, TLS Web Server Authentication
            X509v3 Key Usage: critical
                Certificate Sign, CRL Sign
            X509v3 Name Constraints: 
                Permitted:
                  DNS:example.com
                  DNS:example.org
                Excluded:
                  IP:0.0.0.0/0.0.0.0
                  IP:0:0:0:0:0:0:0:0/0:0:0:0:0:0:0:0

            X509v3 Subject Key Identifier: 
                61:DD:A0:7D:1E:91:5B:2B:B1:0C:21:30:0A:8C:40:34:C1:D6:B8:42
    Signature Algorithm: sha256WithRSAEncryption
         68:bc:06:d5:6b:dc:3d:99:d4:0d:c0:3c:de:c1:70:8b:da:cf:
         bd:6b:97:63:fa:e6:70:f3:95:fe:86:f0:bf:3a:43:ec:13:4c:
         af:c8:b6:2e:c5:4d:33:91:6a:04:99:6c:80:29:b1:c3:07:84:
         d5:b9:0d:77:2a:64:a3:02:81:9f:88:33:69:92:b8:d7:47:ec:
         be:e7:d8:b9:db:05:69:f3:a4:e1:c1:4d:c7:1a:9f:ab:f8:89:
         c2:00:47:55:f0:bf:64:a9:ae:a7:d3:fe:b4:5f:75:68:3e:7d:
         39:bc:24:6d:a5:dd:5f:44:55:c0:ec:cf:d5:36:16:ab:b3:de:
         19:0e:03:34:33:b0:73:58:eb:36:a2:bf:c5:6f:12:1d:a1:5b:
         24:49:c3:a8:0f:92:ac:ca:a7:bc:00:f4:19:4f:f6:52:ac:02:
         99:db:d6:e9:6a:96:b2:a7:b2:03:c4:4e:7e:5a:a5:cc:53:b2:
         8f:15:ce:6e:34:1a:2d:8e:1c:08:82:bc:2d:e8:17:17:ae:33:
         12:af:97:ff:d8:bb:df:fd:0b:6f:ab:3d:e2:26:31:8c:ec:eb:
         94:cc:11:e9:13:9b:13:9b:74:b2:b3:3b:cc:db:c0:84:a8:cd:
         f2:6f:94:94:b6:27:c9:09:92:66:d1:8b:67:0a:82:38:00:4b:
         11:4c:e6:79:f4:5b:58:3a:e1:e4:cd:c3:3a:69:90:fd:fb:69:
         e5:8e:6c:3e:30:db:ce:54:a5:d8:64:99:f9:b5:88:02:fc:ca:
         ba:5e:90:02:7f:08:54:68:5a:3f:cd:85:ea:70:d6:e7:ce:98:
         a3:7e:2a:59:92:17:b2:b9:58:3c:58:7e:cf:71:fd:8d:d3:49:
         32:cb:47:df:df:a1:b4:4d:39:1d:63:c4:94:60:ed:40:13:16:
         3d:d9:fb:55:86:ac:9f:74:3d:98:b4:52:23:12:5e:c5:af:bb:
         e0:9a:f7:6a:c2:f9:c2:23:db:e2:68:fd:aa:89:22:dd:f6:df:
         52:4b:3d:3a:ee:85:55:92:74:de:3f:a3:9b:13:5f:1d:4f:31:
         64:4f:17:73:50:90:78:a6:a1:b9:49:12:e4:39:e2:2f:c2:fa:
         62:54:3a:6d:a4:5b:35:6c:e3:58:92:15:dc:0d:d5:21:94:b9:
         76:40:2d:6c:6f:02:a1:12:96:93:db:19:9b:ff:9e:40:02:d1:
         dc:34:1a:7e:69:d7:84:5a:86:ed:08:1d:b3:ce:1e:4c:b0:ac:
         ac:cd:20:ec:aa:4c:39:33:68:91:80:d5:a5:6a:67:37:f7:a3:
         bf:bb:81:37:cf:95:61:83:95:86:39:79:35:2c:b7:8a:14:97:
         2d:81:e1:f0:28:4a:a8:dd
-----BEGIN CERTIFICATE-----
MIIGPjCCBCagAwIBAgIQCRzw7wO+Q/pg5k5IOJLxMjANBgkqhkiG9w0BAQsFADAw
MQswCQYDVQQGEwJFUzEPMA0GA1UECgwGVGVsZWNvMRAwDgYDVQQDDAdSb290IENB
MB4XDTIzMDQwMzE2MTEzMFoXDTMzMDMzMTE2MTEzMFowMjELMAkGA1UEBhMCRVMx
DzANBgNVBAoMBlRlbGVjbzESMBAGA1UEAwwJQ2xpZW50IENBMIICIjANBgkqhkiG
9w0BAQEFAAOCAg8AMIICCgKCAgEA4u/Rn9OKQyu/SXmp8Ty+CpuhOPL1gcESeZIF
xmuWsfyQzovTL+TuJtrQCUK5S9mIgVXG41/ZINPYnii1kV/4uthbM3HNlwF9Jqx8
eeHed38qVcuuhD7h1Y+uJviEMDnHGA/XitGaggBc+Had5E+xpNK929UUmtj/Uias
ClY7Ha5IlnERIm7lthMKUOc52nhXEbq52V4OzXxnN3p4GIXLX/nFlJZzdl9nxGmy
YoyrdyIkwX1YeQnhPx4NFlDqIYShEvWYUkdht+G1TBIlf8Ovwefu4uar02ZoG2zd
hObXF+aCcTvYMH7hADk9TOGWCox6Hfi8YfO72pItPkpa+hgV+0bxVk8VBy0bk9ed
ea/suyDhry4dMhuaYFCHnSriqx4+i+PSxCc3vQvsP8/fLeIwxBFDNz42MxpJESGD
qHgpuRixT5ui3os2JQdzq2/nD+PXqQ9F/MKa2+jnYDvPFBUD8KDYedES8m/SMLPz
ascLfStPNcnD7F01LfvavuXA9ivRYGQ9j9/ePAHhPc6fBUNjCYy84qJPV72/nXxH
DMx8Op1LxVAiD7piewA7zv5oU/Y4EeWPpyydguhh3p02m17qAR2ZMX4vzRDx0AwK
M1z0MNTJDOkiF3e8FgJP/oD8i939hDX5Xz2jSm+cyELfM7JM82isCqbX16W4r4TA
qjcNitUCAwEAAaOCAVAwggFMMDIGCCsGAQUFBwEBBCYwJDAiBggrBgEFBQcwAYYW
aHR0cDovL2xvY2FsaG9zdDo5MDgwLzAfBgNVHSMEGDAWgBSK8RYJKrFX1qG5Hrpf
X+aB2pi0+TASBgNVHRMBAf8ECDAGAQH/AgEAMDYGA1UdHwQvMC0wK6ApoCeGJWh0
dHA6Ly9yb290LWNhLlRlbGVjby5jb20vcm9vdC1jYS5jcmwwHQYDVR0lBBYwFAYI
KwYBBQUHAwIGCCsGAQUFBwMBMA4GA1UdDwEB/wQEAwIBBjBbBgNVHR4EVDBSoB4w
DYILZXhhbXBsZS5jb20wDYILZXhhbXBsZS5vcmehMDAKhwgAAAAAAAAAADAihyAA
AAAAAAAAAAAAAAAAAAAAAAAAAAAAAAAAAAAAAAAAADAdBgNVHQ4EFgQUYd2gfR6R
WyuxDCEwCoxANMHWuEIwDQYJKoZIhvcNAQELBQADggIBAGi8BtVr3D2Z1A3APN7B
cIvaz71rl2P65nDzlf6G8L86Q+wTTK/Iti7FTTORagSZbIApscMHhNW5DXcqZKMC
gZ+IM2mSuNdH7L7n2LnbBWnzpOHBTccan6v4icIAR1Xwv2SprqfT/rRfdWg+fTm8
JG2l3V9EVcDsz9U2Fquz3hkOAzQzsHNY6zaiv8VvEh2hWyRJw6gPkqzKp7wA9BlP
9lKsApnb1ulqlrKnsgPETn5apcxTso8Vzm40Gi2OHAiCvC3oFxeuMxKvl//Yu9/9
C2+rPeImMYzs65TMEekTmxObdLKzO8zbwISozfJvlJS2J8kJkmbRi2cKgjgASxFM
5nn0W1g64eTNwzppkP37aeWObD4w285Updhkmfm1iAL8yrpekAJ/CFRoWj/Nhepw
1ufOmKN+KlmSF7K5WDxYfs9x/Y3TSTLLR9/fobRNOR1jxJRg7UATFj3Z+1WGrJ90
PZi0UiMSXsWvu+Ca92rC+cIj2+Jo/aqJIt3231JLPTruhVWSdN4/o5sTXx1PMWRP
F3NQkHimoblJEuQ54i/C+mJUOm2kWzVs41iSFdwN1SGUuXZALWxvAqESlpPbGZv/
nkAC0dw0Gn5p14Rahu0IHbPOHkywrKzNIOyqTDkzaJGA1aVqZzf3o7+7gTfPlWGD
lYY5eTUst4oUly2B4fAoSqjd
-----END CERTIFICATE-----
