Certificate:
    Data:
        Version: 3 (0x2)
        Serial Number:
            09:1c:f0:ef:03:be:43:fa:60:e6:4e:48:38:92:f1:50
        Signature Algorithm: sha256WithRSAEncryption
        Issuer: C=ES, O=Teleco, CN=Root CA
        Validity
            Not Before: Apr  5 20:21:19 2023 GMT
            Not After : Apr  2 20:21:19 2033 GMT
        Subject: C=ES, O=Teleco, CN=servertls13
        Subject Public Key Info:
            Public Key Algorithm: rsaEncryption
                RSA Public-Key: (2048 bit)
                Modulus:
                    00:8b:1f:7b:ff:ad:26:22:af:fb:b9:0a:5f:d2:bd:
                    bb:db:70:71:e9:ad:60:1c:d6:95:f4:60:5b:1d:d9:
                    b4:75:3f:1d:cf:a6:d4:4d:3c:b2:58:d7:df:03:1f:
                    60:6c:b4:c2:d8:3f:84:6d:a9:f7:56:bd:8f:8a:52:
                    3a:51:f7:a5:c2:42:80:80:7e:fa:39:fb:43:a6:a1:
                    c6:c8:b4:2e:ed:cd:b7:17:f3:f4:c0:ca:e9:7f:e3:
                    25:e9:16:cf:c4:2b:69:6c:b8:90:ea:cd:f9:cd:f7:
                    94:ad:15:13:93:f0:36:76:d9:b0:43:aa:66:f6:bf:
                    92:86:8a:cd:76:93:9a:e5:5c:fa:f4:b0:5f:13:d0:
                    03:4f:6b:c0:13:d0:08:a6:fd:7e:cc:4f:4b:0d:9f:
                    93:a7:5a:cb:19:96:57:c6:b6:08:ce:91:82:b1:6b:
                    d7:ec:84:8c:59:91:a3:8c:83:9b:c9:7c:b3:e6:15:
                    2d:e0:90:90:22:70:0c:99:da:c9:c9:90:4a:3a:eb:
                    86:3d:7f:c0:b9:8c:89:ef:f9:a0:e9:02:a9:fc:66:
                    0b:23:53:9c:90:46:45:ec:5a:4d:c9:9f:10:01:31:
                    33:79:18:51:d1:0d:bb:55:42:e6:4f:64:f1:4a:0e:
                    96:4c:1b:1c:5e:58:fe:fb:75:d2:30:02:29:60:80:
                    8b:3b
                Exponent: 65537 (0x10001)
        X509v3 extensions:
            Authority Information Access: 
                CA Issuers - URI:http://root-ca.Teleco.com/root-ca.crt
                OCSP - URI:http://ocsp.root-ca.Teleco.com:9080

            X509v3 Authority Key Identifier: 
                keyid:4F:5C:C0:E0:D3:03:4E:BD:A5:8D:EB:EA:23:DD:29:41:92:E9:2E:AB

            X509v3 Basic Constraints: critical
                CA:FALSE
            X509v3 CRL Distribution Points: 

                Full Name:
                  URI:http://root-ca.Teleco.com/root-ca.crl

            X509v3 Extended Key Usage: 
                TLS Web Client Authentication, TLS Web Server Authentication
            X509v3 Key Usage: critical
                Digital Signature, Key Encipherment
            X509v3 Subject Key Identifier: 
                B8:14:D7:E0:B3:AE:3D:5D:90:92:10:57:1A:5C:0A:7F:7E:1B:85:D7
    Signature Algorithm: sha256WithRSAEncryption
         82:3c:7e:5a:38:dd:07:bb:b9:75:78:7b:eb:bd:3f:f4:68:e6:
         e7:a8:95:2e:10:ab:b4:4c:b1:db:c7:36:20:24:f9:f7:f3:f8:
         0c:45:41:2b:76:65:ea:d1:0a:04:96:bf:1d:90:ad:64:39:5a:
         a8:65:e8:f9:d9:3d:14:11:17:6c:9b:e4:ea:a1:51:ad:11:3a:
         84:e5:22:7b:f8:ad:d5:3f:f2:42:96:b8:08:c3:bf:ef:f6:a5:
         17:62:d3:30:f8:b7:18:22:d0:2c:41:f1:bf:78:1f:76:6d:fc:
         07:e8:f2:b8:e1:cb:db:50:a8:2c:67:a1:47:0c:bb:6b:52:7f:
         e1:d4:e5:23:93:e4:b4:2f:91:32:84:7f:55:da:89:aa:fc:9b:
         76:c3:b1:86:61:d1:37:35:fe:0d:81:58:42:cc:f8:ab:19:f3:
         98:35:55:ee:a1:ec:43:e9:3e:ed:c7:6a:a9:a3:03:64:ba:7e:
         55:2e:6f:73:05:8a:51:6e:38:c8:09:2c:bf:d6:4e:9e:79:96:
         aa:29:67:e2:71:fe:81:76:5a:6e:ac:6d:80:a9:f3:03:2a:c8:
         8d:f1:9c:6e:03:26:23:b7:3e:fa:5b:68:32:f0:3c:e4:8a:e8:
         94:fe:d7:c9:7b:86:05:b1:66:dc:8b:36:85:c6:d4:b1:e7:90:
         f3:c8:66:2b:77:c3:e9:18:9e:84:29:2d:7f:74:8a:7c:48:4c:
         7a:1f:20:c7:0f:56:ec:3b:01:32:89:4e:16:9c:6e:97:fb:38:
         9d:d2:ac:98:94:2c:6f:18:6c:5d:bf:9a:69:35:ca:11:df:7f:
         33:00:fe:06:40:7e:cd:c4:8b:b9:4d:61:dc:6f:7a:1e:32:35:
         ff:a7:b6:18:fa:32:92:1a:75:e6:89:5f:fb:58:c8:08:f5:b7:
         14:b2:78:93:a2:84:4f:83:74:e8:8b:50:de:82:64:96:07:65:
         69:09:9b:6c:85:67:3c:e5:37:09:60:77:36:c6:84:2e:39:9d:
         48:e8:54:ef:5e:67:11:71:10:51:4d:9c:20:3a:4b:0b:7e:a5:
         92:8b:03:e9:98:ec:4c:f0:47:e4:34:de:76:cd:34:ef:4a:f3:
         43:d0:3f:6a:41:2f:b0:33:fd:ae:7b:ae:b5:5f:20:b5:25:79:
         a9:d3:d3:b5:c1:56:18:a3:c4:fd:72:d3:3e:06:5e:4f:fc:1c:
         e3:f1:55:92:8d:88:95:7d:c7:c1:1c:f3:8d:18:a1:68:ac:d1:
         dc:2d:e0:7d:3d:0f:53:d4:14:f4:e7:1f:07:d6:e8:5f:4e:07:
         89:86:c1:79:f4:9f:e9:c9:fb:96:c7:b3:89:d5:34:ea:c0:40:
         09:b1:ca:1c:e1:f7:17:fd
-----BEGIN CERTIFICATE-----
MIIFHTCCAwWgAwIBAgIQCRzw7wO+Q/pg5k5IOJLxUDANBgkqhkiG9w0BAQsFADAw
MQswCQYDVQQGEwJFUzEPMA0GA1UECgwGVGVsZWNvMRAwDgYDVQQDDAdSb290IENB
MB4XDTIzMDQwNTIwMjExOVoXDTMzMDQwMjIwMjExOVowNDELMAkGA1UEBhMCRVMx
DzANBgNVBAoMBlRlbGVjbzEUMBIGA1UEAwwLc2VydmVydGxzMTMwggEiMA0GCSqG
SIb3DQEBAQUAA4IBDwAwggEKAoIBAQCLH3v/rSYir/u5Cl/SvbvbcHHprWAc1pX0
YFsd2bR1Px3PptRNPLJY198DH2BstMLYP4RtqfdWvY+KUjpR96XCQoCAfvo5+0Om
ocbItC7tzbcX8/TAyul/4yXpFs/EK2lsuJDqzfnN95StFROT8DZ22bBDqmb2v5KG
is12k5rlXPr0sF8T0ANPa8AT0Aim/X7MT0sNn5OnWssZllfGtgjOkYKxa9fshIxZ
kaOMg5vJfLPmFS3gkJAicAyZ2snJkEo664Y9f8C5jInv+aDpAqn8ZgsjU5yQRkXs
Wk3JnxABMTN5GFHRDbtVQuZPZPFKDpZMGxxeWP77ddIwAilggIs7AgMBAAGjggEt
MIIBKTByBggrBgEFBQcBAQRmMGQwMQYIKwYBBQUHMAKGJWh0dHA6Ly9yb290LWNh
LlRlbGVjby5jb20vcm9vdC1jYS5jcnQwLwYIKwYBBQUHMAGGI2h0dHA6Ly9vY3Nw
LnJvb3QtY2EuVGVsZWNvLmNvbTo5MDgwMB8GA1UdIwQYMBaAFE9cwODTA069pY3r
6iPdKUGS6S6rMAwGA1UdEwEB/wQCMAAwNgYDVR0fBC8wLTAroCmgJ4YlaHR0cDov
L3Jvb3QtY2EuVGVsZWNvLmNvbS9yb290LWNhLmNybDAdBgNVHSUEFjAUBggrBgEF
BQcDAgYIKwYBBQUHAwEwDgYDVR0PAQH/BAQDAgWgMB0GA1UdDgQWBBS4FNfgs649
XZCSEFcaXAp/fhuF1zANBgkqhkiG9w0BAQsFAAOCAgEAgjx+WjjdB7u5dXh7670/
9Gjm56iVLhCrtEyx28c2ICT59/P4DEVBK3Zl6tEKBJa/HZCtZDlaqGXo+dk9FBEX
bJvk6qFRrRE6hOUie/it1T/yQpa4CMO/7/alF2LTMPi3GCLQLEHxv3gfdm38B+jy
uOHL21CoLGehRwy7a1J/4dTlI5PktC+RMoR/VdqJqvybdsOxhmHRNzX+DYFYQsz4
qxnzmDVV7qHsQ+k+7cdqqaMDZLp+VS5vcwWKUW44yAksv9ZOnnmWqiln4nH+gXZa
bqxtgKnzAyrIjfGcbgMmI7c++ltoMvA85IrolP7XyXuGBbFm3Is2hcbUseeQ88hm
K3fD6RiehCktf3SKfEhMeh8gxw9W7DsBMolOFpxul/s4ndKsmJQsbxhsXb+aaTXK
Ed9/MwD+BkB+zcSLuU1h3G96HjI1/6e2GPoykhp15olf+1jICPW3FLJ4k6KET4N0
6ItQ3oJklgdlaQmbbIVnPOU3CWB3NsaELjmdSOhU715nEXEQUU2cIDpLC36lkosD
6ZjsTPBH5DTeds0070rzQ9A/akEvsDP9rnuutV8gtSV5qdPTtcFWGKPE/XLTPgZe
T/wc4/FVko2IlX3HwRzzjRihaKzR3C3gfT0PU9QU9OcfB9boX04HiYbBefSf6cn7
lsezidU06sBACbHKHOH3F/0=
-----END CERTIFICATE-----
