Certificate:
    Data:
        Version: 3 (0x2)
        Serial Number:
            09:1c:f0:ef:03:be:43:fa:60:e6:4e:48:38:92:f1:26
        Signature Algorithm: sha256WithRSAEncryption
        Issuer: C=ES, O=Teleco, CN=Root CA
        Validity
            Not Before: Mar 26 11:47:44 2023 GMT
            Not After : Mar 25 11:47:44 2024 GMT
        Subject: C=ES, O=Teleco, CN=OCSP-Responder
        Subject Public Key Info:
            Public Key Algorithm: rsaEncryption
                RSA Public-Key: (2048 bit)
                Modulus:
                    00:e9:13:ac:a5:c9:da:32:aa:1c:49:40:93:77:ff:
                    1b:5e:51:ab:b7:2f:fe:e1:34:ba:d0:7c:6f:7b:7b:
                    02:f8:66:74:73:74:31:20:43:93:a7:a2:8e:a2:47:
                    60:eb:d3:29:a8:8b:c2:56:03:d6:ed:eb:79:8f:31:
                    89:e8:f1:0f:97:7c:59:04:d5:7d:0a:6a:ea:3f:eb:
                    ea:8a:be:2e:7f:c3:6b:5f:5b:85:2b:49:3e:fe:6a:
                    19:dd:d5:77:e1:16:08:1f:2c:a6:05:a4:77:7c:a2:
                    75:ff:a5:6a:d6:e6:c9:de:4f:67:35:b4:17:fa:4d:
                    f3:5e:3e:8d:37:82:f2:f1:6c:45:32:af:20:f3:1e:
                    cf:28:6d:83:f3:16:6d:7c:ff:75:8c:30:44:9b:c2:
                    07:01:da:1a:52:5d:6a:d5:e3:94:4f:89:e6:72:22:
                    6c:49:5f:ca:9a:35:80:3d:47:4f:b3:51:a7:3d:4e:
                    c4:27:f3:db:ce:f8:59:f2:ba:49:3b:a9:8e:e2:19:
                    a9:f5:36:c8:e8:d5:c4:72:a6:ae:7c:3c:ee:37:b7:
                    6a:17:4d:bf:da:2b:66:e7:52:59:b6:3c:02:83:87:
                    f1:fd:9e:51:bc:4f:53:70:a3:17:57:0d:dd:a4:82:
                    df:39:91:a9:fe:00:f7:3b:67:e0:8f:d9:c2:0c:1e:
                    df:35
                Exponent: 65537 (0x10001)
        X509v3 extensions:
            X509v3 Authority Key Identifier: 
                keyid:FC:8A:D5:BA:86:C1:7F:70:12:DE:5D:3F:C8:2A:AA:25:95:29:6D:0B

            X509v3 Basic Constraints: critical
                CA:FALSE
            X509v3 Extended Key Usage: 
                OCSP Signing
            X509v3 Key Usage: critical
                Digital Signature
            X509v3 Subject Key Identifier: 
                EF:A7:62:5E:8F:68:94:9D:7D:3E:DC:60:89:57:EB:69:26:70:DB:31
    Signature Algorithm: sha256WithRSAEncryption
         2b:a9:ac:9c:11:67:2d:4f:ef:93:31:e2:c5:df:9e:6c:93:18:
         6a:04:3a:d7:14:bc:cb:73:c3:63:a1:89:c9:be:d5:89:91:85:
         21:1e:68:d2:5e:bc:f8:9b:90:37:04:80:ca:09:26:90:66:17:
         9b:76:a3:f6:8c:2a:aa:82:99:a0:c1:fe:61:f8:47:15:28:f6:
         7f:3a:e4:a0:b3:92:06:51:28:5f:4f:db:1a:47:a7:7c:7f:7f:
         18:ed:5f:d5:db:a2:c9:9a:e8:a3:dc:ac:2f:76:cb:c2:0f:09:
         f4:d3:cd:28:4c:69:ff:6c:3a:96:7e:e2:ea:d7:cf:c4:8a:77:
         f4:d0:9d:bd:67:7a:a4:fa:37:15:8d:66:51:d1:07:00:02:6c:
         eb:0d:f8:1e:69:7d:ff:9b:4c:40:42:62:7c:5b:5e:f7:b5:e2:
         61:6f:06:02:48:f9:7a:16:62:b0:09:fa:fe:61:49:82:36:8b:
         39:95:37:85:81:ce:76:a6:1b:e5:28:2f:45:e1:0b:c8:a5:40:
         c8:88:ce:f8:12:73:de:30:dc:13:23:72:24:72:75:88:e2:3a:
         2b:92:6c:78:de:c5:4e:d3:93:53:39:5b:fc:c1:c0:bc:87:59:
         7c:c7:96:0d:cf:14:c7:c8:40:3f:ad:65:2d:16:b1:d6:d9:1e:
         30:6e:81:10:a2:f4:c9:c9:a8:b7:0b:69:07:fb:a2:4e:82:70:
         9f:27:40:30:4f:fa:1d:29:cd:8d:55:67:fc:fe:21:49:25:ee:
         67:e8:4b:ab:24:7b:06:c9:61:a6:fa:40:e6:1f:76:3c:89:4e:
         3e:31:f2:1f:94:1f:95:01:ab:77:ec:c4:fd:a5:93:e3:3a:d0:
         a8:24:04:38:c0:93:a1:1c:8d:ec:1d:56:af:6d:8c:36:30:ea:
         32:76:6f:b2:83:ed:e9:e5:be:e4:ac:c7:fa:39:27:61:72:28:
         f6:18:08:3b:31:34:86:31:d5:c2:bc:b5:bc:76:2e:1b:c9:f5:
         fc:1e:23:88:29:44:38:c1:65:c6:bb:21:8f:33:d8:30:b9:98:
         ae:c7:c4:b2:59:aa:9b:44:a6:51:43:32:6f:1d:84:4c:90:92:
         89:12:56:b6:41:5f:87:e5:2a:00:19:d6:ff:0e:f4:1a:55:c0:
         0c:88:d4:e7:24:9a:e3:57:20:8b:92:fc:6c:ac:97:d6:da:56:
         e2:9b:bd:7b:2a:81:3b:19:6b:c2:22:d9:93:7d:a6:63:7d:b6:
         1b:e0:f7:2e:c6:2a:62:85:62:f9:7e:20:42:52:64:cf:00:97:
         ce:38:ca:4c:1d:e3:36:fe:8d:b1:60:a9:15:85:20:9c:36:94:
         38:54:d5:ea:26:58:9a:5d
-----BEGIN CERTIFICATE-----
MIIEZjCCAk6gAwIBAgIQCRzw7wO+Q/pg5k5IOJLxJjANBgkqhkiG9w0BAQsFADAw
MQswCQYDVQQGEwJFUzEPMA0GA1UECgwGVGVsZWNvMRAwDgYDVQQDDAdSb290IENB
MB4XDTIzMDMyNjExNDc0NFoXDTI0MDMyNTExNDc0NFowNzELMAkGA1UEBhMCRVMx
DzANBgNVBAoMBlRlbGVjbzEXMBUGA1UEAwwOT0NTUC1SZXNwb25kZXIwggEiMA0G
CSqGSIb3DQEBAQUAA4IBDwAwggEKAoIBAQDpE6ylydoyqhxJQJN3/xteUau3L/7h
NLrQfG97ewL4ZnRzdDEgQ5Onoo6iR2Dr0ymoi8JWA9bt63mPMYno8Q+XfFkE1X0K
auo/6+qKvi5/w2tfW4UrST7+ahnd1XfhFggfLKYFpHd8onX/pWrW5sneT2c1tBf6
TfNePo03gvLxbEUyryDzHs8obYPzFm18/3WMMESbwgcB2hpSXWrV45RPieZyImxJ
X8qaNYA9R0+zUac9TsQn89vO+Fnyukk7qY7iGan1Nsjo1cRypq58PO43t2oXTb/a
K2bnUlm2PAKDh/H9nlG8T1NwoxdXDd2kgt85kan+APc7Z+CP2cIMHt81AgMBAAGj
dTBzMB8GA1UdIwQYMBaAFPyK1bqGwX9wEt5dP8gqqiWVKW0LMAwGA1UdEwEB/wQC
MAAwEwYDVR0lBAwwCgYIKwYBBQUHAwkwDgYDVR0PAQH/BAQDAgeAMB0GA1UdDgQW
BBTvp2Jej2iUnX0+3GCJV+tpJnDbMTANBgkqhkiG9w0BAQsFAAOCAgEAK6msnBFn
LU/vkzHixd+ebJMYagQ61xS8y3PDY6GJyb7ViZGFIR5o0l68+JuQNwSAygkmkGYX
m3aj9owqqoKZoMH+YfhHFSj2fzrkoLOSBlEoX0/bGkenfH9/GO1f1duiyZroo9ys
L3bLwg8J9NPNKExp/2w6ln7i6tfPxIp39NCdvWd6pPo3FY1mUdEHAAJs6w34Hml9
/5tMQEJifFte97XiYW8GAkj5ehZisAn6/mFJgjaLOZU3hYHOdqYb5SgvReELyKVA
yIjO+BJz3jDcEyNyJHJ1iOI6K5JseN7FTtOTUzlb/MHAvIdZfMeWDc8Ux8hAP61l
LRax1tkeMG6BEKL0ycmotwtpB/uiToJwnydAME/6HSnNjVVn/P4hSSXuZ+hLqyR7
BslhpvpA5h92PIlOPjHyH5QflQGrd+zE/aWT4zrQqCQEOMCToRyN7B1Wr22MNjDq
MnZvsoPt6eW+5KzH+jknYXIo9hgIOzE0hjHVwry1vHYuG8n1/B4jiClEOMFlxrsh
jzPYMLmYrsfEslmqm0SmUUMybx2ETJCSiRJWtkFfh+UqABnW/w70GlXADIjU5ySa
41cgi5L8bKyX1tpW4pu9eyqBOxlrwiLZk32mY322G+D3LsYqYoVi+X4gQlJkzwCX
zjjKTB3jNv6NsWCpFYUgnDaUOFTV6iZYml0=
-----END CERTIFICATE-----
