Certificate:
    Data:
        Version: 3 (0x2)
        Serial Number:
            09:1c:f0:ef:03:be:43:fa:60:e6:4e:48:38:92:f1:53
        Signature Algorithm: sha256WithRSAEncryption
        Issuer: C=ES, O=Teleco, CN=Root CA
        Validity
            Not Before: Apr  5 20:22:14 2023 GMT
            Not After : Apr  2 20:22:14 2033 GMT
        Subject: C=ES, O=Teleco, CN=clienttls13
        Subject Public Key Info:
            Public Key Algorithm: rsaEncryption
                RSA Public-Key: (2048 bit)
                Modulus:
                    00:cb:55:cf:da:72:56:c7:c2:8f:fe:85:68:b7:e9:
                    26:ec:33:ed:b2:da:bb:5e:64:63:3a:10:f3:59:63:
                    ed:c6:62:7e:9b:35:c7:c6:6b:0c:d8:f4:ea:81:a9:
                    20:c0:2e:65:1f:f0:a7:67:94:8a:1d:61:b0:fa:e5:
                    71:ad:02:39:d9:ee:56:a4:fd:6d:a6:4a:f3:88:ce:
                    84:2b:47:2f:08:b1:8a:ac:3f:53:22:55:e1:6f:21:
                    c2:3c:01:1a:bc:93:79:72:d9:d5:eb:34:ee:50:5e:
                    49:14:86:a4:c8:27:62:69:18:6f:3c:4e:89:df:c9:
                    73:3d:3c:52:c0:76:47:43:ab:92:78:61:c0:d2:4a:
                    61:78:84:e6:50:72:43:f9:f4:7e:cd:67:50:5a:d3:
                    4d:77:23:61:80:4b:c2:d4:71:27:d0:fe:85:3b:b8:
                    ee:a7:e5:36:86:1b:a3:d1:53:41:cc:76:03:b7:6a:
                    d0:93:7d:f3:db:02:d3:ea:fe:b8:c1:98:86:63:53:
                    b2:31:af:eb:c8:f5:06:78:e7:28:ab:d3:c2:5e:59:
                    4a:14:c8:47:28:3d:19:6f:8a:84:1b:d2:a7:85:7f:
                    7d:85:c8:7e:f7:b8:f0:f9:1a:ba:5c:98:83:57:eb:
                    33:a2:db:5a:d8:0a:67:c8:08:93:4a:dd:10:41:22:
                    5a:bd
                Exponent: 65537 (0x10001)
        X509v3 extensions:
            Authority Information Access: 
                CA Issuers - URI:http://root-ca.Teleco.com/root-ca.crt
                OCSP - URI:http://ocsp.root-ca.Teleco.com:9080

            X509v3 Authority Key Identifier: 
                keyid:4F:5C:C0:E0:D3:03:4E:BD:A5:8D:EB:EA:23:DD:29:41:92:E9:2E:AB

            X509v3 Basic Constraints: critical
                CA:FALSE
            X509v3 CRL Distribution Points: 

                Full Name:
                  URI:http://root-ca.Teleco.com/root-ca.crl

            X509v3 Extended Key Usage: 
                TLS Web Client Authentication
            X509v3 Key Usage: critical
                Digital Signature
            X509v3 Subject Key Identifier: 
                57:35:3C:AC:E6:BE:D3:7F:30:58:35:28:33:2F:3C:B6:C4:65:09:DA
    Signature Algorithm: sha256WithRSAEncryption
         98:ca:62:66:38:ef:06:49:23:22:e7:a1:12:84:61:98:48:ab:
         94:9a:95:ba:31:95:c3:a4:66:58:57:89:0a:35:eb:53:f8:90:
         89:35:a3:ce:b3:d6:c0:10:bd:2d:ad:2c:c2:e3:84:c3:2d:cf:
         ac:7e:fe:78:92:db:fd:69:59:22:df:8f:10:d5:44:09:63:b5:
         b0:e8:67:c0:ea:8b:8f:fa:84:d8:58:d6:6f:b4:5e:d9:d9:d1:
         2b:97:ca:75:dd:04:1b:79:f3:a4:d7:d4:4f:5c:16:a0:43:e8:
         04:59:fe:d4:71:58:c6:54:fa:0f:ed:19:b4:56:63:71:77:72:
         b2:cd:8a:49:4f:5f:3b:eb:7f:f2:36:00:13:f9:7b:a6:f4:ee:
         b6:2b:ef:01:b0:1c:21:b9:2f:5a:3f:91:6e:33:69:4b:94:30:
         a5:fd:55:2e:15:84:51:e8:94:92:38:96:ca:52:2e:fb:16:2a:
         7e:91:09:4f:74:07:38:15:7a:f7:3d:f4:aa:b0:73:56:b9:89:
         5a:ca:2e:d6:42:a5:1c:19:fc:f0:99:6a:22:31:24:e5:92:6f:
         87:d1:ea:48:e5:d4:54:99:9e:01:7b:4e:40:9a:f2:97:12:2d:
         74:af:9c:3e:15:2c:f8:e3:3a:0e:17:72:20:30:1d:19:e6:42:
         f0:1f:c0:f3:bf:99:0e:40:f4:e8:58:68:65:38:05:ed:e7:40:
         e8:e1:05:c0:74:61:34:95:03:61:a6:11:8f:13:f9:10:65:3c:
         0b:14:a2:38:cf:7a:f1:00:0a:f4:69:f7:02:3f:40:7e:08:b8:
         e2:72:c0:f2:3f:bb:07:33:9f:46:9a:d7:71:43:8c:3f:d1:33:
         8a:ca:3d:3c:ed:bb:2d:95:6b:5f:8e:07:1b:17:4a:37:36:10:
         15:01:30:d4:6f:ab:48:88:74:74:f7:e2:af:9b:51:98:d5:a8:
         8e:bd:e7:ef:00:63:42:6d:c0:d6:84:6a:cd:c0:5a:3b:31:6e:
         43:da:90:2b:e3:2d:c9:cc:cd:85:a0:40:11:07:5b:94:de:63:
         50:65:af:db:22:4d:bd:7d:35:dd:c7:b2:07:3a:ee:a3:3d:94:
         98:15:3e:53:9b:2c:fc:2f:2f:03:47:28:cb:10:c4:0c:52:39:
         84:8e:e9:5c:7e:5e:1d:a3:81:6f:5e:08:80:a4:08:8e:38:bf:
         4b:0d:72:f7:a4:54:ce:5d:f1:8e:bf:f5:f8:65:2d:7c:de:0c:
         fa:8e:fc:a8:bf:f2:ff:92:11:b9:de:ae:7f:83:2f:36:a6:13:
         c6:dd:bf:6b:d0:08:8a:c6:0e:93:2b:87:97:46:29:24:59:39:
         c9:68:12:bc:7b:55:2e:95
-----BEGIN CERTIFICATE-----
MIIFEzCCAvugAwIBAgIQCRzw7wO+Q/pg5k5IOJLxUzANBgkqhkiG9w0BAQsFADAw
MQswCQYDVQQGEwJFUzEPMA0GA1UECgwGVGVsZWNvMRAwDgYDVQQDDAdSb290IENB
MB4XDTIzMDQwNTIwMjIxNFoXDTMzMDQwMjIwMjIxNFowNDELMAkGA1UEBhMCRVMx
DzANBgNVBAoMBlRlbGVjbzEUMBIGA1UEAwwLY2xpZW50dGxzMTMwggEiMA0GCSqG
SIb3DQEBAQUAA4IBDwAwggEKAoIBAQDLVc/aclbHwo/+hWi36SbsM+2y2rteZGM6
EPNZY+3GYn6bNcfGawzY9OqBqSDALmUf8KdnlIodYbD65XGtAjnZ7lak/W2mSvOI
zoQrRy8IsYqsP1MiVeFvIcI8ARq8k3ly2dXrNO5QXkkUhqTIJ2JpGG88TonfyXM9
PFLAdkdDq5J4YcDSSmF4hOZQckP59H7NZ1Ba0013I2GAS8LUcSfQ/oU7uO6n5TaG
G6PRU0HMdgO3atCTffPbAtPq/rjBmIZjU7Ixr+vI9QZ45yir08JeWUoUyEcoPRlv
ioQb0qeFf32FyH73uPD5GrpcmINX6zOi21rYCmfICJNK3RBBIlq9AgMBAAGjggEj
MIIBHzByBggrBgEFBQcBAQRmMGQwMQYIKwYBBQUHMAKGJWh0dHA6Ly9yb290LWNh
LlRlbGVjby5jb20vcm9vdC1jYS5jcnQwLwYIKwYBBQUHMAGGI2h0dHA6Ly9vY3Nw
LnJvb3QtY2EuVGVsZWNvLmNvbTo5MDgwMB8GA1UdIwQYMBaAFE9cwODTA069pY3r
6iPdKUGS6S6rMAwGA1UdEwEB/wQCMAAwNgYDVR0fBC8wLTAroCmgJ4YlaHR0cDov
L3Jvb3QtY2EuVGVsZWNvLmNvbS9yb290LWNhLmNybDATBgNVHSUEDDAKBggrBgEF
BQcDAjAOBgNVHQ8BAf8EBAMCB4AwHQYDVR0OBBYEFFc1PKzmvtN/MFg1KDMvPLbE
ZQnaMA0GCSqGSIb3DQEBCwUAA4ICAQCYymJmOO8GSSMi56EShGGYSKuUmpW6MZXD
pGZYV4kKNetT+JCJNaPOs9bAEL0trSzC44TDLc+sfv54ktv9aVki348Q1UQJY7Ww
6GfA6ouP+oTYWNZvtF7Z2dErl8p13QQbefOk19RPXBagQ+gEWf7UcVjGVPoP7Rm0
VmNxd3KyzYpJT18763/yNgAT+Xum9O62K+8BsBwhuS9aP5FuM2lLlDCl/VUuFYRR
6JSSOJbKUi77Fip+kQlPdAc4FXr3PfSqsHNWuYlayi7WQqUcGfzwmWoiMSTlkm+H
0epI5dRUmZ4Be05AmvKXEi10r5w+FSz44zoOF3IgMB0Z5kLwH8Dzv5kOQPToWGhl
OAXt50Do4QXAdGE0lQNhphGPE/kQZTwLFKI4z3rxAAr0afcCP0B+CLjicsDyP7sH
M59GmtdxQ4w/0TOKyj087bstlWtfjgcbF0o3NhAVATDUb6tIiHR09+Kvm1GY1aiO
vefvAGNCbcDWhGrNwFo7MW5D2pAr4y3JzM2FoEARB1uU3mNQZa/bIk29fTXdx7IH
Ou6jPZSYFT5Tmyz8Ly8DRyjLEMQMUjmEjulcfl4do4FvXgiApAiOOL9LDXL3pFTO
XfGOv/X4ZS183gz6jvyov/L/khG53q5/gy82phPG3b9r0AiKxg6TK4eXRikkWTnJ
aBK8e1UulQ==
-----END CERTIFICATE-----
