Certificate:
    Data:
        Version: 3 (0x2)
        Serial Number:
            09:1c:f0:ef:03:be:43:fa:60:e6:4e:48:38:92:f1:39
        Signature Algorithm: sha256WithRSAEncryption
        Issuer: C=ES, O=Teleco, CN=Root CA
        Validity
            Not Before: Apr  4 09:24:03 2023 GMT
            Not After : Apr  1 09:24:03 2033 GMT
        Subject: C=ES, O=Teleco, CN=Root CA
        Subject Public Key Info:
            Public Key Algorithm: rsaEncryption
                RSA Public-Key: (4096 bit)
                Modulus:
                    00:c7:f7:57:0e:f6:01:42:f8:39:97:35:94:32:6d:
                    a4:96:fd:17:de:8a:ed:9f:ab:43:47:ef:1e:7f:83:
                    47:63:7e:f8:ef:1b:21:e5:1f:c9:37:08:e1:e4:3f:
                    77:96:af:e5:50:b7:c9:6b:84:9f:b2:8e:78:f2:cb:
                    ba:04:30:70:d0:6c:88:7f:19:b8:8d:5a:21:18:6c:
                    7e:65:3b:31:95:6d:4f:48:95:1c:08:75:57:1f:b4:
                    7e:6a:f0:ba:e9:84:f1:7b:19:e1:a2:c8:e9:8a:33:
                    73:e3:fe:13:e9:49:8c:14:a4:f3:42:8d:6a:85:16:
                    5c:71:85:b0:a2:14:a6:11:6b:f7:d9:3a:57:6c:0f:
                    04:c3:6f:6a:f9:d2:b0:80:0f:85:3b:89:67:14:d1:
                    51:13:47:77:a4:18:a6:26:a3:b8:3b:6f:95:24:43:
                    6e:aa:f2:c9:7d:7b:ee:02:b2:9f:b6:6a:ff:ef:98:
                    88:84:bd:3c:9a:ab:e3:86:eb:9b:21:43:51:43:51:
                    c2:cd:30:06:68:79:34:c3:62:ed:b6:27:fa:44:07:
                    81:ff:5f:53:4a:c2:a6:f9:f0:34:ed:f6:d8:40:df:
                    ea:9d:40:57:57:60:60:57:cc:5e:72:ac:a2:c3:8d:
                    8f:e2:b3:0c:b7:6e:a4:9e:76:0e:17:45:d6:cb:a7:
                    72:db:72:66:a4:03:36:8b:37:d6:11:93:b2:1d:28:
                    47:2a:d2:a7:83:b1:1d:7d:08:e0:97:b9:28:48:d1:
                    fb:b7:5f:1f:2b:00:2b:a7:02:1c:e5:4d:1c:9a:0e:
                    c1:41:90:d0:b3:33:62:48:b8:91:40:a0:29:3f:6a:
                    e5:9e:3c:f9:4b:e3:e9:43:8e:14:9a:cd:43:80:c4:
                    4f:0f:e5:87:55:72:20:a8:8a:89:df:0b:81:33:86:
                    43:36:be:f7:21:48:a8:06:3a:1b:cd:57:56:0a:26:
                    6b:b9:e5:c1:c8:63:4b:49:c6:95:93:c6:33:cf:8c:
                    0c:ab:c3:20:8f:48:cf:01:bf:3f:74:1b:44:58:66:
                    70:a9:96:9d:89:b8:3e:93:07:e5:76:e8:d1:b7:a6:
                    2c:91:c3:bc:4f:c3:32:3f:59:28:4e:64:d7:eb:32:
                    bc:b6:b6:e2:66:0c:6c:46:f1:65:2b:c4:f1:c8:b5:
                    85:a4:0c:15:a7:a8:25:9e:98:7b:2c:77:86:07:3a:
                    3a:f6:2c:cf:0a:01:de:b0:c0:e9:c3:85:b4:23:35:
                    80:b7:8d:9f:96:1c:1d:a9:c7:e8:04:9c:f4:01:d0:
                    4e:af:f4:d1:01:ec:d4:cd:99:8d:bc:7f:5a:87:bb:
                    a1:e8:27:90:d5:5e:99:cf:86:e5:2c:0a:d4:c6:d4:
                    c8:81:e3
                Exponent: 65537 (0x10001)
        X509v3 extensions:
            X509v3 Basic Constraints: critical
                CA:TRUE
            X509v3 Key Usage: critical
                Certificate Sign, CRL Sign
            X509v3 Subject Key Identifier: 
                26:D4:03:3C:3C:B5:5B:E7:4B:E4:50:C0:AF:81:AD:5B:B4:88:C8:01
    Signature Algorithm: sha256WithRSAEncryption
         2a:9e:67:af:aa:93:05:d1:30:07:fb:a1:a2:b5:8f:d7:1d:ba:
         17:c5:87:fb:ae:28:d3:6f:9e:4a:c2:04:37:44:11:40:1f:29:
         ea:04:80:7a:20:f3:af:7b:93:17:f3:63:58:0e:07:78:22:d4:
         8d:23:f8:00:3d:53:96:a2:5b:b6:b3:a3:97:b0:21:18:d3:a5:
         49:64:6d:24:54:34:21:a4:6e:0b:e6:a4:79:9c:d0:f9:eb:64:
         9f:e8:d4:e3:94:2f:8f:7c:fd:93:6e:3e:c5:64:43:cc:d0:68:
         75:f7:0a:33:a7:33:e1:65:b9:2b:86:3e:d2:9c:13:d9:78:52:
         02:28:11:33:cc:dd:92:dd:31:34:ba:4c:00:18:43:ba:bc:fe:
         32:fa:44:c9:d6:8d:f9:37:fd:5b:bd:68:76:9c:90:fe:e4:1a:
         48:05:64:ab:e3:0a:5b:58:16:01:2e:d1:37:81:c0:47:89:25:
         6a:63:2b:75:30:db:93:77:96:26:30:fe:6a:ae:02:bd:f5:6c:
         2e:f4:f7:e9:e7:04:96:59:85:e9:ad:9f:5b:2a:58:be:7b:80:
         13:e7:d7:9f:f1:54:55:9e:9c:65:ed:a2:cb:52:ed:16:0b:b2:
         4a:04:68:42:44:37:95:66:99:42:f1:3e:d6:b9:6b:e0:cc:6b:
         0f:c9:b8:43:5c:d4:e5:b0:5e:be:5f:10:ff:7e:75:7e:ed:6f:
         cf:a0:38:e8:90:1b:d1:00:90:ff:05:40:b4:13:c6:84:7f:81:
         0e:a9:7e:55:67:45:a6:c2:1b:1c:0b:fc:09:36:64:72:c2:af:
         20:97:db:0a:ce:e5:4c:af:3f:dc:7d:a4:8a:d9:80:5e:42:4f:
         e5:d6:a2:9c:91:02:d6:62:6c:b1:9f:fd:b2:db:c1:5d:22:93:
         98:fe:31:e2:62:4b:66:f9:6d:1e:4b:b2:b9:54:ee:19:d9:f5:
         95:85:94:54:d0:d3:7c:b5:47:75:8a:9d:19:f8:35:bb:3b:9a:
         8b:e5:37:32:d1:25:db:9c:aa:91:19:79:12:bf:b4:c9:03:32:
         7b:52:69:3a:90:d6:bd:7d:16:39:aa:ea:49:8f:41:7f:b3:23:
         27:cf:28:20:12:75:9f:0e:f0:f2:d5:e8:c4:9b:98:49:58:04:
         29:ba:83:3b:ae:fe:b1:4c:36:c7:b3:a5:11:3d:00:33:e5:a6:
         ad:ff:d4:f0:a8:f3:a8:50:56:dd:b6:61:87:1c:6b:1b:9a:ff:
         f3:0b:ca:8c:f9:27:80:6a:91:40:5b:bf:11:46:66:34:40:7d:
         4d:14:72:b4:32:03:05:89:a5:4f:b4:6f:ed:0d:ff:2e:11:ed:
         47:f3:35:54:dd:79:d4:58
-----BEGIN CERTIFICATE-----
MIIFLDCCAxSgAwIBAgIQCRzw7wO+Q/pg5k5IOJLxOTANBgkqhkiG9w0BAQsFADAw
MQswCQYDVQQGEwJFUzEPMA0GA1UECgwGVGVsZWNvMRAwDgYDVQQDDAdSb290IENB
MB4XDTIzMDQwNDA5MjQwM1oXDTMzMDQwMTA5MjQwM1owMDELMAkGA1UEBhMCRVMx
DzANBgNVBAoMBlRlbGVjbzEQMA4GA1UEAwwHUm9vdCBDQTCCAiIwDQYJKoZIhvcN
AQEBBQADggIPADCCAgoCggIBAMf3Vw72AUL4OZc1lDJtpJb9F96K7Z+rQ0fvHn+D
R2N++O8bIeUfyTcI4eQ/d5av5VC3yWuEn7KOePLLugQwcNBsiH8ZuI1aIRhsfmU7
MZVtT0iVHAh1Vx+0fmrwuumE8XsZ4aLI6Yozc+P+E+lJjBSk80KNaoUWXHGFsKIU
phFr99k6V2wPBMNvavnSsIAPhTuJZxTRURNHd6QYpiajuDtvlSRDbqryyX177gKy
n7Zq/++YiIS9PJqr44brmyFDUUNRws0wBmh5NMNi7bYn+kQHgf9fU0rCpvnwNO32
2EDf6p1AV1dgYFfMXnKsosONj+KzDLdupJ52DhdF1suncttyZqQDNos31hGTsh0o
RyrSp4OxHX0I4Je5KEjR+7dfHysAK6cCHOVNHJoOwUGQ0LMzYki4kUCgKT9q5Z48
+Uvj6UOOFJrNQ4DETw/lh1VyIKiKid8LgTOGQza+9yFIqAY6G81XVgoma7nlwchj
S0nGlZPGM8+MDKvDII9IzwG/P3QbRFhmcKmWnYm4PpMH5Xbo0bemLJHDvE/DMj9Z
KE5k1+syvLa24mYMbEbxZSvE8ci1haQMFaeoJZ6Yeyx3hgc6OvYszwoB3rDA6cOF
tCM1gLeNn5YcHanH6ASc9AHQTq/00QHs1M2Zjbx/Woe7oegnkNVemc+G5SwK1MbU
yIHjAgMBAAGjQjBAMA8GA1UdEwEB/wQFMAMBAf8wDgYDVR0PAQH/BAQDAgEGMB0G
A1UdDgQWBBQm1AM8PLVb50vkUMCvga1btIjIATANBgkqhkiG9w0BAQsFAAOCAgEA
Kp5nr6qTBdEwB/uhorWP1x26F8WH+64o02+eSsIEN0QRQB8p6gSAeiDzr3uTF/Nj
WA4HeCLUjSP4AD1TlqJbtrOjl7AhGNOlSWRtJFQ0IaRuC+akeZzQ+etkn+jU45Qv
j3z9k24+xWRDzNBodfcKM6cz4WW5K4Y+0pwT2XhSAigRM8zdkt0xNLpMABhDurz+
MvpEydaN+Tf9W71odpyQ/uQaSAVkq+MKW1gWAS7RN4HAR4klamMrdTDbk3eWJjD+
aq4CvfVsLvT36ecEllmF6a2fWypYvnuAE+fXn/FUVZ6cZe2iy1LtFguySgRoQkQ3
lWaZQvE+1rlr4MxrD8m4Q1zU5bBevl8Q/351fu1vz6A46JAb0QCQ/wVAtBPGhH+B
Dql+VWdFpsIbHAv8CTZkcsKvIJfbCs7lTK8/3H2kitmAXkJP5dainJEC1mJssZ/9
stvBXSKTmP4x4mJLZvltHkuyuVTuGdn1lYWUVNDTfLVHdYqdGfg1uzuai+U3MtEl
25yqkRl5Er+0yQMye1JpOpDWvX0WOarqSY9Bf7MjJ88oIBJ1nw7w8tXoxJuYSVgE
KbqDO67+sUw2x7OlET0AM+Wmrf/U8KjzqFBW3bZhhxxrG5r/8wvKjPkngGqRQFu/
EUZmNEB9TRRytDIDBYmlT7Rv7Q3/LhHtR/M1VN151Fg=
-----END CERTIFICATE-----
