Certificate:
    Data:
        Version: 3 (0x2)
        Serial Number:
            09:1c:f0:ef:03:be:43:fa:60:e6:4e:48:38:92:f1:54
        Signature Algorithm: sha256WithRSAEncryption
        Issuer: C=ES, O=Teleco, CN=Root CA
        Validity
            Not Before: Apr  6 10:34:08 2023 GMT
            Not After : Apr  3 10:34:08 2033 GMT
        Subject: C=ES, O=Teleco, CN=clienttls13
        Subject Public Key Info:
            Public Key Algorithm: rsaEncryption
                RSA Public-Key: (2048 bit)
                Modulus:
                    00:cb:55:cf:da:72:56:c7:c2:8f:fe:85:68:b7:e9:
                    26:ec:33:ed:b2:da:bb:5e:64:63:3a:10:f3:59:63:
                    ed:c6:62:7e:9b:35:c7:c6:6b:0c:d8:f4:ea:81:a9:
                    20:c0:2e:65:1f:f0:a7:67:94:8a:1d:61:b0:fa:e5:
                    71:ad:02:39:d9:ee:56:a4:fd:6d:a6:4a:f3:88:ce:
                    84:2b:47:2f:08:b1:8a:ac:3f:53:22:55:e1:6f:21:
                    c2:3c:01:1a:bc:93:79:72:d9:d5:eb:34:ee:50:5e:
                    49:14:86:a4:c8:27:62:69:18:6f:3c:4e:89:df:c9:
                    73:3d:3c:52:c0:76:47:43:ab:92:78:61:c0:d2:4a:
                    61:78:84:e6:50:72:43:f9:f4:7e:cd:67:50:5a:d3:
                    4d:77:23:61:80:4b:c2:d4:71:27:d0:fe:85:3b:b8:
                    ee:a7:e5:36:86:1b:a3:d1:53:41:cc:76:03:b7:6a:
                    d0:93:7d:f3:db:02:d3:ea:fe:b8:c1:98:86:63:53:
                    b2:31:af:eb:c8:f5:06:78:e7:28:ab:d3:c2:5e:59:
                    4a:14:c8:47:28:3d:19:6f:8a:84:1b:d2:a7:85:7f:
                    7d:85:c8:7e:f7:b8:f0:f9:1a:ba:5c:98:83:57:eb:
                    33:a2:db:5a:d8:0a:67:c8:08:93:4a:dd:10:41:22:
                    5a:bd
                Exponent: 65537 (0x10001)
        X509v3 extensions:
            Authority Information Access: 
                CA Issuers - URI:http://root-ca.Teleco.com/root-ca.crt
                OCSP - URI:http://ocsp.root-ca.Teleco.com:9080

            X509v3 Authority Key Identifier: 
                keyid:4F:5C:C0:E0:D3:03:4E:BD:A5:8D:EB:EA:23:DD:29:41:92:E9:2E:AB

            X509v3 Basic Constraints: critical
                CA:FALSE
            X509v3 CRL Distribution Points: 

                Full Name:
                  URI:http://root-ca.Teleco.com/root-ca.crl

            X509v3 Extended Key Usage: 
                TLS Web Client Authentication
            X509v3 Key Usage: critical
                Digital Signature
            X509v3 Subject Key Identifier: 
                57:35:3C:AC:E6:BE:D3:7F:30:58:35:28:33:2F:3C:B6:C4:65:09:DA
    Signature Algorithm: sha256WithRSAEncryption
         47:4c:74:ba:c6:61:15:cd:8e:0a:2e:d9:e4:2d:59:b3:6f:d2:
         af:9b:32:3f:59:ee:d9:a3:b3:74:7b:54:89:23:08:28:d5:17:
         01:4c:3f:57:15:58:18:ec:06:42:f4:6f:62:05:18:0f:f4:f6:
         9e:f3:83:f5:8e:07:f4:67:b3:75:9c:71:79:79:7a:5b:78:4a:
         c8:8b:ef:2a:43:c2:4c:c0:f2:4e:df:4c:9e:48:e0:b9:9f:e3:
         94:a9:d5:50:6e:56:5a:2a:66:2d:2f:18:95:4a:20:33:4d:97:
         77:8b:95:eb:29:30:b9:29:e1:f2:6e:11:8e:e1:d1:1d:05:9d:
         aa:05:7f:8a:0c:cb:c2:ce:a9:d4:91:6c:7c:4e:71:4e:bd:3b:
         7b:a9:b6:81:81:e0:98:ae:91:b4:26:f4:6d:5f:b4:9d:de:c6:
         f1:eb:6a:83:1e:d5:32:3c:d7:e2:bf:75:17:b2:34:8b:05:d5:
         b0:b0:87:f3:f1:6b:ba:27:3e:60:90:20:e2:06:05:2d:33:a8:
         d3:7a:cd:fb:b9:0d:cb:58:a1:8b:6e:df:ac:0f:45:06:af:a0:
         33:cc:1d:45:2e:c6:45:93:8d:e6:1f:5c:7e:41:ef:40:56:fb:
         c6:98:ef:96:61:95:ac:67:e9:e2:41:da:c2:9a:8b:18:7f:b0:
         27:d5:b5:21:be:68:f2:2c:d4:a1:97:be:93:8a:5b:e2:4a:5a:
         a5:85:c0:a6:ba:30:34:c2:95:df:e5:a4:70:4f:77:e0:67:02:
         2f:93:49:2b:c1:52:2c:ba:ac:1c:f4:02:e5:79:ab:dd:1f:9d:
         45:1f:8a:3a:b1:1f:f0:11:38:0f:80:04:e9:15:32:ac:02:a3:
         44:9a:d9:9f:d9:52:b8:a2:fb:73:fe:10:47:93:12:89:18:b7:
         63:53:fa:50:d4:ab:09:cd:8d:a8:12:af:70:21:0b:de:6f:7f:
         02:70:ae:3f:cb:e8:51:91:37:d6:5b:a7:f7:f3:df:40:44:94:
         c9:ef:b0:90:61:83:ec:1a:8a:20:6f:b8:e6:99:98:30:c0:c2:
         63:b2:d8:e0:15:ae:82:d5:8b:aa:3d:2f:34:4b:1a:ea:2b:5b:
         87:48:42:4d:2b:12:6a:91:38:5b:91:f8:52:e0:eb:a7:6c:3d:
         79:17:dd:47:7a:42:de:bf:07:b6:58:ee:d4:55:1f:35:8d:3a:
         bd:d6:83:f9:00:68:38:ea:9d:d5:28:b7:2d:0f:b3:1f:0f:fa:
         5d:31:26:41:45:7f:d2:64:a6:df:87:de:67:09:c9:21:44:f7:
         b5:ad:f3:04:ea:7a:7c:ab:99:5e:f2:27:35:0d:90:f9:ec:50:
         c2:ca:ab:39:0a:6b:bf:c6
-----BEGIN CERTIFICATE-----
MIIFEzCCAvugAwIBAgIQCRzw7wO+Q/pg5k5IOJLxVDANBgkqhkiG9w0BAQsFADAw
MQswCQYDVQQGEwJFUzEPMA0GA1UECgwGVGVsZWNvMRAwDgYDVQQDDAdSb290IENB
MB4XDTIzMDQwNjEwMzQwOFoXDTMzMDQwMzEwMzQwOFowNDELMAkGA1UEBhMCRVMx
DzANBgNVBAoMBlRlbGVjbzEUMBIGA1UEAwwLY2xpZW50dGxzMTMwggEiMA0GCSqG
SIb3DQEBAQUAA4IBDwAwggEKAoIBAQDLVc/aclbHwo/+hWi36SbsM+2y2rteZGM6
EPNZY+3GYn6bNcfGawzY9OqBqSDALmUf8KdnlIodYbD65XGtAjnZ7lak/W2mSvOI
zoQrRy8IsYqsP1MiVeFvIcI8ARq8k3ly2dXrNO5QXkkUhqTIJ2JpGG88TonfyXM9
PFLAdkdDq5J4YcDSSmF4hOZQckP59H7NZ1Ba0013I2GAS8LUcSfQ/oU7uO6n5TaG
G6PRU0HMdgO3atCTffPbAtPq/rjBmIZjU7Ixr+vI9QZ45yir08JeWUoUyEcoPRlv
ioQb0qeFf32FyH73uPD5GrpcmINX6zOi21rYCmfICJNK3RBBIlq9AgMBAAGjggEj
MIIBHzByBggrBgEFBQcBAQRmMGQwMQYIKwYBBQUHMAKGJWh0dHA6Ly9yb290LWNh
LlRlbGVjby5jb20vcm9vdC1jYS5jcnQwLwYIKwYBBQUHMAGGI2h0dHA6Ly9vY3Nw
LnJvb3QtY2EuVGVsZWNvLmNvbTo5MDgwMB8GA1UdIwQYMBaAFE9cwODTA069pY3r
6iPdKUGS6S6rMAwGA1UdEwEB/wQCMAAwNgYDVR0fBC8wLTAroCmgJ4YlaHR0cDov
L3Jvb3QtY2EuVGVsZWNvLmNvbS9yb290LWNhLmNybDATBgNVHSUEDDAKBggrBgEF
BQcDAjAOBgNVHQ8BAf8EBAMCB4AwHQYDVR0OBBYEFFc1PKzmvtN/MFg1KDMvPLbE
ZQnaMA0GCSqGSIb3DQEBCwUAA4ICAQBHTHS6xmEVzY4KLtnkLVmzb9KvmzI/We7Z
o7N0e1SJIwgo1RcBTD9XFVgY7AZC9G9iBRgP9Pae84P1jgf0Z7N1nHF5eXpbeErI
i+8qQ8JMwPJO30yeSOC5n+OUqdVQblZaKmYtLxiVSiAzTZd3i5XrKTC5KeHybhGO
4dEdBZ2qBX+KDMvCzqnUkWx8TnFOvTt7qbaBgeCYrpG0JvRtX7Sd3sbx62qDHtUy
PNfiv3UXsjSLBdWwsIfz8Wu6Jz5gkCDiBgUtM6jTes37uQ3LWKGLbt+sD0UGr6Az
zB1FLsZFk43mH1x+Qe9AVvvGmO+WYZWsZ+niQdrCmosYf7An1bUhvmjyLNShl76T
ilviSlqlhcCmujA0wpXf5aRwT3fgZwIvk0krwVIsuqwc9ALleavdH51FH4o6sR/w
ETgPgATpFTKsAqNEmtmf2VK4ovtz/hBHkxKJGLdjU/pQ1KsJzY2oEq9wIQveb38C
cK4/y+hRkTfWW6f3899ARJTJ77CQYYPsGoogb7jmmZgwwMJjstjgFa6C1YuqPS80
SxrqK1uHSEJNKxJqkThbkfhS4OunbD15F91HekLevwe2WO7UVR81jTq91oP5AGg4
6p3VKLctD7MfD/pdMSZBRX/SZKbfh95nCckhRPe1rfME6np8q5le8ic1DZD57FDC
yqs5Cmu/xg==
-----END CERTIFICATE-----
