Certificate:
    Data:
        Version: 3 (0x2)
        Serial Number:
            09:1c:f0:ef:03:be:43:fa:60:e6:4e:48:38:92:f1:1f
        Signature Algorithm: sha256WithRSAEncryption
        Issuer: C=ES, O=Teleco, CN=Root CA
        Validity
            Not Before: Jan 11 18:07:51 2023 GMT
            Not After : Jan  8 18:07:51 2033 GMT
        Subject: C=ES, O=Teleco, CN=Client CA
        Subject Public Key Info:
            Public Key Algorithm: rsaEncryption
                RSA Public-Key: (4096 bit)
                Modulus:
                    00:b2:27:94:c5:65:f2:33:93:89:56:d3:87:a8:ab:
                    b4:8e:17:d8:54:3f:b0:8e:4e:c1:a3:cc:97:84:07:
                    cf:87:4c:53:de:a1:3c:51:11:88:d2:41:49:a7:4e:
                    0f:ef:db:7e:2b:f9:d6:23:92:27:9c:cc:85:04:e5:
                    71:ee:4d:8d:39:bf:61:1d:21:90:8a:c3:e3:f7:dc:
                    83:4a:c8:e9:2f:73:1d:4d:58:9b:f1:75:47:57:3d:
                    3e:37:c2:70:c7:b4:8f:d2:15:e3:1d:1f:f8:b2:4b:
                    16:6e:1d:9e:81:a8:21:79:43:9a:5d:bf:9f:91:b0:
                    7e:a1:dc:8e:ab:9c:fc:3c:80:cb:b5:55:a0:f9:35:
                    90:bc:49:af:6b:ba:8b:02:94:1e:4a:51:fb:bd:da:
                    ba:3b:d3:1f:b2:e8:9d:6b:79:bf:b4:3c:1a:82:54:
                    fa:d9:76:2f:1d:ef:5b:d7:e5:b1:a1:9e:d3:7e:3a:
                    7a:31:a4:aa:66:af:b6:96:f8:d6:6f:bf:b3:e2:32:
                    d7:d5:a4:9c:50:16:4d:9d:de:78:ff:0e:60:9c:3b:
                    e0:60:05:50:79:19:15:85:7f:9f:2f:0f:4f:67:e8:
                    59:f1:e2:aa:3e:96:a0:f6:b9:80:11:80:56:ff:16:
                    cb:69:23:23:53:33:62:93:9c:fe:f4:4a:42:9c:15:
                    7d:c6:44:af:9a:67:dc:61:c2:33:b4:de:b1:9e:4c:
                    cd:52:69:db:c7:ca:6c:f4:53:04:11:79:36:c0:72:
                    72:6c:b9:83:2b:aa:c9:7f:e0:9f:0b:0d:57:97:49:
                    26:e8:e4:e2:77:0c:89:16:95:be:8a:3f:03:2a:81:
                    b7:4f:cb:81:db:cf:ec:fe:ec:3f:7f:8c:46:20:59:
                    ff:71:cc:27:fb:be:bf:a7:d1:cf:65:bf:5f:97:7f:
                    05:bb:aa:87:68:8b:e8:22:ad:a1:c4:39:c7:c7:a2:
                    5d:bb:7d:5f:a8:c9:6e:af:7b:15:02:c9:17:f4:62:
                    95:50:be:4f:07:50:33:c8:d6:4f:c3:61:31:98:07:
                    39:9c:3e:a7:9b:50:cc:d1:f9:e7:c3:4e:19:94:15:
                    57:bf:b1:88:48:69:3c:ff:c5:37:f3:cc:d0:47:75:
                    5d:8e:00:c7:5a:2b:21:5a:d6:c6:b8:07:d1:d5:2a:
                    4d:c7:f3:f8:d3:aa:e3:e2:8d:ee:6f:62:31:fb:31:
                    91:12:69:aa:d3:bf:0e:1e:0e:94:34:71:1c:a3:08:
                    a6:ad:1f:9f:d7:97:ee:db:74:c5:95:68:e6:c2:cf:
                    df:e5:c9:25:82:5f:3a:d6:9f:df:75:61:90:e9:45:
                    a6:9a:03:35:46:75:06:cc:6a:42:b3:6f:17:c2:a0:
                    12:7f:6f
                Exponent: 65537 (0x10001)
        X509v3 extensions:
            Authority Information Access: 
                CA Issuers - URI:http://root-ca.Teleco.com/root-ca.crt
                OCSP - URI:http://ocsp.root-ca.Teleco.com:9080

            X509v3 Authority Key Identifier: 
                keyid:6E:94:60:81:1F:BD:23:A6:14:8F:4D:39:9E:F1:F9:67:CB:CC:95:6B

            X509v3 Basic Constraints: critical
                CA:TRUE, pathlen:0
            X509v3 CRL Distribution Points: 

                Full Name:
                  URI:http://root-ca.Teleco.com/root-ca.crl

            X509v3 Extended Key Usage: 
                TLS Web Client Authentication, TLS Web Server Authentication
            X509v3 Key Usage: critical
                Certificate Sign, CRL Sign
            X509v3 Name Constraints: 
                Permitted:
                  DNS:example.com
                  DNS:example.org
                Excluded:
                  IP:0.0.0.0/0.0.0.0
                  IP:0:0:0:0:0:0:0:0/0:0:0:0:0:0:0:0

            X509v3 Subject Key Identifier: 
                B1:95:C8:1C:9F:36:2E:E6:4C:C1:44:EE:07:67:29:B9:27:FD:E3:C6
    Signature Algorithm: sha256WithRSAEncryption
         4c:8f:1a:64:90:e8:c8:c1:cd:03:aa:b7:2c:2e:7e:88:47:3b:
         3b:51:84:71:62:ba:96:f2:81:db:5a:ea:fa:8d:47:85:c7:28:
         21:a6:63:ca:6b:00:f7:9b:27:ea:13:c4:a4:0e:d9:a8:5d:22:
         1e:86:d1:5b:fb:68:45:8e:73:42:96:3b:c7:34:fc:82:8b:e4:
         6a:a2:9d:35:3c:f6:c5:80:c5:07:53:1a:90:f5:21:1e:29:cd:
         5f:82:19:1c:48:d5:c3:aa:01:61:4e:b2:7e:d0:30:2b:f9:b7:
         17:fa:ab:04:0a:2d:4e:c5:fc:3e:29:4e:cb:98:4b:aa:b3:72:
         85:9e:30:4d:37:05:32:58:db:a2:f6:fe:a1:02:63:18:ee:ed:
         77:f2:13:95:1a:ad:c9:63:07:2d:39:d3:93:48:e6:64:e2:7d:
         05:54:4d:ec:5f:fb:ec:f7:44:9f:1d:5f:b5:03:99:f3:e1:bd:
         90:02:f3:37:4b:15:31:a8:f8:7d:d0:50:1e:e4:55:34:7f:a5:
         41:2b:04:ac:38:6d:37:06:de:40:5f:e2:87:08:91:93:a3:0f:
         9c:01:4f:1c:a5:95:0a:52:fc:35:a2:ac:0a:c2:6f:36:dd:b6:
         84:69:39:08:80:4f:48:c8:16:3d:c7:4e:72:d6:5c:4f:b1:c0:
         89:f6:d4:9f:63:6c:13:a4:6a:aa:5c:ae:da:98:f1:74:46:2b:
         73:8a:ba:07:b3:00:cd:dc:e5:39:f8:83:67:93:a1:45:fe:60:
         3a:90:16:16:e1:7c:5a:1f:56:6f:d9:48:c0:e7:15:72:95:a7:
         1f:5f:72:34:60:63:92:df:29:60:fc:ca:d4:4a:f7:a0:70:ab:
         dc:1f:d6:70:69:78:fc:ab:b2:5e:27:55:b6:52:44:38:48:1f:
         50:e9:f4:a9:14:a4:98:a1:f2:7e:8b:43:b6:65:62:91:a6:b3:
         84:39:21:55:19:d9:ee:67:b7:09:63:19:35:58:0e:b8:e9:49:
         9b:20:52:2d:fd:7b:73:fc:0e:c4:43:e0:e7:c4:44:af:33:45:
         86:e8:5a:44:87:f9:f3:f0:60:56:49:32:9a:89:ef:6a:4c:a4:
         6c:af:65:5c:06:9a:6f:da:69:6d:07:30:27:e9:d8:0f:64:54:
         b8:5d:e1:9f:97:0a:97:fa:4c:7a:93:ea:a5:42:fd:91:7a:c3:
         6b:81:50:6e:4d:e4:4f:2d:38:08:f0:d6:22:1e:92:f2:24:0a:
         79:9e:2f:b2:7f:b4:7c:47:f9:35:c8:8f:bb:98:b2:64:88:54:
         4d:90:91:03:e0:74:66:a0:1a:56:f4:ec:b6:c5:17:b4:8c:58:
         9d:f9:91:36:81:9a:e1:31
-----BEGIN CERTIFICATE-----
MIIGfjCCBGagAwIBAgIQCRzw7wO+Q/pg5k5IOJLxHzANBgkqhkiG9w0BAQsFADAw
MQswCQYDVQQGEwJFUzEPMA0GA1UECgwGVGVsZWNvMRAwDgYDVQQDDAdSb290IENB
MB4XDTIzMDExMTE4MDc1MVoXDTMzMDEwODE4MDc1MVowMjELMAkGA1UEBhMCRVMx
DzANBgNVBAoMBlRlbGVjbzESMBAGA1UEAwwJQ2xpZW50IENBMIICIjANBgkqhkiG
9w0BAQEFAAOCAg8AMIICCgKCAgEAsieUxWXyM5OJVtOHqKu0jhfYVD+wjk7Bo8yX
hAfPh0xT3qE8URGI0kFJp04P79t+K/nWI5InnMyFBOVx7k2NOb9hHSGQisPj99yD
SsjpL3MdTVib8XVHVz0+N8Jwx7SP0hXjHR/4sksWbh2egagheUOaXb+fkbB+odyO
q5z8PIDLtVWg+TWQvEmva7qLApQeSlH7vdq6O9Mfsuida3m/tDwaglT62XYvHe9b
1+WxoZ7Tfjp6MaSqZq+2lvjWb7+z4jLX1aScUBZNnd54/w5gnDvgYAVQeRkVhX+f
Lw9PZ+hZ8eKqPpag9rmAEYBW/xbLaSMjUzNik5z+9EpCnBV9xkSvmmfcYcIztN6x
nkzNUmnbx8ps9FMEEXk2wHJybLmDK6rJf+CfCw1Xl0km6OTidwyJFpW+ij8DKoG3
T8uB28/s/uw/f4xGIFn/ccwn+76/p9HPZb9fl38Fu6qHaIvoIq2hxDnHx6Jdu31f
qMlur3sVAskX9GKVUL5PB1AzyNZPw2ExmAc5nD6nm1DM0fnnw04ZlBVXv7GISGk8
/8U388zQR3VdjgDHWishWtbGuAfR1SpNx/P406rj4o3ub2Ix+zGREmmq078OHg6U
NHEcowimrR+f15fu23TFlWjmws/f5cklgl861p/fdWGQ6UWmmgM1RnUGzGpCs28X
wqASf28CAwEAAaOCAZAwggGMMHIGCCsGAQUFBwEBBGYwZDAxBggrBgEFBQcwAoYl
aHR0cDovL3Jvb3QtY2EuVGVsZWNvLmNvbS9yb290LWNhLmNydDAvBggrBgEFBQcw
AYYjaHR0cDovL29jc3Aucm9vdC1jYS5UZWxlY28uY29tOjkwODAwHwYDVR0jBBgw
FoAUbpRggR+9I6YUj005nvH5Z8vMlWswEgYDVR0TAQH/BAgwBgEB/wIBADA2BgNV
HR8ELzAtMCugKaAnhiVodHRwOi8vcm9vdC1jYS5UZWxlY28uY29tL3Jvb3QtY2Eu
Y3JsMB0GA1UdJQQWMBQGCCsGAQUFBwMCBggrBgEFBQcDATAOBgNVHQ8BAf8EBAMC
AQYwWwYDVR0eBFQwUqAeMA2CC2V4YW1wbGUuY29tMA2CC2V4YW1wbGUub3JnoTAw
CocIAAAAAAAAAAAwIocgAAAAAAAAAAAAAAAAAAAAAAAAAAAAAAAAAAAAAAAAAAAw
HQYDVR0OBBYEFLGVyByfNi7mTMFE7gdnKbkn/ePGMA0GCSqGSIb3DQEBCwUAA4IC
AQBMjxpkkOjIwc0DqrcsLn6IRzs7UYRxYrqW8oHbWur6jUeFxyghpmPKawD3myfq
E8SkDtmoXSIehtFb+2hFjnNCljvHNPyCi+Rqop01PPbFgMUHUxqQ9SEeKc1fghkc
SNXDqgFhTrJ+0DAr+bcX+qsECi1Oxfw+KU7LmEuqs3KFnjBNNwUyWNui9v6hAmMY
7u138hOVGq3JYwctOdOTSOZk4n0FVE3sX/vs90SfHV+1A5nz4b2QAvM3SxUxqPh9
0FAe5FU0f6VBKwSsOG03Bt5AX+KHCJGTow+cAU8cpZUKUvw1oqwKwm823baEaTkI
gE9IyBY9x05y1lxPscCJ9tSfY2wTpGqqXK7amPF0RitziroHswDN3OU5+INnk6FF
/mA6kBYW4XxaH1Zv2UjA5xVylacfX3I0YGOS3ylg/MrUSvegcKvcH9ZwaXj8q7Je
J1W2UkQ4SB9Q6fSpFKSYofJ+i0O2ZWKRprOEOSFVGdnuZ7cJYxk1WA646UmbIFIt
/Xtz/A7EQ+DnxESvM0WG6FpEh/nz8GBWSTKaie9qTKRsr2VcBppv2mltBzAn6dgP
ZFS4XeGflwqX+kx6k+qlQv2ResNrgVBuTeRPLTgI8NYiHpLyJAp5ni+yf7R8R/k1
yI+7mLJkiFRNkJED4HRmoBpW9Oy2xRe0jFid+ZE2gZrhMQ==
-----END CERTIFICATE-----
