Certificate:
    Data:
        Version: 3 (0x2)
        Serial Number:
            09:1c:f0:ef:03:be:43:fa:60:e6:4e:48:38:92:f1:51
        Signature Algorithm: sha256WithRSAEncryption
        Issuer: C=ES, O=Teleco, CN=Root CA
        Validity
            Not Before: Apr  5 20:21:36 2023 GMT
            Not After : Apr  2 20:21:36 2033 GMT
        Subject: C=ES, O=Teleco, CN=servertls13
        Subject Public Key Info:
            Public Key Algorithm: rsaEncryption
                RSA Public-Key: (1512 bit)
                Modulus:
                    00:95:84:26:b1:58:3f:57:0a:1f:48:a4:5a:ce:01:
                    f8:af:19:81:08:27:f0:98:08:24:a6:4b:ed:2e:9a:
                    43:30:df:b6:ed:4a:a2:8d:93:a1:74:e9:0a:fc:d5:
                    c8:23:c2:3b:b7:e6:fe:3a:18:4a:50:98:e7:f6:31:
                    95:8d:a4:72:aa:e2:78:00:16:55:08:ee:82:ee:92:
                    d6:4e:20:b2:90:3c:aa:1d:6d:ae:01:d1:d4:43:e6:
                    6a:39:c7:45:9a:74:6f:ba:1a:71:a8:5d:a1:b4:c2:
                    20:87:01:79:8d:17:3c:9c:17:fc:31:c5:e1:c1:17:
                    96:b9:ab:57:48:47:4e:b6:4f:40:36:19:d0:30:f7:
                    2d:bd:37:19:08:90:de:c3:9b:dc:04:a3:e7:49:da:
                    e4:cb:c7:7c:0d:86:fe:ae:9c:07:fe:e3:79:13:0b:
                    b9:75:c8:62:96:33:cd:9b:25:45:04:f0:2f:b3:13:
                    5a:85:8a:e2:4b:43:df:b4:8d:c5
                Exponent: 65537 (0x10001)
        X509v3 extensions:
            Authority Information Access: 
                CA Issuers - URI:http://root-ca.Teleco.com/root-ca.crt
                OCSP - URI:http://ocsp.root-ca.Teleco.com:9080

            X509v3 Authority Key Identifier: 
                keyid:4F:5C:C0:E0:D3:03:4E:BD:A5:8D:EB:EA:23:DD:29:41:92:E9:2E:AB

            X509v3 Basic Constraints: critical
                CA:FALSE
            X509v3 CRL Distribution Points: 

                Full Name:
                  URI:http://root-ca.Teleco.com/root-ca.crl

            X509v3 Extended Key Usage: 
                TLS Web Client Authentication, TLS Web Server Authentication
            X509v3 Key Usage: critical
                Digital Signature, Key Encipherment
            X509v3 Subject Key Identifier: 
                03:45:05:D2:FA:2D:B3:C1:AB:B1:CC:81:5D:8E:A2:95:CB:E2:2E:8A
    Signature Algorithm: sha256WithRSAEncryption
         69:53:2c:96:04:9b:b6:87:ce:97:0e:65:9f:d6:ac:bc:c4:f0:
         2c:55:fb:0c:ae:11:c2:ee:ea:45:83:50:62:ec:05:15:83:d9:
         28:25:36:70:bc:6d:54:b3:25:f1:90:75:39:52:56:32:50:ce:
         ee:76:c6:15:6a:6d:0f:0b:28:5c:51:4b:b8:b4:7a:27:f4:9f:
         2e:f5:e8:c0:ab:e0:9e:02:c8:2e:37:2b:af:26:0f:1a:5b:be:
         62:a6:18:1b:f9:5c:e4:ec:42:0b:da:d5:48:19:ec:08:d4:91:
         28:80:d6:31:a9:ea:92:82:cc:1d:db:86:f8:ca:a1:dd:3d:09:
         cf:ae:bf:71:bf:c3:25:5b:5e:10:5a:c2:8d:76:bb:df:e6:fa:
         31:f3:2d:d5:ea:d0:9b:80:30:89:25:52:4d:c7:32:25:08:a6:
         a5:ea:73:27:ff:b4:a0:e4:d3:0b:10:86:4f:d9:ae:44:2e:f8:
         3e:48:37:29:61:6e:a8:45:72:9e:28:73:a3:5c:4d:75:2e:06:
         90:1a:fd:1c:b6:0c:68:56:ee:2e:ea:2c:90:67:2c:96:31:9d:
         1b:40:eb:6a:92:42:08:b2:fb:8d:e5:12:d6:59:3e:36:e0:26:
         c1:8e:d1:d5:41:a3:97:10:b7:49:56:b8:b5:b5:e6:f7:68:0a:
         12:af:01:11:42:f3:72:91:04:bd:4e:76:46:c7:8f:12:e7:67:
         31:dd:aa:15:b4:7b:ad:29:7a:4c:0d:28:b8:b0:04:bc:1c:4d:
         2d:12:40:84:3c:1a:dc:a4:56:e0:6c:16:26:ee:7d:11:9f:94:
         1e:bd:fd:53:0b:43:c9:42:c7:7a:20:a2:b1:29:94:31:5c:49:
         6a:8e:3a:a7:56:f3:6f:15:96:05:f3:36:83:41:82:fe:59:30:
         fd:a1:dd:91:57:18:20:5e:c8:91:d9:9b:12:43:7e:15:51:89:
         de:48:34:87:eb:88:26:8d:1f:2c:18:91:72:0d:1d:66:b4:20:
         28:34:69:35:7f:78:27:3e:f7:5a:01:20:1e:e8:f9:18:83:18:
         23:c2:5e:b9:61:0f:b1:2f:a2:1b:9f:ba:e0:c0:f0:8a:86:ba:
         94:b1:18:f7:cb:c6:ab:b8:30:3b:41:87:49:48:e3:22:43:41:
         54:15:02:50:65:7e:b2:08:5d:3f:ce:c8:01:1e:80:63:3a:92:
         d3:1f:8b:54:6c:5f:34:e2:2c:5d:fc:6f:86:bf:b0:5c:8a:b9:
         72:81:0e:34:0b:d9:af:9c:08:b5:3c:46:4d:5c:5f:9b:f5:d2:
         18:3a:f8:c2:e0:ff:2e:6c:d3:bd:91:55:fc:37:eb:59:f0:8b:
         9f:45:4d:95:5a:d3:fd:12
-----BEGIN CERTIFICATE-----
MIIE1jCCAr6gAwIBAgIQCRzw7wO+Q/pg5k5IOJLxUTANBgkqhkiG9w0BAQsFADAw
MQswCQYDVQQGEwJFUzEPMA0GA1UECgwGVGVsZWNvMRAwDgYDVQQDDAdSb290IENB
MB4XDTIzMDQwNTIwMjEzNloXDTMzMDQwMjIwMjEzNlowNDELMAkGA1UEBhMCRVMx
DzANBgNVBAoMBlRlbGVjbzEUMBIGA1UEAwwLc2VydmVydGxzMTMwgdwwDQYJKoZI
hvcNAQEBBQADgcoAMIHGAoG+AJWEJrFYP1cKH0ikWs4B+K8ZgQgn8JgIJKZL7S6a
QzDftu1Koo2ToXTpCvzVyCPCO7fm/joYSlCY5/YxlY2kcqrieAAWVQjugu6S1k4g
spA8qh1trgHR1EPmajnHRZp0b7oacahdobTCIIcBeY0XPJwX/DHF4cEXlrmrV0hH
TrZPQDYZ0DD3Lb03GQiQ3sOb3ASj50na5MvHfA2G/q6cB/7jeRMLuXXIYpYzzZsl
RQTwL7MTWoWK4ktD37SNxQIDAQABo4IBLTCCASkwcgYIKwYBBQUHAQEEZjBkMDEG
CCsGAQUFBzAChiVodHRwOi8vcm9vdC1jYS5UZWxlY28uY29tL3Jvb3QtY2EuY3J0
MC8GCCsGAQUFBzABhiNodHRwOi8vb2NzcC5yb290LWNhLlRlbGVjby5jb206OTA4
MDAfBgNVHSMEGDAWgBRPXMDg0wNOvaWN6+oj3SlBkukuqzAMBgNVHRMBAf8EAjAA
MDYGA1UdHwQvMC0wK6ApoCeGJWh0dHA6Ly9yb290LWNhLlRlbGVjby5jb20vcm9v
dC1jYS5jcmwwHQYDVR0lBBYwFAYIKwYBBQUHAwIGCCsGAQUFBwMBMA4GA1UdDwEB
/wQEAwIFoDAdBgNVHQ4EFgQUA0UF0vots8GrscyBXY6ilcviLoowDQYJKoZIhvcN
AQELBQADggIBAGlTLJYEm7aHzpcOZZ/WrLzE8CxV+wyuEcLu6kWDUGLsBRWD2Sgl
NnC8bVSzJfGQdTlSVjJQzu52xhVqbQ8LKFxRS7i0eif0ny716MCr4J4CyC43K68m
DxpbvmKmGBv5XOTsQgva1UgZ7AjUkSiA1jGp6pKCzB3bhvjKod09Cc+uv3G/wyVb
XhBawo12u9/m+jHzLdXq0JuAMIklUk3HMiUIpqXqcyf/tKDk0wsQhk/ZrkQu+D5I
NylhbqhFcp4oc6NcTXUuBpAa/Ry2DGhW7i7qLJBnLJYxnRtA62qSQgiy+43lEtZZ
PjbgJsGO0dVBo5cQt0lWuLW15vdoChKvARFC83KRBL1OdkbHjxLnZzHdqhW0e60p
ekwNKLiwBLwcTS0SQIQ8GtykVuBsFibufRGflB69/VMLQ8lCx3ogorEplDFcSWqO
OqdW828VlgXzNoNBgv5ZMP2h3ZFXGCBeyJHZmxJDfhVRid5INIfriCaNHywYkXIN
HWa0ICg0aTV/eCc+91oBIB7o+RiDGCPCXrlhD7EvohufuuDA8IqGupSxGPfLxqu4
MDtBh0lI4yJDQVQVAlBlfrIIXT/OyAEegGM6ktMfi1RsXzTiLF38b4a/sFyKuXKB
DjQL2a+cCLU8Rk1cX5v10hg6+MLg/y5s072RVfw361nwi59FTZVa0/0S
-----END CERTIFICATE-----
