Certificate:
    Data:
        Version: 3 (0x2)
        Serial Number:
            09:1c:f0:ef:03:be:43:fa:60:e6:4e:48:38:92:f1:48
        Signature Algorithm: sha256WithRSAEncryption
        Issuer: C=ES, O=Teleco, CN=Root CA
        Validity
            Not Before: Apr  5 09:40:27 2023 GMT
            Not After : Apr  2 09:40:27 2033 GMT
        Subject: C=ES, O=Teleco, CN=Client CA
        Subject Public Key Info:
            Public Key Algorithm: rsaEncryption
                RSA Public-Key: (4096 bit)
                Modulus:
                    00:cc:10:72:ec:c3:d1:67:0e:22:db:54:96:2d:13:
                    98:03:a6:e8:5a:ec:21:35:20:b7:e5:9a:0f:cd:d0:
                    46:af:3c:11:80:fe:e4:72:13:f0:91:7c:35:a3:2f:
                    ff:c3:85:c1:3d:65:93:67:8f:f0:15:1b:1b:b7:60:
                    99:00:77:33:4c:68:c7:76:91:b8:27:81:d7:d0:53:
                    0b:68:47:2e:06:53:2b:65:8e:6b:af:ce:35:ff:2f:
                    22:86:80:18:7c:7a:0d:06:72:f5:f6:1b:b6:70:7f:
                    1f:c9:eb:90:ba:56:8b:16:9c:d5:ba:67:01:2c:a1:
                    b7:dd:00:08:42:67:21:dc:8c:13:6f:13:b2:1d:e8:
                    29:24:6d:c1:7d:39:20:f8:9f:9a:34:b5:fa:6b:4d:
                    26:f5:27:eb:75:02:24:b0:9e:6e:ac:80:08:ed:cc:
                    41:6d:d8:dc:e5:cb:e9:19:13:b8:12:15:79:34:37:
                    85:7f:1a:ed:47:c9:16:b6:40:83:34:92:97:b0:66:
                    46:2f:d0:3c:96:21:87:87:76:41:bc:92:ba:d8:a4:
                    a0:4b:ee:3d:6b:91:53:da:9c:2d:ed:f0:05:fa:fa:
                    48:34:f8:1f:47:43:cc:86:83:7d:66:9b:f7:73:7c:
                    26:48:07:5a:2c:53:cf:34:4c:4a:e2:ab:b6:57:fa:
                    77:25:3a:ae:2f:2d:18:0d:28:1a:dc:bc:91:2b:59:
                    6e:6e:f5:74:d3:3a:e4:81:c2:bb:e8:52:d8:c2:05:
                    0c:30:90:a4:5e:56:d0:a7:b0:31:68:42:bb:26:f6:
                    a3:e6:e9:15:23:f2:13:39:dd:1c:ce:62:e8:50:34:
                    2a:f0:71:58:fa:88:cc:e1:11:b4:88:23:66:69:80:
                    51:04:3c:b6:e4:0e:97:d4:15:72:eb:50:35:1e:61:
                    98:86:9e:72:16:7f:c7:3c:b5:cb:5d:c5:b5:fe:5a:
                    0b:b2:18:59:ff:c8:55:7b:12:61:4b:be:c1:f7:3d:
                    6a:64:c6:53:4d:b0:f3:1a:9d:e5:5c:47:21:34:ff:
                    90:11:a1:59:84:58:8d:55:9e:22:03:fc:de:ce:aa:
                    a2:af:39:1f:f3:58:c3:87:81:b2:77:f4:01:50:6b:
                    91:58:21:a0:35:44:cf:b7:36:62:40:77:f4:f8:2d:
                    f4:b1:60:e6:9b:06:12:b1:74:d7:46:f1:54:a1:e1:
                    98:91:08:d4:07:1a:c9:f6:b3:5d:b0:a9:96:2a:3b:
                    0f:8f:52:d6:24:37:24:a1:ad:63:e3:da:af:f2:97:
                    40:cb:c9:fa:63:1f:95:47:dd:eb:4b:f1:26:95:46:
                    a5:d5:43:f3:8e:cc:b1:d5:7a:98:7f:6e:e4:33:a0:
                    ea:c6:49
                Exponent: 65537 (0x10001)
        X509v3 extensions:
            Authority Information Access: 
                CA Issuers - URI:http://root-ca.Teleco.com/root-ca.crt
                OCSP - URI:http://ocsp.root-ca.Teleco.com:9080

            X509v3 Authority Key Identifier: 
                keyid:4F:5C:C0:E0:D3:03:4E:BD:A5:8D:EB:EA:23:DD:29:41:92:E9:2E:AB

            X509v3 Basic Constraints: critical
                CA:TRUE, pathlen:0
            X509v3 CRL Distribution Points: 

                Full Name:
                  URI:http://root-ca.Teleco.com/root-ca.crl

            X509v3 Extended Key Usage: 
                TLS Web Client Authentication, TLS Web Server Authentication
            X509v3 Key Usage: critical
                Certificate Sign, CRL Sign
            X509v3 Subject Key Identifier: 
                F2:6C:06:3E:0B:82:A2:58:20:F4:65:DE:2C:FD:C3:E5:E2:13:A1:58
    Signature Algorithm: sha256WithRSAEncryption
         2b:c1:93:2a:b1:7b:73:87:83:8b:e1:60:70:05:41:a2:90:75:
         14:99:66:bd:98:69:b2:46:c1:fb:11:da:b1:c8:ca:e7:07:9b:
         9a:38:9f:7e:32:c6:45:30:0b:8c:34:f9:d5:99:56:21:85:62:
         29:ff:cf:b8:d1:84:c3:b8:f8:ad:48:10:8a:87:8a:da:6f:d0:
         74:f5:42:9f:cf:a5:18:78:57:a4:00:b9:c8:ad:f7:0a:e2:01:
         cc:37:6c:9e:8e:43:84:73:94:5c:5f:03:a6:d2:eb:26:62:07:
         aa:8d:7f:1e:18:63:bc:e3:c6:3a:ef:5e:b3:11:3e:f9:be:8c:
         1d:4e:f6:74:9b:c4:16:f6:f5:58:bb:f5:6c:59:54:18:fa:29:
         fc:da:03:fd:1c:c0:69:c2:cb:b0:55:1b:e1:5d:d4:21:c4:49:
         76:95:7f:fe:bb:19:13:0f:5b:2d:57:de:88:16:38:4b:6a:79:
         35:38:3e:ba:03:51:67:d8:f2:0f:37:79:f9:0f:55:61:c6:f8:
         27:aa:7b:87:7d:12:79:e0:7e:ea:a1:9c:55:70:fb:f8:a1:f1:
         00:e2:d7:97:4b:dc:52:88:f1:bb:72:1e:b5:e5:aa:6b:21:2f:
         7a:4c:a3:11:c8:67:32:d5:50:5b:7b:15:56:22:34:37:d1:07:
         44:98:24:34:a2:28:b5:75:60:09:f6:6e:b1:4e:4c:c3:0e:d8:
         08:e8:d4:4f:6e:d5:f8:56:89:10:9e:33:68:e9:37:4d:46:9f:
         8e:ef:9d:42:a1:5b:da:7a:8a:85:b8:33:61:09:45:5a:d5:d6:
         b2:53:2b:37:7f:8c:f6:f6:a9:8c:fd:75:f6:72:be:9a:1d:bf:
         21:bf:a2:34:79:c4:11:95:17:97:64:ab:80:cc:33:20:f7:26:
         9d:4f:4a:01:0d:53:6b:73:66:92:8e:ce:d9:cf:a7:8b:3c:8b:
         2b:52:26:0f:5b:7b:bd:fd:a4:5f:a0:97:10:63:e8:88:6b:6c:
         61:43:c6:2b:0c:fd:66:aa:7b:04:4f:f2:9f:56:8e:fe:45:70:
         ed:0f:4c:f9:b3:ed:89:85:a5:d4:21:46:ab:ad:76:e7:31:be:
         71:7b:34:ec:9b:fb:b1:9d:00:97:94:52:20:9e:2b:f6:81:c8:
         c0:ae:03:67:6c:b1:f0:43:65:c9:04:e0:27:f3:59:01:34:73:
         44:79:66:60:ec:a9:a8:1a:11:aa:d2:9b:22:6a:89:2c:19:94:
         48:fc:d4:38:2a:7e:11:90:28:b2:2f:70:5d:be:22:35:1f:b4:
         36:ed:ed:0a:2f:95:2f:3f:63:82:20:67:fe:b0:2f:46:4a:53:
         35:0c:64:cc:b3:35:6a:e4
-----BEGIN CERTIFICATE-----
MIIGITCCBAmgAwIBAgIQCRzw7wO+Q/pg5k5IOJLxSDANBgkqhkiG9w0BAQsFADAw
MQswCQYDVQQGEwJFUzEPMA0GA1UECgwGVGVsZWNvMRAwDgYDVQQDDAdSb290IENB
MB4XDTIzMDQwNTA5NDAyN1oXDTMzMDQwMjA5NDAyN1owMjELMAkGA1UEBhMCRVMx
DzANBgNVBAoMBlRlbGVjbzESMBAGA1UEAwwJQ2xpZW50IENBMIICIjANBgkqhkiG
9w0BAQEFAAOCAg8AMIICCgKCAgEAzBBy7MPRZw4i21SWLROYA6boWuwhNSC35ZoP
zdBGrzwRgP7kchPwkXw1oy//w4XBPWWTZ4/wFRsbt2CZAHczTGjHdpG4J4HX0FML
aEcuBlMrZY5rr841/y8ihoAYfHoNBnL19hu2cH8fyeuQulaLFpzVumcBLKG33QAI
Qmch3IwTbxOyHegpJG3BfTkg+J+aNLX6a00m9SfrdQIksJ5urIAI7cxBbdjc5cvp
GRO4EhV5NDeFfxrtR8kWtkCDNJKXsGZGL9A8liGHh3ZBvJK62KSgS+49a5FT2pwt
7fAF+vpINPgfR0PMhoN9Zpv3c3wmSAdaLFPPNExK4qu2V/p3JTquLy0YDSga3LyR
K1lubvV00zrkgcK76FLYwgUMMJCkXlbQp7AxaEK7Jvaj5ukVI/ITOd0czmLoUDQq
8HFY+ojM4RG0iCNmaYBRBDy25A6X1BVy61A1HmGYhp5yFn/HPLXLXcW1/loLshhZ
/8hVexJhS77B9z1qZMZTTbDzGp3lXEchNP+QEaFZhFiNVZ4iA/zezqqirzkf81jD
h4Gyd/QBUGuRWCGgNUTPtzZiQHf0+C30sWDmmwYSsXTXRvFUoeGYkQjUBxrJ9rNd
sKmWKjsPj1LWJDckoa1j49qv8pdAy8n6Yx+VR93rS/EmlUal1UPzjsyx1XqYf27k
M6DqxkkCAwEAAaOCATMwggEvMHIGCCsGAQUFBwEBBGYwZDAxBggrBgEFBQcwAoYl
aHR0cDovL3Jvb3QtY2EuVGVsZWNvLmNvbS9yb290LWNhLmNydDAvBggrBgEFBQcw
AYYjaHR0cDovL29jc3Aucm9vdC1jYS5UZWxlY28uY29tOjkwODAwHwYDVR0jBBgw
FoAUT1zA4NMDTr2ljevqI90pQZLpLqswEgYDVR0TAQH/BAgwBgEB/wIBADA2BgNV
HR8ELzAtMCugKaAnhiVodHRwOi8vcm9vdC1jYS5UZWxlY28uY29tL3Jvb3QtY2Eu
Y3JsMB0GA1UdJQQWMBQGCCsGAQUFBwMCBggrBgEFBQcDATAOBgNVHQ8BAf8EBAMC
AQYwHQYDVR0OBBYEFPJsBj4LgqJYIPRl3iz9w+XiE6FYMA0GCSqGSIb3DQEBCwUA
A4ICAQArwZMqsXtzh4OL4WBwBUGikHUUmWa9mGmyRsH7EdqxyMrnB5uaOJ9+MsZF
MAuMNPnVmVYhhWIp/8+40YTDuPitSBCKh4rab9B09UKfz6UYeFekALnIrfcK4gHM
N2yejkOEc5RcXwOm0usmYgeqjX8eGGO848Y6716zET75vowdTvZ0m8QW9vVYu/Vs
WVQY+in82gP9HMBpwsuwVRvhXdQhxEl2lX/+uxkTD1stV96IFjhLank1OD66A1Fn
2PIPN3n5D1VhxvgnqnuHfRJ54H7qoZxVcPv4ofEA4teXS9xSiPG7ch615aprIS96
TKMRyGcy1VBbexVWIjQ30QdEmCQ0oii1dWAJ9m6xTkzDDtgI6NRPbtX4VokQnjNo
6TdNRp+O751CoVvaeoqFuDNhCUVa1dayUys3f4z29qmM/XX2cr6aHb8hv6I0ecQR
lReXZKuAzDMg9yadT0oBDVNrc2aSjs7Zz6eLPIsrUiYPW3u9/aRfoJcQY+iIa2xh
Q8YrDP1mqnsET/KfVo7+RXDtD0z5s+2JhaXUIUarrXbnMb5xezTsm/uxnQCXlFIg
niv2gcjArgNnbLHwQ2XJBOAn81kBNHNEeWZg7KmoGhGq0psiaoksGZRI/NQ4Kn4R
kCiyL3BdviI1H7Q27e0KL5UvP2OCIGf+sC9GSlM1DGTMszVq5A==
-----END CERTIFICATE-----
