Certificate:
    Data:
        Version: 3 (0x2)
        Serial Number:
            09:1c:f0:ef:03:be:43:fa:60:e6:4e:48:38:92:f1:3d
        Signature Algorithm: sha256WithRSAEncryption
        Issuer: C=ES, O=Teleco, CN=Root CA
        Validity
            Not Before: Apr  4 13:13:12 2023 GMT
            Not After : Apr  1 13:13:12 2033 GMT
        Subject: C=ES, O=Teleco, CN=Server CA
        Subject Public Key Info:
            Public Key Algorithm: rsaEncryption
                RSA Public-Key: (4096 bit)
                Modulus:
                    00:bc:2d:69:c7:21:ef:b6:98:37:cb:23:00:37:f8:
                    90:e1:1b:88:60:81:06:d4:3e:67:50:da:5a:95:af:
                    20:9c:fa:d5:bd:65:27:b4:62:41:19:03:91:ba:e3:
                    4a:fa:62:6f:31:60:99:1e:dd:d5:c6:40:5f:6b:87:
                    31:27:f4:21:fe:8d:cb:2b:97:7d:b1:7b:05:cb:14:
                    8c:72:7c:d5:35:bc:26:7e:ab:43:99:6a:3c:61:14:
                    f4:37:4e:dc:3e:f2:28:3e:21:86:f5:ee:b4:ed:19:
                    fa:45:cc:4f:31:bf:e0:81:3f:9b:1a:22:6a:1b:a0:
                    d5:37:12:77:60:9b:57:da:cd:4f:b2:64:e4:08:7d:
                    18:46:21:4a:a7:d3:53:e0:d5:16:ed:1f:71:21:49:
                    ec:60:1a:90:61:e8:61:8e:d1:df:cb:61:46:0d:a8:
                    f2:d8:31:b1:e8:9d:b9:4f:3d:46:7d:82:34:c2:98:
                    0f:74:c0:6c:8b:28:b4:8d:89:87:c3:90:ae:ca:73:
                    cf:c0:1f:9d:71:2d:96:66:a7:4c:e7:58:cc:ee:46:
                    ce:3b:73:62:7f:19:03:b5:45:39:68:f2:e8:80:84:
                    bc:5e:90:a5:9d:80:1d:95:ec:ce:24:61:ff:8f:58:
                    8a:eb:30:61:09:54:c2:17:4e:0a:3c:58:bd:62:5f:
                    d2:3e:fe:26:2e:d2:34:91:27:c4:a6:a0:3e:0a:ee:
                    31:66:27:46:18:a4:5b:08:4c:f9:20:d2:d4:ec:40:
                    c2:99:b4:8e:0b:98:c3:df:b0:d3:be:21:21:2f:40:
                    68:dd:49:98:4d:2e:c4:cc:3a:cb:68:10:4d:21:84:
                    17:4b:04:ed:4f:76:80:47:f7:15:f2:79:1b:7e:07:
                    60:c8:ba:bd:fd:ac:18:9a:7f:b0:2b:2b:ad:93:19:
                    f8:7c:09:5b:a6:ce:38:37:b6:21:44:a8:26:95:fa:
                    dc:01:33:68:f1:b7:bd:32:67:eb:60:0d:86:59:a8:
                    15:86:3e:55:f2:36:d7:9d:68:64:c8:7b:d4:e8:ef:
                    35:66:ee:5b:ae:65:6f:56:8a:f2:cf:61:fa:94:8e:
                    f6:32:94:fa:e8:c3:38:87:18:c3:fe:dd:76:68:09:
                    bb:fb:de:c0:0c:a2:5b:3f:d4:25:17:60:97:c1:91:
                    0f:aa:06:d4:d3:c8:64:64:fe:ac:6f:a3:75:b9:0e:
                    0e:52:59:fc:8d:50:85:2f:ac:13:b1:da:30:be:d6:
                    6c:5f:6e:c3:bb:84:b6:3d:27:98:3f:af:25:9a:f8:
                    3a:7e:02:3c:c9:55:e3:3a:f0:a5:52:0a:73:b5:bc:
                    7a:76:85:7b:64:3e:a3:85:fc:e1:95:10:6e:9f:92:
                    4d:61:f5
                Exponent: 65537 (0x10001)
        X509v3 extensions:
            Authority Information Access: 
                OCSP - URI:http://localhost:9080/

            X509v3 Authority Key Identifier: 
                keyid:26:D4:03:3C:3C:B5:5B:E7:4B:E4:50:C0:AF:81:AD:5B:B4:88:C8:01

            X509v3 Basic Constraints: critical
                CA:TRUE, pathlen:0
            X509v3 CRL Distribution Points: 

                Full Name:
                  URI:http://root-ca.Teleco.com/root-ca.crl

            X509v3 Extended Key Usage: 
                TLS Web Client Authentication, TLS Web Server Authentication
            X509v3 Key Usage: critical
                Certificate Sign, CRL Sign
            X509v3 Name Constraints: 
                Permitted:
                  DNS:example.com
                  DNS:example.org
                Excluded:
                  IP:0.0.0.0/0.0.0.0
                  IP:0:0:0:0:0:0:0:0/0:0:0:0:0:0:0:0

            X509v3 Subject Key Identifier: 
                21:9A:D7:40:94:17:FD:73:63:58:AE:F8:6A:CB:55:50:A7:38:D4:59
    Signature Algorithm: sha256WithRSAEncryption
         1d:00:b9:23:72:df:f4:5e:a3:ea:9c:09:6a:f4:2a:09:2e:de:
         dc:32:9b:6b:9c:37:f3:23:ba:71:a9:83:e8:a9:12:bd:e0:4b:
         07:88:23:39:0f:b4:d5:ab:76:13:91:99:ab:61:17:e4:b9:db:
         8f:56:f4:8b:61:57:18:c6:84:85:09:c6:e4:c8:35:17:4e:6d:
         ff:19:54:36:f4:d6:68:c5:16:bf:9e:f6:a3:18:bc:db:68:13:
         20:c6:66:5d:51:61:58:25:27:74:d4:7c:0e:a8:a3:51:52:1f:
         c8:35:e6:ab:4a:3c:94:3f:b7:e0:03:9b:d5:33:6e:85:fc:3d:
         1a:1e:52:ef:ab:e1:42:fa:47:bd:f7:65:ad:04:3f:f8:6b:6f:
         69:27:71:09:20:b1:aa:c1:92:e5:c0:1a:69:c8:0f:5b:e1:54:
         28:50:e3:c0:c0:46:cc:8c:58:28:1d:36:fb:5e:48:75:7e:5e:
         5b:e4:19:76:ad:f8:6c:b6:46:9c:11:1f:f6:38:35:e1:0d:e0:
         21:c0:d3:54:78:3d:80:35:c4:86:13:77:42:c2:34:9b:94:be:
         48:72:96:34:14:fa:80:c2:e2:1a:6d:8a:28:a3:03:68:2c:58:
         72:71:58:da:b1:29:93:83:2a:7f:6a:85:12:88:a9:e0:d5:32:
         2b:4a:5f:66:d3:0a:cc:71:5e:61:5d:09:9a:6b:2e:f8:84:a2:
         c4:93:79:45:cb:53:56:33:7d:24:fe:fe:d1:68:7d:f4:6f:7c:
         1f:c0:37:e8:c0:b5:76:14:20:7b:27:be:49:97:f2:ee:cc:20:
         20:6f:01:3a:8e:ed:c0:5e:2f:46:06:6c:2a:75:32:bb:2c:b3:
         1f:f1:28:41:c5:fd:15:2e:74:10:7e:81:94:58:d0:11:a4:a9:
         2c:dd:b7:fa:a4:51:c0:01:d6:c2:54:4a:fa:57:6d:61:03:28:
         74:b7:e6:a2:db:a8:37:13:e4:6a:e1:66:f3:b3:c3:26:57:4d:
         77:49:95:34:74:01:17:60:bf:f4:12:c4:58:7b:4e:76:3b:a5:
         2d:81:e9:e6:ef:46:8a:03:2b:8b:34:ff:e7:16:ff:28:a3:11:
         81:47:4c:cd:69:3e:ae:1e:35:fb:39:98:ef:21:72:ea:39:2b:
         67:95:7b:b9:6c:03:85:da:1f:eb:d3:34:be:a7:a7:08:0c:3b:
         20:c0:c0:ce:60:e6:3b:0e:f7:2d:58:aa:31:af:bd:64:bf:b0:
         cd:bd:78:49:9e:6b:44:64:f9:02:56:cd:9a:34:fd:e8:88:0d:
         bf:c0:8b:4e:4b:48:21:12:97:e9:85:ae:28:42:57:16:ef:d8:
         19:03:d1:5c:06:99:ca:92
-----BEGIN CERTIFICATE-----
MIIGPjCCBCagAwIBAgIQCRzw7wO+Q/pg5k5IOJLxPTANBgkqhkiG9w0BAQsFADAw
MQswCQYDVQQGEwJFUzEPMA0GA1UECgwGVGVsZWNvMRAwDgYDVQQDDAdSb290IENB
MB4XDTIzMDQwNDEzMTMxMloXDTMzMDQwMTEzMTMxMlowMjELMAkGA1UEBhMCRVMx
DzANBgNVBAoMBlRlbGVjbzESMBAGA1UEAwwJU2VydmVyIENBMIICIjANBgkqhkiG
9w0BAQEFAAOCAg8AMIICCgKCAgEAvC1pxyHvtpg3yyMAN/iQ4RuIYIEG1D5nUNpa
la8gnPrVvWUntGJBGQORuuNK+mJvMWCZHt3VxkBfa4cxJ/Qh/o3LK5d9sXsFyxSM
cnzVNbwmfqtDmWo8YRT0N07cPvIoPiGG9e607Rn6RcxPMb/ggT+bGiJqG6DVNxJ3
YJtX2s1PsmTkCH0YRiFKp9NT4NUW7R9xIUnsYBqQYehhjtHfy2FGDajy2DGx6J25
Tz1GfYI0wpgPdMBsiyi0jYmHw5CuynPPwB+dcS2WZqdM51jM7kbOO3NifxkDtUU5
aPLogIS8XpClnYAdlezOJGH/j1iK6zBhCVTCF04KPFi9Yl/SPv4mLtI0kSfEpqA+
Cu4xZidGGKRbCEz5INLU7EDCmbSOC5jD37DTviEhL0Bo3UmYTS7EzDrLaBBNIYQX
SwTtT3aAR/cV8nkbfgdgyLq9/awYmn+wKyutkxn4fAlbps44N7YhRKgmlfrcATNo
8be9MmfrYA2GWagVhj5V8jbXnWhkyHvU6O81Zu5brmVvVoryz2H6lI72MpT66MM4
hxjD/t12aAm7+97ADKJbP9QlF2CXwZEPqgbU08hkZP6sb6N1uQ4OUln8jVCFL6wT
sdowvtZsX27Du4S2PSeYP68lmvg6fgI8yVXjOvClUgpztbx6doV7ZD6jhfzhlRBu
n5JNYfUCAwEAAaOCAVAwggFMMDIGCCsGAQUFBwEBBCYwJDAiBggrBgEFBQcwAYYW
aHR0cDovL2xvY2FsaG9zdDo5MDgwLzAfBgNVHSMEGDAWgBQm1AM8PLVb50vkUMCv
ga1btIjIATASBgNVHRMBAf8ECDAGAQH/AgEAMDYGA1UdHwQvMC0wK6ApoCeGJWh0
dHA6Ly9yb290LWNhLlRlbGVjby5jb20vcm9vdC1jYS5jcmwwHQYDVR0lBBYwFAYI
KwYBBQUHAwIGCCsGAQUFBwMBMA4GA1UdDwEB/wQEAwIBBjBbBgNVHR4EVDBSoB4w
DYILZXhhbXBsZS5jb20wDYILZXhhbXBsZS5vcmehMDAKhwgAAAAAAAAAADAihyAA
AAAAAAAAAAAAAAAAAAAAAAAAAAAAAAAAAAAAAAAAADAdBgNVHQ4EFgQUIZrXQJQX
/XNjWK74astVUKc41FkwDQYJKoZIhvcNAQELBQADggIBAB0AuSNy3/Reo+qcCWr0
Kgku3twym2ucN/MjunGpg+ipEr3gSweIIzkPtNWrdhORmathF+S5249W9IthVxjG
hIUJxuTINRdObf8ZVDb01mjFFr+e9qMYvNtoEyDGZl1RYVglJ3TUfA6oo1FSH8g1
5qtKPJQ/t+ADm9UzboX8PRoeUu+r4UL6R733Za0EP/hrb2kncQkgsarBkuXAGmnI
D1vhVChQ48DARsyMWCgdNvteSHV+XlvkGXat+Gy2RpwRH/Y4NeEN4CHA01R4PYA1
xIYTd0LCNJuUvkhyljQU+oDC4hptiiijA2gsWHJxWNqxKZODKn9qhRKIqeDVMitK
X2bTCsxxXmFdCZprLviEosSTeUXLU1YzfST+/tFoffRvfB/AN+jAtXYUIHsnvkmX
8u7MICBvATqO7cBeL0YGbCp1Mrsssx/xKEHF/RUudBB+gZRY0BGkqSzdt/qkUcAB
1sJUSvpXbWEDKHS35qLbqDcT5GrhZvOzwyZXTXdJlTR0ARdgv/QSxFh7TnY7pS2B
6ebvRooDK4s0/+cW/yijEYFHTM1pPq4eNfs5mO8hcuo5K2eVe7lsA4XaH+vTNL6n
pwgMOyDAwM5g5jsO9y1YqjGvvWS/sM29eEmea0Rk+QJWzZo0/eiIDb/Ai05LSCES
l+mFrihCVxbv2BkD0VwGmcqS
-----END CERTIFICATE-----
