Certificate:
    Data:
        Version: 3 (0x2)
        Serial Number:
            09:1c:f0:ef:03:be:43:fa:60:e6:4e:48:38:92:f1:29
        Signature Algorithm: sha256WithRSAEncryption
        Issuer: C=ES, O=Teleco, CN=Root CA
        Validity
            Not Before: Mar 26 13:11:54 2023 GMT
            Not After : Mar 23 13:11:54 2033 GMT
        Subject: C=ES, O=Teleco, CN=Client CA
        Subject Public Key Info:
            Public Key Algorithm: rsaEncryption
                RSA Public-Key: (4096 bit)
                Modulus:
                    00:cb:5e:e2:60:b1:8d:dd:fd:58:66:65:86:99:5d:
                    61:88:ab:32:3d:bc:4e:0b:4b:08:ce:d7:0c:11:a2:
                    be:78:bc:7c:40:c1:af:d5:0a:dd:ff:6b:49:87:63:
                    ee:20:bb:50:fa:93:76:3f:da:70:d2:43:89:7e:77:
                    c4:c9:02:1b:32:91:9d:a8:01:7b:eb:83:f7:f0:36:
                    2b:87:2a:c2:ab:83:0d:03:9e:9b:8e:a1:15:45:31:
                    a0:36:e7:db:de:9b:bc:c1:49:74:92:db:14:03:73:
                    0a:77:19:31:e7:a1:52:37:34:15:19:64:ac:ef:8a:
                    b3:69:bc:13:db:ec:39:ac:0c:23:3f:d8:b8:fd:fd:
                    21:7f:6b:0e:06:54:62:32:3d:79:54:d4:cb:4e:43:
                    6a:70:f6:04:b0:f5:f0:6d:3f:e5:e4:ab:84:13:31:
                    1a:7a:22:ee:ba:f7:af:30:d0:b0:b8:7b:2a:88:29:
                    4e:a0:40:d0:35:08:83:e6:af:f4:f2:9b:89:ea:e6:
                    a4:1c:03:04:c4:c4:14:07:4f:93:83:f9:16:8b:b0:
                    a7:48:30:c9:e2:d6:56:f0:40:fb:c9:e7:e7:6a:07:
                    8d:b8:55:ae:d1:e7:dd:c5:1f:83:dc:dd:bc:d3:59:
                    e2:18:f8:44:4b:a9:7b:d6:00:67:41:ba:44:22:23:
                    08:76:2e:48:ac:10:1c:6c:32:88:d7:f0:2d:45:23:
                    43:b8:8d:be:2f:55:5d:91:62:73:67:4d:14:09:1f:
                    6b:ed:04:9f:60:ef:f0:dd:30:9a:bc:4d:b9:5e:bc:
                    40:7f:f3:cc:85:44:50:2f:ff:ea:f4:c9:f9:60:b2:
                    78:e5:07:89:22:e8:5c:4b:49:8e:42:bb:99:fc:06:
                    35:39:05:ac:62:28:04:77:2c:75:5e:4b:77:f1:61:
                    37:bc:3e:e7:71:07:61:0f:ce:83:37:3a:f9:d9:cf:
                    ae:34:d7:73:5d:ce:33:ae:dd:53:4a:95:d7:6c:81:
                    67:2b:39:bd:4c:3e:53:74:97:3e:80:8a:0d:a0:f0:
                    b0:26:ed:27:50:30:3d:d4:89:0b:07:00:7c:9b:e1:
                    a1:7d:80:ff:03:0d:28:33:83:91:3c:f4:e7:2f:41:
                    44:60:05:dd:84:b8:6e:56:d2:c2:a0:9e:e8:98:d0:
                    05:44:9c:25:4b:8d:91:34:db:24:87:8f:79:14:92:
                    d8:bc:e5:8e:f7:e4:72:f9:02:c0:ee:c6:92:c7:67:
                    6e:1f:c8:3c:99:df:b3:e1:0c:2d:0c:bd:c5:28:cf:
                    5e:e3:c3:c1:7f:41:8e:0a:50:db:2f:8e:be:a2:2e:
                    70:a7:40:ce:8f:8c:db:a2:61:d3:7a:79:40:96:9f:
                    59:f2:15
                Exponent: 65537 (0x10001)
        X509v3 extensions:
            Authority Information Access: 
                OCSP - URI:http://localhost:9080/

            X509v3 Authority Key Identifier: 
                keyid:8A:F1:16:09:2A:B1:57:D6:A1:B9:1E:BA:5F:5F:E6:81:DA:98:B4:F9

            X509v3 Basic Constraints: critical
                CA:TRUE, pathlen:0
            X509v3 CRL Distribution Points: 

                Full Name:
                  URI:http://root-ca.Teleco.com/root-ca.crl

            X509v3 Extended Key Usage: 
                TLS Web Client Authentication, TLS Web Server Authentication
            X509v3 Key Usage: critical
                Certificate Sign, CRL Sign
            X509v3 Name Constraints: 
                Permitted:
                  DNS:example.com
                  DNS:example.org
                Excluded:
                  IP:0.0.0.0/0.0.0.0
                  IP:0:0:0:0:0:0:0:0/0:0:0:0:0:0:0:0

            X509v3 Subject Key Identifier: 
                51:BD:94:17:4F:18:64:8B:1E:31:EB:77:EF:93:4B:44:00:2D:DA:DB
    Signature Algorithm: sha256WithRSAEncryption
         88:4c:95:ff:a9:44:6b:00:c9:dd:d3:a0:82:4b:6b:7e:33:f0:
         6b:02:e6:14:84:fb:c8:4d:a5:67:92:ce:10:8e:21:20:4a:3c:
         89:46:14:5d:45:61:2b:29:4e:4d:47:be:bb:8a:2b:a1:fd:a2:
         19:4a:29:e4:fc:93:57:9d:81:1e:74:5a:ea:89:76:c5:71:fd:
         19:55:89:a9:9c:86:d2:d1:f9:f0:00:01:19:af:44:df:0f:24:
         31:e0:bd:27:29:36:69:66:7b:03:3f:a3:b4:99:54:7e:ca:b3:
         07:c5:69:cd:44:33:11:c7:15:fb:a7:52:1a:ed:3f:01:0d:7f:
         1c:c6:a6:d7:6f:5b:8f:a6:14:2c:16:d7:47:f8:82:01:dd:22:
         be:37:f1:a8:61:47:7c:f9:a0:d4:cc:bd:fa:88:d8:44:ba:f0:
         d6:26:61:99:fa:74:6f:2c:e8:91:85:22:21:b7:2e:8d:98:5b:
         e9:72:c7:2f:43:18:c1:31:77:03:fa:f5:30:69:43:d4:fe:64:
         ad:cd:00:81:3e:57:cc:6a:0b:bb:1f:03:b0:bc:8d:3e:ca:a6:
         1f:40:ac:8b:5d:f0:e4:32:c3:af:71:a4:6e:6d:38:6f:6b:04:
         51:63:1e:d9:02:18:25:b4:e4:ca:77:23:91:62:b6:44:0b:bf:
         8c:b7:df:71:f5:53:07:8a:ee:5b:69:83:34:71:ef:0a:e3:93:
         db:de:00:57:57:86:18:09:b5:86:46:a4:e2:7f:7e:c2:45:8e:
         f1:cd:43:10:85:f8:7b:42:ac:fb:d5:0a:b8:e8:4a:dc:57:5e:
         ff:ff:87:11:6a:15:7a:9b:0d:cb:15:ba:b7:42:a3:17:a8:58:
         72:fd:33:10:36:c0:cf:61:f3:f1:36:90:fa:b8:30:e0:3e:8a:
         f1:da:39:a1:fc:f0:9b:ad:b2:21:4c:e8:24:b8:6b:31:6f:77:
         6c:b5:a2:27:c5:a1:04:6f:ae:0e:5b:14:24:b5:bc:53:08:14:
         15:1f:08:51:95:26:ee:3e:90:6d:f8:7f:a0:5d:36:72:3b:e5:
         94:01:ca:5a:b1:9f:60:98:9b:4d:00:3d:4a:79:45:1a:02:bf:
         47:25:6a:72:38:24:54:26:de:13:8a:bd:c0:a4:12:e5:4c:36:
         d8:f6:ff:78:39:bc:b3:a9:68:59:1e:e8:9b:de:0c:e2:f8:3b:
         b5:8b:2f:c1:12:0f:0b:8f:d9:13:d2:9d:88:0b:41:01:a0:22:
         dd:c6:ee:bb:58:ac:04:71:48:d6:a5:b3:ec:05:45:fb:b1:a9:
         b3:a7:78:85:54:aa:4a:84:87:12:7f:9c:93:a6:bd:cd:39:ad:
         45:53:6c:e0:5b:9a:c7:34
-----BEGIN CERTIFICATE-----
MIIGPjCCBCagAwIBAgIQCRzw7wO+Q/pg5k5IOJLxKTANBgkqhkiG9w0BAQsFADAw
MQswCQYDVQQGEwJFUzEPMA0GA1UECgwGVGVsZWNvMRAwDgYDVQQDDAdSb290IENB
MB4XDTIzMDMyNjEzMTE1NFoXDTMzMDMyMzEzMTE1NFowMjELMAkGA1UEBhMCRVMx
DzANBgNVBAoMBlRlbGVjbzESMBAGA1UEAwwJQ2xpZW50IENBMIICIjANBgkqhkiG
9w0BAQEFAAOCAg8AMIICCgKCAgEAy17iYLGN3f1YZmWGmV1hiKsyPbxOC0sIztcM
EaK+eLx8QMGv1Qrd/2tJh2PuILtQ+pN2P9pw0kOJfnfEyQIbMpGdqAF764P38DYr
hyrCq4MNA56bjqEVRTGgNufb3pu8wUl0ktsUA3MKdxkx56FSNzQVGWSs74qzabwT
2+w5rAwjP9i4/f0hf2sOBlRiMj15VNTLTkNqcPYEsPXwbT/l5KuEEzEaeiLuuvev
MNCwuHsqiClOoEDQNQiD5q/08puJ6uakHAMExMQUB0+Tg/kWi7CnSDDJ4tZW8ED7
yefnageNuFWu0efdxR+D3N2801niGPhES6l71gBnQbpEIiMIdi5IrBAcbDKI1/At
RSNDuI2+L1VdkWJzZ00UCR9r7QSfYO/w3TCavE25XrxAf/PMhURQL//q9Mn5YLJ4
5QeJIuhcS0mOQruZ/AY1OQWsYigEdyx1Xkt38WE3vD7ncQdhD86DNzr52c+uNNdz
Xc4zrt1TSpXXbIFnKzm9TD5TdJc+gIoNoPCwJu0nUDA91IkLBwB8m+GhfYD/Aw0o
M4ORPPTnL0FEYAXdhLhuVtLCoJ7omNAFRJwlS42RNNskh495FJLYvOWO9+Ry+QLA
7saSx2duH8g8md+z4QwtDL3FKM9e48PBf0GOClDbL46+oi5wp0DOj4zbomHTenlA
lp9Z8hUCAwEAAaOCAVAwggFMMDIGCCsGAQUFBwEBBCYwJDAiBggrBgEFBQcwAYYW
aHR0cDovL2xvY2FsaG9zdDo5MDgwLzAfBgNVHSMEGDAWgBSK8RYJKrFX1qG5Hrpf
X+aB2pi0+TASBgNVHRMBAf8ECDAGAQH/AgEAMDYGA1UdHwQvMC0wK6ApoCeGJWh0
dHA6Ly9yb290LWNhLlRlbGVjby5jb20vcm9vdC1jYS5jcmwwHQYDVR0lBBYwFAYI
KwYBBQUHAwIGCCsGAQUFBwMBMA4GA1UdDwEB/wQEAwIBBjBbBgNVHR4EVDBSoB4w
DYILZXhhbXBsZS5jb20wDYILZXhhbXBsZS5vcmehMDAKhwgAAAAAAAAAADAihyAA
AAAAAAAAAAAAAAAAAAAAAAAAAAAAAAAAAAAAAAAAADAdBgNVHQ4EFgQUUb2UF08Y
ZIseMet375NLRAAt2tswDQYJKoZIhvcNAQELBQADggIBAIhMlf+pRGsAyd3ToIJL
a34z8GsC5hSE+8hNpWeSzhCOISBKPIlGFF1FYSspTk1HvruKK6H9ohlKKeT8k1ed
gR50WuqJdsVx/RlViamchtLR+fAAARmvRN8PJDHgvScpNmlmewM/o7SZVH7KswfF
ac1EMxHHFfunUhrtPwENfxzGptdvW4+mFCwW10f4ggHdIr438ahhR3z5oNTMvfqI
2ES68NYmYZn6dG8s6JGFIiG3Lo2YW+lyxy9DGMExdwP69TBpQ9T+ZK3NAIE+V8xq
C7sfA7C8jT7Kph9ArItd8OQyw69xpG5tOG9rBFFjHtkCGCW05Mp3I5FitkQLv4y3
33H1UweK7ltpgzRx7wrjk9veAFdXhhgJtYZGpOJ/fsJFjvHNQxCF+HtCrPvVCrjo
StxXXv//hxFqFXqbDcsVurdCoxeoWHL9MxA2wM9h8/E2kPq4MOA+ivHaOaH88Jut
siFM6CS4azFvd2y1oifFoQRvrg5bFCS1vFMIFBUfCFGVJu4+kG34f6BdNnI75ZQB
ylqxn2CYm00APUp5RRoCv0clanI4JFQm3hOKvcCkEuVMNtj2/3g5vLOpaFke6Jve
DOL4O7WLL8ESDwuP2RPSnYgLQQGgIt3G7rtYrARxSNals+wFRfuxqbOneIVUqkqE
hxJ/nJOmvc05rUVTbOBbmsc0
-----END CERTIFICATE-----
