Certificate:
    Data:
        Version: 3 (0x2)
        Serial Number:
            09:1c:f0:ef:03:be:43:fa:60:e6:4e:48:38:92:f1:20
        Signature Algorithm: sha256WithRSAEncryption
        Issuer: C=ES, O=Teleco, CN=Root CA
        Validity
            Not Before: Mar 25 22:50:09 2023 GMT
            Not After : Apr 24 22:50:09 2023 GMT
        Subject: C=ES, O=Teleco, CN=OCSP-Responder
        Subject Public Key Info:
            Public Key Algorithm: rsaEncryption
                RSA Public-Key: (2048 bit)
                Modulus:
                    00:bb:7e:9c:f1:01:1c:1b:1b:88:f0:b6:5f:ee:08:
                    85:aa:a2:a2:67:8a:4f:0e:04:62:85:6a:df:2f:ff:
                    ad:d9:44:43:f4:bd:8e:2b:7d:c4:3b:b2:f0:2a:ba:
                    7e:14:d3:1e:45:96:7d:b5:63:44:5e:09:71:d5:b5:
                    62:de:c4:a3:11:fc:c4:41:7c:1c:98:b3:a3:1d:61:
                    42:d1:ed:38:64:2f:99:c4:8c:9f:95:9b:15:52:4f:
                    c7:60:b9:0a:14:8d:9d:b6:43:5f:94:32:53:3f:87:
                    71:5a:04:be:6d:6c:38:2e:31:4f:56:71:00:26:e6:
                    97:b9:23:98:c4:be:f4:b3:f1:2b:a1:0b:c4:34:b5:
                    82:0c:65:d5:08:a0:bc:25:c5:f1:e2:06:40:c9:30:
                    28:c0:53:35:25:f7:99:7f:31:0c:fe:e5:53:6f:bb:
                    32:6d:ca:43:af:4c:3c:1f:d1:ec:80:ab:eb:d9:2f:
                    20:53:98:05:7b:ac:b5:29:24:50:8b:47:9f:9b:d5:
                    50:d0:96:fe:34:36:df:42:45:55:29:20:5b:dc:ed:
                    c3:a2:92:a3:a8:9d:1a:8f:dd:de:30:19:56:b4:1b:
                    91:fd:c4:0e:52:c5:f5:d7:ce:55:05:df:cd:bd:bc:
                    db:25:eb:ba:6d:89:0f:d2:f0:8f:41:fc:c4:aa:b1:
                    00:01
                Exponent: 65537 (0x10001)
        X509v3 extensions:
            X509v3 Authority Key Identifier: 
                keyid:6E:94:60:81:1F:BD:23:A6:14:8F:4D:39:9E:F1:F9:67:CB:CC:95:6B

            X509v3 Basic Constraints: critical
                CA:FALSE
            X509v3 Extended Key Usage: 
                OCSP Signing
            X509v3 Key Usage: critical
                Digital Signature
            X509v3 Subject Key Identifier: 
                3C:2D:7B:1B:30:9D:35:DD:1F:CE:D0:7D:47:4C:EB:A0:B3:FC:33:62
    Signature Algorithm: sha256WithRSAEncryption
         1b:ad:2f:8c:40:6a:c5:1b:31:dc:95:00:ea:b7:50:73:09:47:
         4f:13:41:e6:5e:4f:ef:e3:39:19:7a:89:2e:a5:72:2e:47:5e:
         e9:32:48:24:97:5e:ad:b0:28:e1:70:92:04:2b:b0:4e:00:ab:
         64:a7:94:ea:46:57:51:eb:2b:e4:c1:57:37:ef:c8:5e:6b:c6:
         89:f2:95:2f:b0:d4:90:ef:05:b7:a6:3f:da:e1:d8:e4:65:79:
         7a:77:e1:44:0c:be:85:d2:5d:5f:1c:30:8b:2b:00:d2:15:04:
         f9:f4:1d:d8:9c:d5:dc:44:44:4f:f9:93:56:c2:01:e9:75:0f:
         27:e9:ac:48:a9:23:cc:60:d0:01:7a:96:e6:1c:0a:24:f5:6d:
         f8:fc:ed:02:7e:1d:76:cc:af:8d:52:34:98:bf:ad:21:b6:e8:
         3e:89:c8:41:68:42:6d:2d:0f:8a:68:f1:1e:94:8c:a0:fc:85:
         0a:83:bb:20:96:ef:fe:96:00:30:80:3d:02:93:06:06:17:d7:
         f8:94:26:36:da:97:fe:7d:87:21:57:eb:b8:c0:42:ab:19:c2:
         ef:6d:da:7d:53:20:2a:21:db:eb:82:73:9d:e6:68:2b:91:02:
         ca:ca:db:15:60:93:89:02:f5:26:e7:f1:45:ef:ee:19:ca:f6:
         76:a7:3a:09:55:9f:be:5e:2c:ab:51:46:bb:b4:e1:72:40:b6:
         1a:b5:55:dc:9c:90:d4:e6:bf:19:ae:93:2e:be:4b:fb:ec:63:
         ba:d4:af:1c:48:1e:4a:74:6a:39:96:d8:6a:f3:11:9d:e6:ee:
         a5:88:be:37:ea:0e:dc:61:84:6b:2d:98:83:62:35:02:ad:ae:
         7d:06:3f:3b:e1:be:8f:b0:10:96:ab:57:d3:45:2b:c9:89:df:
         18:49:15:46:29:b5:f9:55:54:36:62:8e:49:60:c7:ca:6f:27:
         0e:c5:19:30:4c:c3:a7:7b:e0:4f:94:19:f6:4b:07:e1:b3:28:
         0e:d2:c2:17:41:10:e3:5f:d6:32:24:5c:3c:35:4a:0b:95:69:
         7e:48:9f:8d:86:d9:0d:ea:e3:12:fd:1d:a0:54:15:3f:83:ef:
         c2:68:f7:b5:19:1f:03:2a:fb:36:75:96:4a:ee:27:9e:a9:32:
         33:91:5b:ce:6d:e0:e0:80:c1:66:56:f5:05:ec:68:e6:f7:11:
         f8:29:84:0b:13:69:d4:75:84:7a:d9:82:a6:6c:28:e5:67:8f:
         57:cd:95:df:75:45:86:89:a0:31:9e:0a:da:17:c5:67:84:2a:
         05:06:b7:7c:8f:84:01:a9:39:c2:ef:20:f6:aa:63:bb:56:2a:
         24:46:0c:1e:fd:e4:fe:5b
-----BEGIN CERTIFICATE-----
MIIEZjCCAk6gAwIBAgIQCRzw7wO+Q/pg5k5IOJLxIDANBgkqhkiG9w0BAQsFADAw
MQswCQYDVQQGEwJFUzEPMA0GA1UECgwGVGVsZWNvMRAwDgYDVQQDDAdSb290IENB
MB4XDTIzMDMyNTIyNTAwOVoXDTIzMDQyNDIyNTAwOVowNzELMAkGA1UEBhMCRVMx
DzANBgNVBAoMBlRlbGVjbzEXMBUGA1UEAwwOT0NTUC1SZXNwb25kZXIwggEiMA0G
CSqGSIb3DQEBAQUAA4IBDwAwggEKAoIBAQC7fpzxARwbG4jwtl/uCIWqoqJnik8O
BGKFat8v/63ZREP0vY4rfcQ7svAqun4U0x5Fln21Y0ReCXHVtWLexKMR/MRBfByY
s6MdYULR7ThkL5nEjJ+VmxVST8dguQoUjZ22Q1+UMlM/h3FaBL5tbDguMU9WcQAm
5pe5I5jEvvSz8SuhC8Q0tYIMZdUIoLwlxfHiBkDJMCjAUzUl95l/MQz+5VNvuzJt
ykOvTDwf0eyAq+vZLyBTmAV7rLUpJFCLR5+b1VDQlv40Nt9CRVUpIFvc7cOikqOo
nRqP3d4wGVa0G5H9xA5SxfXXzlUF3829vNsl67ptiQ/S8I9B/MSqsQABAgMBAAGj
dTBzMB8GA1UdIwQYMBaAFG6UYIEfvSOmFI9NOZ7x+WfLzJVrMAwGA1UdEwEB/wQC
MAAwEwYDVR0lBAwwCgYIKwYBBQUHAwkwDgYDVR0PAQH/BAQDAgeAMB0GA1UdDgQW
BBQ8LXsbMJ013R/O0H1HTOugs/wzYjANBgkqhkiG9w0BAQsFAAOCAgEAG60vjEBq
xRsx3JUA6rdQcwlHTxNB5l5P7+M5GXqJLqVyLkde6TJIJJderbAo4XCSBCuwTgCr
ZKeU6kZXUesr5MFXN+/IXmvGifKVL7DUkO8Ft6Y/2uHY5GV5enfhRAy+hdJdXxww
iysA0hUE+fQd2JzV3ERET/mTVsIB6XUPJ+msSKkjzGDQAXqW5hwKJPVt+PztAn4d
dsyvjVI0mL+tIbboPonIQWhCbS0PimjxHpSMoPyFCoO7IJbv/pYAMIA9ApMGBhfX
+JQmNtqX/n2HIVfruMBCqxnC723afVMgKiHb64JzneZoK5ECysrbFWCTiQL1Jufx
Re/uGcr2dqc6CVWfvl4sq1FGu7ThckC2GrVV3JyQ1Oa/Ga6TLr5L++xjutSvHEge
SnRqOZbYavMRnebupYi+N+oO3GGEay2Yg2I1Aq2ufQY/O+G+j7AQlqtX00UryYnf
GEkVRim1+VVUNmKOSWDHym8nDsUZMEzDp3vgT5QZ9ksH4bMoDtLCF0EQ41/WMiRc
PDVKC5VpfkifjYbZDerjEv0doFQVP4Pvwmj3tRkfAyr7NnWWSu4nnqkyM5Fbzm3g
4IDBZlb1Bexo5vcR+CmECxNp1HWEetmCpmwo5WePV82V33VFhomgMZ4K2hfFZ4Qq
BQa3fI+EAak5wu8g9qpju1YqJEYMHv3k/ls=
-----END CERTIFICATE-----
