Certificate:
    Data:
        Version: 3 (0x2)
        Serial Number:
            09:1c:f0:ef:03:be:43:fa:60:e6:4e:48:38:92:f1:1d
        Signature Algorithm: sha256WithRSAEncryption
        Issuer: C=ES, O=Teleco, CN=Root CA
        Validity
            Not Before: Jan 11 17:50:47 2023 GMT
            Not After : Jan  8 17:50:47 2033 GMT
        Subject: C=ES, O=Teleco, CN=Root CA
        Subject Public Key Info:
            Public Key Algorithm: rsaEncryption
                RSA Public-Key: (4096 bit)
                Modulus:
                    00:a7:04:30:0f:a3:bd:08:02:ca:f8:4b:7f:5d:ac:
                    7b:41:da:e9:1b:ec:aa:ed:95:22:b6:ec:a1:a6:70:
                    01:cf:d5:aa:2d:c3:14:d7:a1:b2:07:9d:ea:b9:74:
                    75:ab:f0:e9:cc:bc:3b:38:51:a7:f0:7b:05:d9:4e:
                    45:20:89:60:86:14:28:95:77:fc:da:f8:bb:e9:b5:
                    55:a8:dd:9f:41:95:31:f4:0f:b1:03:17:47:93:4b:
                    ca:bb:ef:fc:93:e1:a3:d3:00:a2:a9:1c:c3:70:ec:
                    f2:31:0c:1a:88:3c:81:9b:f4:c4:7a:05:51:71:b5:
                    6d:23:28:e6:e5:fb:6e:85:4d:e4:1c:cd:db:50:24:
                    13:f3:4e:58:01:f3:db:7a:ed:12:18:77:65:f7:54:
                    bb:e7:29:ce:04:a1:6c:67:50:95:e2:cf:ad:ec:b1:
                    80:9c:59:9e:e0:bd:0d:5d:d0:48:9b:ef:dd:45:e5:
                    2d:0b:9a:2d:00:85:8b:d2:a1:c3:fd:bf:1a:08:80:
                    6e:fa:d0:82:91:b3:b1:eb:d1:bd:28:02:7c:d0:17:
                    a5:61:31:51:5a:47:b9:63:db:c4:00:f9:db:17:be:
                    64:a9:50:46:9d:00:2a:29:d4:6d:01:e5:fc:aa:5c:
                    a7:b5:e9:1a:8d:fa:82:21:f7:0d:bf:8f:6e:69:55:
                    f0:ff:47:0d:35:33:b1:ea:d0:f5:9c:9b:2c:9a:fd:
                    e6:0c:b3:fd:ef:4b:d0:0b:76:26:bf:12:2a:99:ab:
                    cf:d5:51:54:3b:5a:fb:b1:7d:bf:e3:86:30:48:37:
                    82:95:e4:60:34:0a:20:00:9e:4b:84:3e:a1:31:11:
                    f7:85:a9:9e:4c:a8:45:ec:3d:c5:f2:cd:ff:e2:9b:
                    6b:96:f9:2d:16:d9:66:b8:e6:6d:72:87:b6:63:0b:
                    39:63:11:86:e0:45:fa:f9:24:84:3d:6d:cd:7d:cb:
                    ac:59:13:14:c7:e3:62:0f:9c:0a:eb:e5:f1:d0:f9:
                    53:a9:70:1b:1a:6c:27:18:99:fa:4c:31:c3:62:5b:
                    31:40:55:f5:02:84:4c:76:97:8e:cb:c5:39:c3:06:
                    29:14:77:0d:48:38:a9:65:50:2b:af:16:d5:bf:89:
                    ab:2c:2d:5b:c0:77:54:a8:1b:c9:52:11:52:b7:93:
                    9d:c6:2e:28:3a:ce:15:fc:2b:f2:69:fb:2a:c9:bf:
                    1c:c9:55:86:4d:3e:b7:35:bb:e4:35:b5:62:3d:d4:
                    8b:ae:58:29:ed:69:9f:86:d5:19:c2:d3:1d:3a:95:
                    18:50:5b:57:46:63:b3:e4:6d:7c:b4:a6:15:ec:f7:
                    51:22:58:f3:49:e3:09:eb:36:81:49:3f:64:e2:2a:
                    2d:7f:af
                Exponent: 65537 (0x10001)
        X509v3 extensions:
            X509v3 Basic Constraints: critical
                CA:TRUE
            X509v3 Key Usage: critical
                Certificate Sign, CRL Sign
            X509v3 Subject Key Identifier: 
                6E:94:60:81:1F:BD:23:A6:14:8F:4D:39:9E:F1:F9:67:CB:CC:95:6B
    Signature Algorithm: sha256WithRSAEncryption
         84:3a:db:a5:75:bc:c5:7b:f9:ec:4d:21:db:15:e1:d3:23:fb:
         52:a6:21:45:6a:58:f4:72:7f:f8:d4:3d:6e:60:4a:93:97:30:
         7a:83:a6:f6:fe:40:3b:06:d2:e0:e0:c4:12:96:6f:53:83:95:
         45:b0:e0:10:c7:c2:48:0d:cc:b9:af:de:61:6f:ec:41:db:de:
         b6:35:a6:51:14:f4:dd:89:50:d7:ee:fa:45:1d:f9:3b:94:23:
         34:7e:f3:98:b3:d4:b4:0a:4c:0e:0c:7b:70:02:f4:a3:c7:17:
         97:0f:c9:89:26:1b:84:9a:f9:85:72:55:a5:ba:9c:04:5c:a2:
         79:eb:d4:13:c4:56:0c:0b:c4:b8:53:f8:16:47:cb:86:b5:38:
         e3:18:5d:25:0a:ca:b3:8c:b4:13:d7:0f:f4:c0:01:a4:cc:31:
         6a:5a:b3:bd:34:66:3b:1b:6c:20:f5:00:46:91:0e:b5:ea:79:
         0d:dc:c9:1a:f6:7f:30:52:f6:24:57:ab:30:56:8f:5a:21:3e:
         42:52:64:5d:e7:91:fa:1e:d7:0e:9d:41:33:11:55:4c:0b:7c:
         9a:3b:f3:f5:d5:20:4b:c9:bd:62:a1:16:6e:85:37:d9:ff:e4:
         8f:8f:d3:c4:13:19:9f:d9:fe:9e:10:b2:e0:fa:25:67:a3:14:
         fa:7b:e9:a8:7f:df:20:32:a9:07:f6:74:9a:f3:a0:4b:87:c9:
         ea:32:21:ca:88:b1:e1:24:4c:74:df:66:3a:99:c5:7e:c8:cf:
         11:b2:e2:a4:b5:8a:71:5d:6b:9f:a2:b5:21:48:dc:5c:97:d1:
         26:c2:e5:bf:94:e3:69:d7:35:cc:29:44:23:a8:ba:8a:c3:d9:
         83:eb:a5:86:2b:63:b4:87:39:54:9b:c8:60:fd:32:22:8f:e8:
         f9:03:8d:58:ce:17:d0:9a:b6:28:63:e1:19:49:33:5b:cd:2c:
         e7:73:36:1b:b3:1f:e6:a9:be:5f:68:dd:6b:94:3e:5f:12:ce:
         93:a8:81:b5:c7:f0:7a:5f:ca:25:71:ab:a5:59:aa:95:12:04:
         c2:18:7d:f5:cf:cb:66:d2:c4:e7:d5:2e:84:b8:58:c3:51:b6:
         13:a1:df:eb:bb:1e:0e:f9:7e:ed:fe:a8:f3:2a:55:9d:2e:45:
         9e:02:b8:45:9c:45:a9:15:64:83:13:da:f8:c0:fb:1e:a0:b5:
         c1:d1:81:ee:03:61:1c:88:24:f5:3f:f3:c4:a8:3c:b1:ab:06:
         07:34:91:d2:ac:03:1f:a1:e6:7b:72:f9:ab:61:04:61:3c:a3:
         be:74:b7:13:4b:0d:85:24:1c:11:5b:10:5f:40:c6:59:93:19:
         fb:ee:7f:c4:f2:90:f0:4e
-----BEGIN CERTIFICATE-----
MIIFLDCCAxSgAwIBAgIQCRzw7wO+Q/pg5k5IOJLxHTANBgkqhkiG9w0BAQsFADAw
MQswCQYDVQQGEwJFUzEPMA0GA1UECgwGVGVsZWNvMRAwDgYDVQQDDAdSb290IENB
MB4XDTIzMDExMTE3NTA0N1oXDTMzMDEwODE3NTA0N1owMDELMAkGA1UEBhMCRVMx
DzANBgNVBAoMBlRlbGVjbzEQMA4GA1UEAwwHUm9vdCBDQTCCAiIwDQYJKoZIhvcN
AQEBBQADggIPADCCAgoCggIBAKcEMA+jvQgCyvhLf12se0Ha6Rvsqu2VIrbsoaZw
Ac/Vqi3DFNehsged6rl0davw6cy8OzhRp/B7BdlORSCJYIYUKJV3/Nr4u+m1Vajd
n0GVMfQPsQMXR5NLyrvv/JPho9MAoqkcw3Ds8jEMGog8gZv0xHoFUXG1bSMo5uX7
boVN5BzN21AkE/NOWAHz23rtEhh3ZfdUu+cpzgShbGdQleLPreyxgJxZnuC9DV3Q
SJvv3UXlLQuaLQCFi9Khw/2/GgiAbvrQgpGzsevRvSgCfNAXpWExUVpHuWPbxAD5
2xe+ZKlQRp0AKinUbQHl/Kpcp7XpGo36giH3Db+PbmlV8P9HDTUzserQ9ZybLJr9
5gyz/e9L0At2Jr8SKpmrz9VRVDta+7F9v+OGMEg3gpXkYDQKIACeS4Q+oTER94Wp
nkyoRew9xfLN/+Kba5b5LRbZZrjmbXKHtmMLOWMRhuBF+vkkhD1tzX3LrFkTFMfj
Yg+cCuvl8dD5U6lwGxpsJxiZ+kwxw2JbMUBV9QKETHaXjsvFOcMGKRR3DUg4qWVQ
K68W1b+JqywtW8B3VKgbyVIRUreTncYuKDrOFfwr8mn7Ksm/HMlVhk0+tzW75DW1
Yj3Ui65YKe1pn4bVGcLTHTqVGFBbV0Zjs+RtfLSmFez3USJY80njCes2gUk/ZOIq
LX+vAgMBAAGjQjBAMA8GA1UdEwEB/wQFMAMBAf8wDgYDVR0PAQH/BAQDAgEGMB0G
A1UdDgQWBBRulGCBH70jphSPTTme8flny8yVazANBgkqhkiG9w0BAQsFAAOCAgEA
hDrbpXW8xXv57E0h2xXh0yP7UqYhRWpY9HJ/+NQ9bmBKk5cweoOm9v5AOwbS4ODE
EpZvU4OVRbDgEMfCSA3Mua/eYW/sQdvetjWmURT03YlQ1+76RR35O5QjNH7zmLPU
tApMDgx7cAL0o8cXlw/JiSYbhJr5hXJVpbqcBFyieevUE8RWDAvEuFP4FkfLhrU4
4xhdJQrKs4y0E9cP9MABpMwxalqzvTRmOxtsIPUARpEOtep5DdzJGvZ/MFL2JFer
MFaPWiE+QlJkXeeR+h7XDp1BMxFVTAt8mjvz9dUgS8m9YqEWboU32f/kj4/TxBMZ
n9n+nhCy4PolZ6MU+nvpqH/fIDKpB/Z0mvOgS4fJ6jIhyoix4SRMdN9mOpnFfsjP
EbLipLWKcV1rn6K1IUjcXJfRJsLlv5Tjadc1zClEI6i6isPZg+ulhitjtIc5VJvI
YP0yIo/o+QONWM4X0Jq2KGPhGUkzW80s53M2G7Mf5qm+X2jda5Q+XxLOk6iBtcfw
el/KJXGrpVmqlRIEwhh99c/LZtLE59UuhLhYw1G2E6Hf67seDvl+7f6o8ypVnS5F
ngK4RZxFqRVkgxPa+MD7HqC1wdGB7gNhHIgk9T/zxKg8sasGBzSR0qwDH6Hme3L5
q2EEYTyjvnS3E0sNhSQcEVsQX0DGWZMZ++5/xPKQ8E4=
-----END CERTIFICATE-----
