Certificate:
    Data:
        Version: 3 (0x2)
        Serial Number:
            09:1c:f0:ef:03:be:43:fa:60:e6:4e:48:38:92:f1:3a
        Signature Algorithm: sha256WithRSAEncryption
        Issuer: C=ES, O=Teleco, CN=Root CA
        Validity
            Not Before: Apr  4 09:26:24 2023 GMT
            Not After : Apr  3 09:26:24 2024 GMT
        Subject: C=ES, O=Teleco, CN=OCSP Responder
        Subject Public Key Info:
            Public Key Algorithm: rsaEncryption
                RSA Public-Key: (2048 bit)
                Modulus:
                    00:a3:ee:09:9a:5d:8a:47:cc:79:ee:4e:a0:54:f8:
                    d1:0e:88:18:a1:7e:e6:0e:df:79:73:58:39:99:de:
                    dd:81:65:ce:10:d3:1f:b5:02:9d:01:af:1f:81:db:
                    0e:d5:b5:89:06:29:ef:06:77:67:67:5b:5b:0a:1c:
                    83:30:a3:13:e5:59:7b:4f:b2:de:53:63:1d:51:a4:
                    43:56:c2:11:94:6a:a9:d6:52:a8:fd:2c:16:cf:55:
                    df:35:75:e7:05:ce:98:1c:06:93:90:16:37:74:a0:
                    f5:3e:7f:07:6b:8b:9e:cb:e9:a1:1b:eb:dc:85:ba:
                    ac:fe:20:44:16:a5:89:16:30:8c:07:f6:33:66:d0:
                    fe:62:dc:c7:4a:d6:81:18:71:ee:79:6d:d3:04:a6:
                    01:6d:94:6f:30:53:7e:58:84:c8:87:e8:10:b6:2f:
                    0c:e5:a2:42:e1:41:71:6e:00:18:44:1a:24:54:19:
                    40:d6:7f:1f:23:49:d1:13:df:72:b9:0a:1e:51:77:
                    55:ea:5e:c6:99:08:87:11:9a:9d:a6:7a:43:e4:c7:
                    d2:e9:4e:ec:50:7c:04:ed:39:29:a2:6f:74:cc:bb:
                    ba:96:b4:14:c6:03:45:57:75:6d:fc:48:94:32:61:
                    be:8c:e3:d5:72:48:bf:4a:b3:07:72:40:60:b3:c6:
                    ba:1f
                Exponent: 65537 (0x10001)
        X509v3 extensions:
            X509v3 Authority Key Identifier: 
                keyid:26:D4:03:3C:3C:B5:5B:E7:4B:E4:50:C0:AF:81:AD:5B:B4:88:C8:01

            X509v3 Basic Constraints: critical
                CA:FALSE
            X509v3 Extended Key Usage: 
                OCSP Signing
            X509v3 Key Usage: critical
                Digital Signature
            X509v3 Subject Key Identifier: 
                94:46:6D:C5:F6:D8:C7:77:07:64:52:F2:9D:35:EA:D9:53:BE:C3:97
    Signature Algorithm: sha256WithRSAEncryption
         7b:ae:3d:49:a9:c3:16:eb:5d:2e:97:44:ae:52:b4:30:0a:76:
         0c:56:78:37:4e:75:b1:84:47:ca:73:71:8b:fc:14:32:74:df:
         57:9c:68:14:b6:7d:ae:78:bf:42:35:cc:a6:39:f8:4c:64:bd:
         ea:c3:97:fb:57:6e:4d:83:37:98:c8:1d:de:7b:56:2f:25:72:
         7b:45:13:26:3c:41:a3:c0:57:b6:6d:ec:11:d8:98:a0:97:7d:
         f8:ca:13:83:e1:0b:a3:46:f3:0b:a3:86:ab:63:55:58:ff:c9:
         21:8c:ff:e7:f9:a2:d8:f2:72:3d:a8:28:d2:72:23:a7:b6:63:
         a4:25:3a:4d:9c:70:18:bd:fd:6c:22:51:dc:57:b7:fe:09:11:
         b4:c7:3e:75:f0:30:3e:3d:07:54:b3:76:57:c8:38:d9:04:af:
         39:d2:f9:d6:41:f2:71:02:13:6c:15:b0:56:ef:94:92:5c:13:
         b6:8c:29:6a:3b:98:48:ce:9e:d2:51:aa:e7:c1:04:53:3c:10:
         5f:60:1e:76:94:3d:d3:6e:31:0f:98:47:1e:74:63:97:4e:7b:
         98:8f:10:db:9f:1b:3f:dc:8f:19:a0:11:35:b0:14:6f:b9:a5:
         c3:58:bc:53:54:23:58:09:23:a0:15:95:f0:e7:39:43:d1:af:
         b2:45:9f:19:0e:c4:b2:96:61:84:4d:23:32:0f:7c:f2:08:c3:
         1c:63:38:03:73:25:81:23:86:ab:d5:66:e0:22:52:ae:ca:52:
         c4:67:9c:62:e5:f1:28:1b:1f:14:6f:5c:30:80:b3:54:7d:7a:
         ae:4f:82:27:2a:74:7f:31:1c:4f:b5:0a:ba:b2:1b:c4:06:15:
         eb:a7:c8:ae:16:28:8c:84:97:ef:e4:6f:1e:80:e5:f9:50:41:
         84:76:e5:54:7e:af:a7:9d:0c:11:c9:ea:b1:bb:68:30:cc:eb:
         3c:a5:a3:66:18:77:4a:d4:aa:4e:07:dd:41:65:7a:ec:54:00:
         d1:76:d9:b0:71:d8:25:f9:a5:57:ea:d4:17:7a:1d:fb:75:5f:
         b4:2e:0c:a5:bd:de:46:68:0f:29:3d:3b:b4:81:f2:50:3b:81:
         9a:64:4d:33:42:48:0e:ab:48:2a:b1:34:b8:21:50:3e:8d:5f:
         0b:0c:98:19:15:c9:25:4f:c0:b1:02:64:bf:fc:10:1d:98:22:
         97:20:56:ec:41:b0:ee:0a:a4:1d:1f:b5:45:db:57:9c:04:5d:
         d7:76:b9:be:aa:e1:35:14:ac:67:1a:d8:64:30:75:80:36:58:
         1d:49:1e:6f:7c:9e:77:94:6f:ad:be:f7:61:60:6e:46:43:a8:
         e0:59:34:f3:83:63:4d:b4
-----BEGIN CERTIFICATE-----
MIIEZjCCAk6gAwIBAgIQCRzw7wO+Q/pg5k5IOJLxOjANBgkqhkiG9w0BAQsFADAw
MQswCQYDVQQGEwJFUzEPMA0GA1UECgwGVGVsZWNvMRAwDgYDVQQDDAdSb290IENB
MB4XDTIzMDQwNDA5MjYyNFoXDTI0MDQwMzA5MjYyNFowNzELMAkGA1UEBhMCRVMx
DzANBgNVBAoMBlRlbGVjbzEXMBUGA1UEAwwOT0NTUCBSZXNwb25kZXIwggEiMA0G
CSqGSIb3DQEBAQUAA4IBDwAwggEKAoIBAQCj7gmaXYpHzHnuTqBU+NEOiBihfuYO
33lzWDmZ3t2BZc4Q0x+1Ap0Brx+B2w7VtYkGKe8Gd2dnW1sKHIMwoxPlWXtPst5T
Yx1RpENWwhGUaqnWUqj9LBbPVd81decFzpgcBpOQFjd0oPU+fwdri57L6aEb69yF
uqz+IEQWpYkWMIwH9jNm0P5i3MdK1oEYce55bdMEpgFtlG8wU35YhMiH6BC2Lwzl
okLhQXFuABhEGiRUGUDWfx8jSdET33K5Ch5Rd1XqXsaZCIcRmp2mekPkx9LpTuxQ
fATtOSmib3TMu7qWtBTGA0VXdW38SJQyYb6M49VySL9KswdyQGCzxrofAgMBAAGj
dTBzMB8GA1UdIwQYMBaAFCbUAzw8tVvnS+RQwK+BrVu0iMgBMAwGA1UdEwEB/wQC
MAAwEwYDVR0lBAwwCgYIKwYBBQUHAwkwDgYDVR0PAQH/BAQDAgeAMB0GA1UdDgQW
BBSURm3F9tjHdwdkUvKdNerZU77DlzANBgkqhkiG9w0BAQsFAAOCAgEAe649SanD
FutdLpdErlK0MAp2DFZ4N051sYRHynNxi/wUMnTfV5xoFLZ9rni/QjXMpjn4TGS9
6sOX+1duTYM3mMgd3ntWLyVye0UTJjxBo8BXtm3sEdiYoJd9+MoTg+ELo0bzC6OG
q2NVWP/JIYz/5/mi2PJyPago0nIjp7ZjpCU6TZxwGL39bCJR3Fe3/gkRtMc+dfAw
Pj0HVLN2V8g42QSvOdL51kHycQITbBWwVu+UklwTtowpajuYSM6e0lGq58EEUzwQ
X2AedpQ9024xD5hHHnRjl057mI8Q258bP9yPGaARNbAUb7mlw1i8U1QjWAkjoBWV
8Oc5Q9GvskWfGQ7EspZhhE0jMg988gjDHGM4A3MlgSOGq9Vm4CJSrspSxGecYuXx
KBsfFG9cMICzVH16rk+CJyp0fzEcT7UKurIbxAYV66fIrhYojISX7+RvHoDl+VBB
hHblVH6vp50MEcnqsbtoMMzrPKWjZhh3StSqTgfdQWV67FQA0XbZsHHYJfmlV+rU
F3od+3VftC4Mpb3eRmgPKT07tIHyUDuBmmRNM0JIDqtIKrE0uCFQPo1fCwyYGRXJ
JU/AsQJkv/wQHZgilyBW7EGw7gqkHR+1RdtXnARd13a5vqrhNRSsZxrYZDB1gDZY
HUkeb3yed5Rvrb73YWBuRkOo4Fk084NjTbQ=
-----END CERTIFICATE-----
