Certificate:
    Data:
        Version: 3 (0x2)
        Serial Number:
            09:1c:f0:ef:03:be:43:fa:60:e6:4e:48:38:92:f1:2c
        Signature Algorithm: sha256WithRSAEncryption
        Issuer: C=ES, O=Teleco, CN=Root CA
        Validity
            Not Before: Mar 26 15:01:08 2023 GMT
            Not After : Mar 23 15:01:08 2033 GMT
        Subject: C=ES, O=Teleco, CN=Server CA
        Subject Public Key Info:
            Public Key Algorithm: rsaEncryption
                RSA Public-Key: (4096 bit)
                Modulus:
                    00:ea:f9:f4:8e:ca:35:9b:17:30:8f:0f:57:b6:a1:
                    d1:17:9a:30:f4:15:ad:a0:62:bc:65:cd:c0:92:94:
                    8f:ac:f3:48:9b:0d:5a:20:76:b3:b9:24:ac:c4:50:
                    40:98:a2:49:e5:fc:68:90:3d:46:9c:26:ab:73:04:
                    3d:f7:e8:e2:49:7a:e7:37:e3:22:82:17:3c:7e:6d:
                    81:d3:1e:00:52:81:c7:15:c7:32:fb:5b:93:72:c3:
                    e0:cf:07:79:86:6e:65:ce:34:b4:6f:4c:74:84:32:
                    c8:3a:ec:de:57:88:46:73:6b:8b:55:ca:23:f1:7a:
                    18:09:bc:1b:5b:5b:83:06:25:54:08:49:2a:40:0c:
                    4e:0c:a8:a7:65:d6:62:7f:9d:c3:4e:1d:dd:3b:45:
                    09:a7:b7:26:fb:14:24:c2:fa:9e:9f:06:cb:1a:bf:
                    d0:20:b4:cb:8a:55:ac:f3:59:d5:00:37:ca:bc:08:
                    e7:8d:7b:25:1e:98:de:f2:d3:c0:57:c3:52:b7:31:
                    4a:2b:95:d2:80:2b:bc:2e:a1:c2:88:75:a8:e1:f6:
                    4b:86:49:f4:73:de:18:20:a9:08:45:97:1f:00:eb:
                    39:12:99:0e:52:eb:66:0d:44:71:c4:c3:72:1e:c4:
                    37:0f:59:90:4d:27:89:e0:b3:c5:5e:36:3e:25:eb:
                    da:7e:81:01:86:16:be:dd:f7:15:b2:52:1c:d7:03:
                    cc:04:3a:60:ec:06:95:ad:34:ed:04:c9:71:2a:3a:
                    b7:f5:b0:fe:c7:af:6f:49:b5:cd:60:b0:97:15:c2:
                    57:96:fe:72:0d:77:9e:44:c5:87:75:fd:e5:2f:74:
                    d3:bd:6e:5d:ce:30:42:00:89:96:82:79:74:e1:d7:
                    6e:b0:fe:6f:68:41:cf:e1:81:c8:c5:00:b8:40:03:
                    48:7e:db:00:4e:20:16:d5:ae:e2:52:ba:5b:65:49:
                    de:71:85:63:71:9d:b1:a3:53:83:80:bb:b1:27:f4:
                    bd:25:a6:0e:cb:3d:5b:72:1d:5f:f2:81:c1:2e:07:
                    e8:22:f1:f3:95:42:94:1d:0d:83:69:e9:c5:44:12:
                    7a:6e:40:60:fb:e8:05:94:ab:37:8f:05:17:ac:d1:
                    0d:4f:3a:ec:af:51:a3:40:a7:d9:a4:21:26:f9:33:
                    61:cc:32:69:a3:f1:6c:12:d8:6e:09:3b:c2:82:1d:
                    fc:f1:b0:4b:53:cd:a8:7e:63:7e:df:a9:17:4d:4d:
                    be:e2:95:14:fc:90:90:6f:60:a7:cb:c4:d2:b5:18:
                    0a:0a:c0:e5:01:7b:81:e3:da:b9:74:52:d4:2d:a8:
                    af:c8:5e:10:1c:2a:d4:64:9d:fa:28:f5:ce:1a:9e:
                    a6:14:d1
                Exponent: 65537 (0x10001)
        X509v3 extensions:
            Authority Information Access: 
                OCSP - URI:http://localhost:9080/

            X509v3 Authority Key Identifier: 
                keyid:8A:F1:16:09:2A:B1:57:D6:A1:B9:1E:BA:5F:5F:E6:81:DA:98:B4:F9

            X509v3 Basic Constraints: critical
                CA:TRUE, pathlen:0
            X509v3 CRL Distribution Points: 

                Full Name:
                  URI:http://root-ca.Teleco.com/root-ca.crl

            X509v3 Extended Key Usage: 
                TLS Web Client Authentication, TLS Web Server Authentication
            X509v3 Key Usage: critical
                Certificate Sign, CRL Sign
            X509v3 Name Constraints: 
                Permitted:
                  DNS:example.com
                  DNS:example.org
                Excluded:
                  IP:0.0.0.0/0.0.0.0
                  IP:0:0:0:0:0:0:0:0/0:0:0:0:0:0:0:0

            X509v3 Subject Key Identifier: 
                FB:05:1B:3E:59:49:40:DD:30:F4:A8:AE:11:9F:AB:15:DF:F6:7B:EB
    Signature Algorithm: sha256WithRSAEncryption
         24:89:00:69:16:b2:4e:fe:c8:58:ff:00:e5:6d:c2:76:5f:fe:
         ed:76:a5:cb:63:73:1c:aa:dc:5e:7f:ff:89:1f:a5:5a:b1:97:
         bc:a7:d4:de:c6:de:b7:a4:62:cf:bb:cb:bd:a1:7f:1d:5c:0d:
         3d:37:f2:4f:e9:92:32:b1:40:c0:d7:b2:5a:99:ec:3c:6e:ae:
         28:9e:67:1e:d2:50:75:c3:df:fb:3e:12:7f:91:6e:d8:04:d3:
         61:71:5f:52:5c:6e:65:c6:05:99:6e:03:1f:68:21:b1:db:72:
         d8:73:b5:75:dd:ae:85:cc:6e:4a:6a:78:ce:2d:7f:b8:43:8b:
         db:dc:90:d5:67:5a:c1:1c:52:4f:f0:04:94:35:f6:be:d6:b1:
         a1:40:2f:0f:f2:35:59:e5:b1:ef:cd:7f:3c:eb:d0:21:f7:ad:
         83:d0:76:54:f7:5f:1c:07:f8:04:bb:1a:e3:3e:0b:7c:3f:70:
         4c:d2:34:da:39:74:78:7f:20:e5:c9:6a:b6:27:b9:28:b0:bd:
         98:d6:41:21:d7:87:c3:f2:ad:12:2d:97:6d:e4:a2:d4:29:f2:
         8b:e0:77:ba:f5:2a:72:d8:86:dd:be:01:f3:c1:40:2f:1f:cb:
         4a:1d:31:91:a6:0a:0c:ba:41:c4:3e:2f:66:8b:6e:3c:4e:22:
         d3:de:48:6b:31:cf:b0:7e:b7:25:94:d6:be:b5:46:f6:51:57:
         55:70:00:14:c5:b8:ee:1a:6a:bf:5c:18:1b:48:5a:01:4b:b0:
         31:b2:93:55:ee:2e:ec:b6:f0:ef:a7:12:f7:82:b7:db:4c:92:
         3d:20:e0:dc:a6:20:2b:aa:e3:b0:6c:e1:41:df:b4:16:70:f5:
         36:00:a0:3d:7c:cc:b9:58:da:39:69:d0:ac:51:21:be:5b:48:
         14:43:b2:06:30:52:d9:ce:03:67:ec:da:77:45:c5:2a:66:a4:
         0f:5c:3d:fa:d4:c0:43:fd:f5:c0:1d:69:5e:f2:15:9c:eb:a4:
         1c:1f:6c:4c:f9:83:b5:35:e3:d5:40:92:8e:d9:7d:87:4f:bf:
         14:12:23:2e:96:01:d3:14:30:ff:f0:ae:e6:e9:2f:e7:d0:77:
         85:10:56:fd:e5:89:d8:7d:55:9e:95:1c:4a:86:02:02:d6:ab:
         6a:39:45:b0:c9:1f:5e:3d:60:45:c2:d2:76:9a:e0:c1:49:78:
         e8:62:e2:12:2d:9f:5d:51:a2:c7:1c:a8:d8:ce:af:fe:cc:02:
         47:59:ab:e7:96:ff:29:44:79:97:66:6a:05:40:61:06:d0:a9:
         6e:ba:a5:bb:84:3d:77:72:b3:5e:e6:82:b3:d1:16:4d:15:cd:
         7f:ab:7e:b7:fd:24:92:fb
-----BEGIN CERTIFICATE-----
MIIGPjCCBCagAwIBAgIQCRzw7wO+Q/pg5k5IOJLxLDANBgkqhkiG9w0BAQsFADAw
MQswCQYDVQQGEwJFUzEPMA0GA1UECgwGVGVsZWNvMRAwDgYDVQQDDAdSb290IENB
MB4XDTIzMDMyNjE1MDEwOFoXDTMzMDMyMzE1MDEwOFowMjELMAkGA1UEBhMCRVMx
DzANBgNVBAoMBlRlbGVjbzESMBAGA1UEAwwJU2VydmVyIENBMIICIjANBgkqhkiG
9w0BAQEFAAOCAg8AMIICCgKCAgEA6vn0jso1mxcwjw9XtqHRF5ow9BWtoGK8Zc3A
kpSPrPNImw1aIHazuSSsxFBAmKJJ5fxokD1GnCarcwQ99+jiSXrnN+Mighc8fm2B
0x4AUoHHFccy+1uTcsPgzwd5hm5lzjS0b0x0hDLIOuzeV4hGc2uLVcoj8XoYCbwb
W1uDBiVUCEkqQAxODKinZdZif53DTh3dO0UJp7cm+xQkwvqenwbLGr/QILTLilWs
81nVADfKvAjnjXslHpje8tPAV8NStzFKK5XSgCu8LqHCiHWo4fZLhkn0c94YIKkI
RZcfAOs5EpkOUutmDURxxMNyHsQ3D1mQTSeJ4LPFXjY+JevafoEBhha+3fcVslIc
1wPMBDpg7AaVrTTtBMlxKjq39bD+x69vSbXNYLCXFcJXlv5yDXeeRMWHdf3lL3TT
vW5dzjBCAImWgnl04ddusP5vaEHP4YHIxQC4QANIftsATiAW1a7iUrpbZUnecYVj
cZ2xo1ODgLuxJ/S9JaYOyz1bch1f8oHBLgfoIvHzlUKUHQ2DaenFRBJ6bkBg++gF
lKs3jwUXrNENTzrsr1GjQKfZpCEm+TNhzDJpo/FsEthuCTvCgh388bBLU82ofmN+
36kXTU2+4pUU/JCQb2Cny8TStRgKCsDlAXuB49q5dFLULaivyF4QHCrUZJ36KPXO
Gp6mFNECAwEAAaOCAVAwggFMMDIGCCsGAQUFBwEBBCYwJDAiBggrBgEFBQcwAYYW
aHR0cDovL2xvY2FsaG9zdDo5MDgwLzAfBgNVHSMEGDAWgBSK8RYJKrFX1qG5Hrpf
X+aB2pi0+TASBgNVHRMBAf8ECDAGAQH/AgEAMDYGA1UdHwQvMC0wK6ApoCeGJWh0
dHA6Ly9yb290LWNhLlRlbGVjby5jb20vcm9vdC1jYS5jcmwwHQYDVR0lBBYwFAYI
KwYBBQUHAwIGCCsGAQUFBwMBMA4GA1UdDwEB/wQEAwIBBjBbBgNVHR4EVDBSoB4w
DYILZXhhbXBsZS5jb20wDYILZXhhbXBsZS5vcmehMDAKhwgAAAAAAAAAADAihyAA
AAAAAAAAAAAAAAAAAAAAAAAAAAAAAAAAAAAAAAAAADAdBgNVHQ4EFgQU+wUbPllJ
QN0w9KiuEZ+rFd/2e+swDQYJKoZIhvcNAQELBQADggIBACSJAGkWsk7+yFj/AOVt
wnZf/u12pctjcxyq3F5//4kfpVqxl7yn1N7G3rekYs+7y72hfx1cDT038k/pkjKx
QMDXslqZ7DxuriieZx7SUHXD3/s+En+RbtgE02FxX1JcbmXGBZluAx9oIbHbcthz
tXXdroXMbkpqeM4tf7hDi9vckNVnWsEcUk/wBJQ19r7WsaFALw/yNVnlse/Nfzzr
0CH3rYPQdlT3XxwH+AS7GuM+C3w/cEzSNNo5dHh/IOXJarYnuSiwvZjWQSHXh8Py
rRItl23kotQp8ovgd7r1KnLYht2+AfPBQC8fy0odMZGmCgy6QcQ+L2aLbjxOItPe
SGsxz7B+tyWU1r61RvZRV1VwABTFuO4aar9cGBtIWgFLsDGyk1XuLuy28O+nEveC
t9tMkj0g4NymICuq47Bs4UHftBZw9TYAoD18zLlY2jlp0KxRIb5bSBRDsgYwUtnO
A2fs2ndFxSpmpA9cPfrUwEP99cAdaV7yFZzrpBwfbEz5g7U149VAko7ZfYdPvxQS
Iy6WAdMUMP/wrubpL+fQd4UQVv3lidh9VZ6VHEqGAgLWq2o5RbDJH149YEXC0naa
4MFJeOhi4hItn11RosccqNjOr/7MAkdZq+eW/ylEeZdmagVAYQbQqW66pbuEPXdy
s17mgrPRFk0VzX+rfrf9JJL7
-----END CERTIFICATE-----
